MODULE Linux arm 38036802AF22533DD508A9AE6D433B140 libbreakpad-core.so
INFO CODE_ID 0268033822AF3D53D508A9AE6D433B14E51D26AE
FUNC 26c10 34 0 __cxx_global_var_init
FUNC 26c44 a 0 _GLOBAL__sub_I_java_BuglyHunter.cpp
FUNC 26c94 128 0 cntl_fd(int, int)
FUNC 26dbc 1d4 0 child_worker()
FUNC 26f90 34 0 _JavaVM::GetEnv(void**, int)
FUNC 26fc4 2a 0 _JNIEnv::FindClass(char const*)
FUNC 26fee 48 0 _JNIEnv::GetStaticMethodID(_jclass*, char const*, char const*)
FUNC 27036 2c 0 _JNIEnv::NewStringUTF(char const*)
FUNC 27064 78 0 _JNIEnv::CallStaticVoidMethod(_jclass*, _jmethodID*, ...)
FUNC 270dc 34 0 _JavaVM::AttachCurrentThread(_JNIEnv**, void*)
FUNC 27110 18 0 _JavaVM::DetachCurrentThread()
FUNC 27128 98 0 start_child_processes()
FUNC 271c0 28 0 std::__ndk1::basic_string<char, std::__ndk1::char_traits<char>, std::__ndk1::allocator<char> >::basic_string()
FUNC 271e8 52 0 std::__ndk1::basic_string<char, std::__ndk1::char_traits<char>, std::__ndk1::allocator<char> >::~basic_string()
FUNC 2723c 50 0 JNI_OnLoad
FUNC 2728c 230 0 DumpCallback(google_breakpad::MinidumpDescriptor const&, void*, bool)
FUNC 274bc 10 0 google_breakpad::MinidumpDescriptor::path() const
FUNC 274cc 1e 0 std::__ndk1::chrono::time_point<std::__ndk1::chrono::system_clock, std::__ndk1::chrono::duration<long long, std::__ndk1::ratio<1ll, 1000000ll> > >::time_since_epoch() const
FUNC 274ec 4c 0 std::__ndk1::chrono::duration_cast<std::__ndk1::chrono::duration<long long, std::__ndk1::ratio<1, 1000> >, long long, std::__ndk1::ratio<1, 1000000> >
FUNC 27538 1a 0 std::__ndk1::chrono::duration<long long, std::__ndk1::ratio<1ll, 1000ll> >::count() const
FUNC 27552 3c 0 std::__ndk1::basic_string<char, std::__ndk1::char_traits<char>, std::__ndk1::allocator<char> > std::__ndk1::operator+<char, std::__ndk1::char_traits<char>, std::__ndk1::allocator<char> >(std::__ndk1::basic_string<char, std::__ndk1::char_traits<char>, std::__ndk1::allocator<char> >&&, char const*)
FUNC 2758e 3c 0 std::__ndk1::basic_string<char, std::__ndk1::char_traits<char>, std::__ndk1::allocator<char> > std::__ndk1::operator+<char, std::__ndk1::char_traits<char>, std::__ndk1::allocator<char> >(std::__ndk1::basic_string<char, std::__ndk1::char_traits<char>, std::__ndk1::allocator<char> >&&, std::__ndk1::basic_string<char, std::__ndk1::char_traits<char>, std::__ndk1::allocator<char> >&&)
FUNC 275cc c8 0 std::__ndk1::basic_string<char, std::__ndk1::char_traits<char>, std::__ndk1::allocator<char> > std::__ndk1::operator+<char, std::__ndk1::char_traits<char>, std::__ndk1::allocator<char> >(std::__ndk1::basic_string<char, std::__ndk1::char_traits<char>, std::__ndk1::allocator<char> > const&, char const*)
FUNC 27694 16 0 std::__ndk1::basic_string<char, std::__ndk1::char_traits<char>, std::__ndk1::allocator<char> >::c_str() const
FUNC 276aa 34 0 std::__ndk1::basic_string<char, std::__ndk1::char_traits<char>, std::__ndk1::allocator<char> >::size() const
FUNC 276e0 1a0 0 initBuglyHunter(_JNIEnv*, _jclass*, _jstring*)
FUNC 27880 36 0 _JNIEnv::GetStringUTFChars(_jstring*, unsigned char*)
FUNC 278b6 2c 0 _JNIEnv::GetStringUTFLength(_jstring*)
FUNC 278e2 1e 0 std::__ndk1::basic_string<char, std::__ndk1::char_traits<char>, std::__ndk1::allocator<char> >::operator=(char const*)
FUNC 27900 36 0 std::__ndk1::basic_string<char, std::__ndk1::char_traits<char>, std::__ndk1::allocator<char> >::basic_string(char const*)
FUNC 27938 b4 0 google_breakpad::MinidumpDescriptor::MinidumpDescriptor(std::__ndk1::basic_string<char, std::__ndk1::char_traits<char>, std::__ndk1::allocator<char> > const&)
FUNC 279ec 36 0 _JNIEnv::ReleaseStringUTFChars(_jstring*, char const*)
FUNC 27a24 bc 0 Java_com_zw_bugly_BuglyHunter_native_1init
FUNC 27ae0 64 0 std::__ndk1::chrono::__duration_cast<std::__ndk1::chrono::duration<long long, std::__ndk1::ratio<1ll, 1000000ll> >, std::__ndk1::chrono::duration<long long, std::__ndk1::ratio<1ll, 1000ll> >, std::__ndk1::ratio<1ll, 1000ll>, true, false>::operator()(std::__ndk1::chrono::duration<long long, std::__ndk1::ratio<1ll, 1000000ll> > const&) const
FUNC 27b44 1a 0 std::__ndk1::chrono::duration<long long, std::__ndk1::ratio<1ll, 1000000ll> >::count() const
FUNC 27b5e 2c 0 std::__ndk1::chrono::duration<long long, std::__ndk1::ratio<1, 1000> >::duration<long long>
FUNC 27b8c bc 0 std::__ndk1::basic_string<char, std::__ndk1::char_traits<char>, std::__ndk1::allocator<char> >::basic_string(std::__ndk1::basic_string<char, std::__ndk1::char_traits<char>, std::__ndk1::allocator<char> > const&)
FUNC 27c48 18 0 google_breakpad::MicrodumpExtraInfo::MicrodumpExtraInfo()
FUNC 27c60 1c 0 std::__ndk1::basic_string<char, std::__ndk1::char_traits<char>, std::__ndk1::allocator<char> >::empty() const
FUNC 27c7c 16 0 std::__ndk1::allocator_traits<std::__ndk1::allocator<char> >::select_on_container_copy_construction(std::__ndk1::allocator<char> const&)
FUNC 27c92 16 0 std::__ndk1::basic_string<char, std::__ndk1::char_traits<char>, std::__ndk1::allocator<char> >::__alloc() const
FUNC 27ca8 32 0 std::__ndk1::__compressed_pair<std::__ndk1::basic_string<char, std::__ndk1::char_traits<char>, std::__ndk1::allocator<char> >::__rep, std::__ndk1::allocator<char> >::__compressed_pair<std::__ndk1::allocator<char> >(std::__ndk1::__second_tag, std::__ndk1::allocator<char>&&)
FUNC 27cda 1c 0 std::__ndk1::basic_string<char, std::__ndk1::char_traits<char>, std::__ndk1::allocator<char> >::__is_long() const
FUNC 27cf6 16 0 std::__ndk1::__compressed_pair<std::__ndk1::basic_string<char, std::__ndk1::char_traits<char>, std::__ndk1::allocator<char> >::__rep, std::__ndk1::allocator<char> >::first() const
FUNC 27d0c 16 0 std::__ndk1::__compressed_pair<std::__ndk1::basic_string<char, std::__ndk1::char_traits<char>, std::__ndk1::allocator<char> >::__rep, std::__ndk1::allocator<char> >::first()
FUNC 27d24 dc 0 std::__ndk1::basic_string<char, std::__ndk1::char_traits<char>, std::__ndk1::allocator<char> >::__init(char const*, unsigned int)
FUNC 27e00 e 0 char const* std::__ndk1::__to_raw_pointer<char const>(char const*)
FUNC 27e0e 18 0 std::__ndk1::basic_string<char, std::__ndk1::char_traits<char>, std::__ndk1::allocator<char> >::__get_long_pointer() const
FUNC 27e26 18 0 std::__ndk1::basic_string<char, std::__ndk1::char_traits<char>, std::__ndk1::allocator<char> >::__get_long_size() const
FUNC 27e3e c 0 std::__ndk1::allocator_traits<std::__ndk1::allocator<char> >::__select_on_container_copy_construction(std::__ndk1::integral_constant<bool, false>, std::__ndk1::allocator<char> const&)
FUNC 27e4a 16 0 std::__ndk1::__compressed_pair<std::__ndk1::basic_string<char, std::__ndk1::char_traits<char>, std::__ndk1::allocator<char> >::__rep, std::__ndk1::allocator<char> >::second() const
FUNC 27e60 e 0 std::__ndk1::__compressed_pair_elem<std::__ndk1::allocator<char>, 1, true>::__get() const
FUNC 27e6e 16 0 std::__ndk1::__compressed_pair_elem<std::__ndk1::basic_string<char, std::__ndk1::char_traits<char>, std::__ndk1::allocator<char> >::__rep, 0, false>::__compressed_pair_elem()
FUNC 27e84 e 0 std::__ndk1::allocator<char>&& std::__ndk1::forward<std::__ndk1::allocator<char> >(std::__ndk1::remove_reference<std::__ndk1::allocator<char> >::type&)
FUNC 27e92 28 0 std::__ndk1::__compressed_pair_elem<std::__ndk1::allocator<char>, 1, true>::__compressed_pair_elem<std::__ndk1::allocator<char>, void>(std::__ndk1::allocator<char>&&)
FUNC 27eba e 0 std::__ndk1::__compressed_pair_elem<std::__ndk1::basic_string<char, std::__ndk1::char_traits<char>, std::__ndk1::allocator<char> >::__rep, 0, false>::__get() const
FUNC 27ec8 e 0 std::__ndk1::__compressed_pair_elem<std::__ndk1::basic_string<char, std::__ndk1::char_traits<char>, std::__ndk1::allocator<char> >::__rep, 0, false>::__get()
FUNC 27ed6 20 0 std::__ndk1::basic_string<char, std::__ndk1::char_traits<char>, std::__ndk1::allocator<char> >::max_size() const
FUNC 27ef8 18 0 std::__ndk1::__basic_string_common<true>::__throw_length_error() const
FUNC 27f10 26 0 std::__ndk1::basic_string<char, std::__ndk1::char_traits<char>, std::__ndk1::allocator<char> >::__set_short_size(unsigned int)
FUNC 27f36 1c 0 std::__ndk1::basic_string<char, std::__ndk1::char_traits<char>, std::__ndk1::allocator<char> >::__get_short_pointer()
FUNC 27f52 42 0 std::__ndk1::basic_string<char, std::__ndk1::char_traits<char>, std::__ndk1::allocator<char> >::__recommend(unsigned int)
FUNC 27f94 24 0 std::__ndk1::allocator_traits<std::__ndk1::allocator<char> >::allocate(std::__ndk1::allocator<char>&, unsigned int)
FUNC 27fb8 16 0 std::__ndk1::basic_string<char, std::__ndk1::char_traits<char>, std::__ndk1::allocator<char> >::__alloc()
FUNC 27fce 24 0 std::__ndk1::basic_string<char, std::__ndk1::char_traits<char>, std::__ndk1::allocator<char> >::__set_long_pointer(char*)
FUNC 27ff2 28 0 std::__ndk1::basic_string<char, std::__ndk1::char_traits<char>, std::__ndk1::allocator<char> >::__set_long_cap(unsigned int)
FUNC 2801a 24 0 std::__ndk1::basic_string<char, std::__ndk1::char_traits<char>, std::__ndk1::allocator<char> >::__set_long_size(unsigned int)
FUNC 2803e 44 0 std::__ndk1::char_traits<char>::copy(char*, char const*, unsigned int)
FUNC 28082 e 0 char* std::__ndk1::__to_raw_pointer<char>(char*)
FUNC 28090 1a 0 std::__ndk1::char_traits<char>::assign(char&, char const&)
FUNC 280aa 16 0 std::__ndk1::allocator_traits<std::__ndk1::allocator<char> >::max_size(std::__ndk1::allocator<char> const&)
FUNC 280c0 16 0 std::__ndk1::allocator_traits<std::__ndk1::allocator<char> >::__max_size(std::__ndk1::integral_constant<bool, true>, std::__ndk1::allocator<char> const&)
FUNC 280d6 10 0 std::__ndk1::allocator<char>::max_size() const
FUNC 280e8 50 0 std::__ndk1::__throw_length_error(char const*)
FUNC 28138 34 0 std::length_error::length_error(char const*)
FUNC 2816c 16 0 std::__ndk1::pointer_traits<char*>::pointer_to(char&)
FUNC 28182 e 0 char* std::__ndk1::addressof<char>(char&)
FUNC 28190 14 0 unsigned int std::__ndk1::basic_string<char, std::__ndk1::char_traits<char>, std::__ndk1::allocator<char> >::__align_it<16u>(unsigned int)
FUNC 281a4 48 0 std::__ndk1::allocator<char>::allocate(unsigned int, void const*)
FUNC 281ec 1c 0 std::__ndk1::__libcpp_allocate(unsigned int, unsigned int)
FUNC 28208 16 0 std::__ndk1::__compressed_pair<std::__ndk1::basic_string<char, std::__ndk1::char_traits<char>, std::__ndk1::allocator<char> >::__rep, std::__ndk1::allocator<char> >::second()
FUNC 2821e e 0 std::__ndk1::__compressed_pair_elem<std::__ndk1::allocator<char>, 1, true>::__get()
FUNC 2822c 2a 0 std::__ndk1::allocator_traits<std::__ndk1::allocator<char> >::deallocate(std::__ndk1::allocator<char>&, char*, unsigned int)
FUNC 28256 18 0 std::__ndk1::basic_string<char, std::__ndk1::char_traits<char>, std::__ndk1::allocator<char> >::__get_long_pointer()
FUNC 2826e 1c 0 std::__ndk1::basic_string<char, std::__ndk1::char_traits<char>, std::__ndk1::allocator<char> >::__get_long_cap() const
FUNC 2828a 32 0 std::__ndk1::allocator<char>::deallocate(char*, unsigned int)
FUNC 282bc 2a 0 std::__ndk1::__libcpp_deallocate(void*, unsigned int, unsigned int)
FUNC 282f6 28 0 std::__ndk1::_DeallocateCaller::__do_deallocate_handle_size_align(void*, unsigned int, unsigned int)
FUNC 2831e 1c 0 std::__ndk1::_DeallocateCaller::__do_deallocate_handle_size(void*, unsigned int)
FUNC 2833a 16 0 std::__ndk1::_DeallocateCaller::__do_call(void*)
FUNC 28350 20 0 std::__ndk1::__compressed_pair<std::__ndk1::basic_string<char, std::__ndk1::char_traits<char>, std::__ndk1::allocator<char> >::__rep, std::__ndk1::allocator<char> >::__compressed_pair<true, void>()
FUNC 28370 3a 0 std::__ndk1::basic_string<char, std::__ndk1::char_traits<char>, std::__ndk1::allocator<char> >::__zero()
FUNC 283aa 1a 0 std::__ndk1::__compressed_pair_elem<std::__ndk1::allocator<char>, 1, true>::__compressed_pair_elem()
FUNC 283c4 e 0 std::__ndk1::allocator<char>::allocator()
FUNC 283d2 18 0 std::__ndk1::basic_string<char, std::__ndk1::char_traits<char>, std::__ndk1::allocator<char> >::get_allocator() const
FUNC 283ea 30 0 std::__ndk1::basic_string<char, std::__ndk1::char_traits<char>, std::__ndk1::allocator<char> >::basic_string(std::__ndk1::allocator<char> const&)
FUNC 2841a 16 0 std::__ndk1::char_traits<char>::length(char const*)
FUNC 28430 e8 0 std::__ndk1::basic_string<char, std::__ndk1::char_traits<char>, std::__ndk1::allocator<char> >::__init(char const*, unsigned int, unsigned int)
FUNC 28518 1a 0 std::__ndk1::basic_string<char, std::__ndk1::char_traits<char>, std::__ndk1::allocator<char> >::data() const
FUNC 28534 f4 0 std::__ndk1::basic_string<char, std::__ndk1::char_traits<char>, std::__ndk1::allocator<char> >::append(char const*, unsigned int)
FUNC 28628 32 0 std::__ndk1::__compressed_pair<std::__ndk1::basic_string<char, std::__ndk1::char_traits<char>, std::__ndk1::allocator<char> >::__rep, std::__ndk1::allocator<char> >::__compressed_pair<std::__ndk1::allocator<char> const&>(std::__ndk1::__second_tag, std::__ndk1::allocator<char> const&)
FUNC 2865a e 0 std::__ndk1::allocator<char> const& std::__ndk1::forward<std::__ndk1::allocator<char> const&>(std::__ndk1::remove_reference<std::__ndk1::allocator<char> const&>::type&)
FUNC 28668 28 0 std::__ndk1::__compressed_pair_elem<std::__ndk1::allocator<char>, 1, true>::__compressed_pair_elem<std::__ndk1::allocator<char> const&, void>(std::__ndk1::allocator<char> const&)
FUNC 28690 34 0 std::__ndk1::basic_string<char, std::__ndk1::char_traits<char>, std::__ndk1::allocator<char> >::__get_pointer() const
FUNC 286c4 1c 0 std::__ndk1::basic_string<char, std::__ndk1::char_traits<char>, std::__ndk1::allocator<char> >::__get_short_pointer() const
FUNC 286e0 16 0 std::__ndk1::pointer_traits<char const*>::pointer_to(char const&)
FUNC 286f6 e 0 char const* std::__ndk1::addressof<char const>(char const&)
FUNC 28704 32 0 std::__ndk1::basic_string<char, std::__ndk1::char_traits<char>, std::__ndk1::allocator<char> >::capacity() const
FUNC 28736 34 0 std::__ndk1::basic_string<char, std::__ndk1::char_traits<char>, std::__ndk1::allocator<char> >::__get_pointer()
FUNC 2876a 38 0 std::__ndk1::basic_string<char, std::__ndk1::char_traits<char>, std::__ndk1::allocator<char> >::__set_size(unsigned int)
FUNC 287a4 1e8 0 std::__ndk1::basic_string<char, std::__ndk1::char_traits<char>, std::__ndk1::allocator<char> >::__grow_by_and_replace(unsigned int, unsigned int, unsigned int, unsigned int, unsigned int, unsigned int, char const*)
FUNC 2898c 1e 0 unsigned int const& std::__ndk1::max<unsigned int>(unsigned int const&, unsigned int const&)
FUNC 289aa c 0 std::__ndk1::basic_string<char, std::__ndk1::char_traits<char>, std::__ndk1::allocator<char> >::__invalidate_all_iterators()
FUNC 289b8 68 0 unsigned int const& std::__ndk1::max<unsigned int, std::__ndk1::__less<unsigned int, unsigned int> >(unsigned int const&, unsigned int const&, std::__ndk1::__less<unsigned int, unsigned int>)
FUNC 28a20 32 0 std::__ndk1::__less<unsigned int, unsigned int>::operator()(unsigned int const&, unsigned int const&) const
FUNC 28a52 e 0 std::__ndk1::remove_reference<std::__ndk1::basic_string<char, std::__ndk1::char_traits<char>, std::__ndk1::allocator<char> >&>::type&& std::__ndk1::move<std::__ndk1::basic_string<char, std::__ndk1::char_traits<char>, std::__ndk1::allocator<char> >&>(std::__ndk1::basic_string<char, std::__ndk1::char_traits<char>, std::__ndk1::allocator<char> >&)
FUNC 28a60 3a 0 std::__ndk1::basic_string<char, std::__ndk1::char_traits<char>, std::__ndk1::allocator<char> >::append(std::__ndk1::basic_string<char, std::__ndk1::char_traits<char>, std::__ndk1::allocator<char> > const&)
FUNC 28a9a 38 0 std::__ndk1::basic_string<char, std::__ndk1::char_traits<char>, std::__ndk1::allocator<char> >::basic_string(std::__ndk1::basic_string<char, std::__ndk1::char_traits<char>, std::__ndk1::allocator<char> >&&)
FUNC 28ad2 e 0 std::__ndk1::remove_reference<std::__ndk1::__compressed_pair<std::__ndk1::basic_string<char, std::__ndk1::char_traits<char>, std::__ndk1::allocator<char> >::__rep, std::__ndk1::allocator<char> >&>::type&& std::__ndk1::move<std::__ndk1::__compressed_pair<std::__ndk1::basic_string<char, std::__ndk1::char_traits<char>, std::__ndk1::allocator<char> >::__rep, std::__ndk1::allocator<char> >&>(std::__ndk1::__compressed_pair<std::__ndk1::basic_string<char, std::__ndk1::char_traits<char>, std::__ndk1::allocator<char> >::__rep, std::__ndk1::allocator<char> >&)
FUNC 28ae0 32 0 std::__ndk1::basic_string<char, std::__ndk1::char_traits<char>, std::__ndk1::allocator<char> >::append(char const*)
FUNC 28b12 1a 0 std::__ndk1::basic_string<char, std::__ndk1::char_traits<char>, std::__ndk1::allocator<char> >::__get_short_size() const
FUNC 28b2c 32 0 std::__ndk1::basic_string<char, std::__ndk1::char_traits<char>, std::__ndk1::allocator<char> >::assign(char const*)
FUNC 28b60 e0 0 std::__ndk1::basic_string<char, std::__ndk1::char_traits<char>, std::__ndk1::allocator<char> >::assign(char const*, unsigned int)
FUNC 28c40 42 0 std::__ndk1::char_traits<char>::move(char*, char const*, unsigned int)
FUNC 28c82 12 0 std::__ndk1::basic_string<char, std::__ndk1::char_traits<char>, std::__ndk1::allocator<char> >::__invalidate_iterators_past(unsigned int)
FUNC 28c94 10 0 crash_test()
FUNC 28ca4 1a 0 Java_com_zw_bugly_TestBugly_native_1crash1
FUNC 28cbe 1a 0 Java_com_zw_bugly_TestBugly_native_1crash2
FUNC 28cd8 68 0 Java_com_zw_bugly_TestBugly_native_1crash3
FUNC 28d40 124 0 std::__ndk1::thread::thread<Java_com_zw_bugly_TestBugly_native_1crash3::$_0, , void>(Java_com_zw_bugly_TestBugly_native_1crash3::$_0&&)
FUNC 28e64 68 0 Java_com_zw_bugly_TestBugly_native_1crash4
FUNC 28ecc 124 0 std::__ndk1::thread::thread<Java_com_zw_bugly_TestBugly_native_1crash4::$_1, , void>(Java_com_zw_bugly_TestBugly_native_1crash4::$_1&&)
FUNC 28ff0 50 0 std::__ndk1::unique_ptr<std::__ndk1::__thread_struct, std::__ndk1::default_delete<std::__ndk1::__thread_struct> >::unique_ptr<true, void>(std::__ndk1::__thread_struct*)
FUNC 29040 e 0 std::__ndk1::remove_reference<std::__ndk1::unique_ptr<std::__ndk1::__thread_struct, std::__ndk1::default_delete<std::__ndk1::__thread_struct> >&>::type&& std::__ndk1::move<std::__ndk1::unique_ptr<std::__ndk1::__thread_struct, std::__ndk1::default_delete<std::__ndk1::__thread_struct> >&>(std::__ndk1::unique_ptr<std::__ndk1::__thread_struct, std::__ndk1::default_delete<std::__ndk1::__thread_struct> >&)
FUNC 2904e 18 0 std::__ndk1::decay<Java_com_zw_bugly_TestBugly_native_1crash3::$_0>::type std::__ndk1::__decay_copy<Java_com_zw_bugly_TestBugly_native_1crash3::$_0>(Java_com_zw_bugly_TestBugly_native_1crash3::$_0&&)
FUNC 29066 e 0 Java_com_zw_bugly_TestBugly_native_1crash3::$_0&& std::__ndk1::forward<Java_com_zw_bugly_TestBugly_native_1crash3::$_0>(std::__ndk1::remove_reference<Java_com_zw_bugly_TestBugly_native_1crash3::$_0>::type&)
FUNC 29074 46 0 std::__ndk1::tuple<std::__ndk1::unique_ptr<std::__ndk1::__thread_struct, std::__ndk1::default_delete<std::__ndk1::__thread_struct> >, Java_com_zw_bugly_TestBugly_native_1crash3::$_0>::tuple<std::__ndk1::unique_ptr<std::__ndk1::__thread_struct, std::__ndk1::default_delete<std::__ndk1::__thread_struct> >, Java_com_zw_bugly_TestBugly_native_1crash3::$_0, false, false>(std::__ndk1::unique_ptr<std::__ndk1::__thread_struct, std::__ndk1::default_delete<std::__ndk1::__thread_struct> >&&, Java_com_zw_bugly_TestBugly_native_1crash3::$_0&&)
FUNC 290bc 50 0 std::__ndk1::unique_ptr<std::__ndk1::tuple<std::__ndk1::unique_ptr<std::__ndk1::__thread_struct, std::__ndk1::default_delete<std::__ndk1::__thread_struct> >, Java_com_zw_bugly_TestBugly_native_1crash3::$_0>, std::__ndk1::default_delete<std::__ndk1::tuple<std::__ndk1::unique_ptr<std::__ndk1::__thread_struct, std::__ndk1::default_delete<std::__ndk1::__thread_struct> >, Java_com_zw_bugly_TestBugly_native_1crash3::$_0> > >::unique_ptr<true, void>(std::__ndk1::tuple<std::__ndk1::unique_ptr<std::__ndk1::__thread_struct, std::__ndk1::default_delete<std::__ndk1::__thread_struct> >, Java_com_zw_bugly_TestBugly_native_1crash3::$_0>*)
FUNC 2910c 34 0 std::__ndk1::__libcpp_thread_create(long*, void* (*)(void*), void*)
FUNC 29140 a0 0 void* std::__ndk1::__thread_proxy<std::__ndk1::tuple<std::__ndk1::unique_ptr<std::__ndk1::__thread_struct, std::__ndk1::default_delete<std::__ndk1::__thread_struct> >, Java_com_zw_bugly_TestBugly_native_1crash3::$_0> >(void*)
FUNC 291e0 18 0 std::__ndk1::unique_ptr<std::__ndk1::tuple<std::__ndk1::unique_ptr<std::__ndk1::__thread_struct, std::__ndk1::default_delete<std::__ndk1::__thread_struct> >, Java_com_zw_bugly_TestBugly_native_1crash3::$_0>, std::__ndk1::default_delete<std::__ndk1::tuple<std::__ndk1::unique_ptr<std::__ndk1::__thread_struct, std::__ndk1::default_delete<std::__ndk1::__thread_struct> >, Java_com_zw_bugly_TestBugly_native_1crash3::$_0> > >::get() const
FUNC 291f8 28 0 std::__ndk1::unique_ptr<std::__ndk1::tuple<std::__ndk1::unique_ptr<std::__ndk1::__thread_struct, std::__ndk1::default_delete<std::__ndk1::__thread_struct> >, Java_com_zw_bugly_TestBugly_native_1crash3::$_0>, std::__ndk1::default_delete<std::__ndk1::tuple<std::__ndk1::unique_ptr<std::__ndk1::__thread_struct, std::__ndk1::default_delete<std::__ndk1::__thread_struct> >, Java_com_zw_bugly_TestBugly_native_1crash3::$_0> > >::release()
FUNC 29220 1e 0 std::__ndk1::unique_ptr<std::__ndk1::tuple<std::__ndk1::unique_ptr<std::__ndk1::__thread_struct, std::__ndk1::default_delete<std::__ndk1::__thread_struct> >, Java_com_zw_bugly_TestBugly_native_1crash3::$_0>, std::__ndk1::default_delete<std::__ndk1::tuple<std::__ndk1::unique_ptr<std::__ndk1::__thread_struct, std::__ndk1::default_delete<std::__ndk1::__thread_struct> >, Java_com_zw_bugly_TestBugly_native_1crash3::$_0> > >::~unique_ptr()
FUNC 2923e 1e 0 std::__ndk1::unique_ptr<std::__ndk1::__thread_struct, std::__ndk1::default_delete<std::__ndk1::__thread_struct> >::~unique_ptr()
FUNC 2925c 30 0 std::__ndk1::__compressed_pair<std::__ndk1::__thread_struct*, std::__ndk1::default_delete<std::__ndk1::__thread_struct> >::__compressed_pair<std::__ndk1::__thread_struct*&, true>(std::__ndk1::__thread_struct*&)
FUNC 2928c e 0 std::__ndk1::__thread_struct*& std::__ndk1::forward<std::__ndk1::__thread_struct*&>(std::__ndk1::remove_reference<std::__ndk1::__thread_struct*&>::type&)
FUNC 2929a 2a 0 std::__ndk1::__compressed_pair_elem<std::__ndk1::__thread_struct*, 0, false>::__compressed_pair_elem<std::__ndk1::__thread_struct*&, void>(std::__ndk1::__thread_struct*&)
FUNC 292c4 e 0 std::__ndk1::unique_ptr<std::__ndk1::__thread_struct, std::__ndk1::default_delete<std::__ndk1::__thread_struct> >&& std::__ndk1::forward<std::__ndk1::unique_ptr<std::__ndk1::__thread_struct, std::__ndk1::default_delete<std::__ndk1::__thread_struct> > >(std::__ndk1::remove_reference<std::__ndk1::unique_ptr<std::__ndk1::__thread_struct, std::__ndk1::default_delete<std::__ndk1::__thread_struct> > >::type&)
FUNC 292d2 4c 0 std::__ndk1::__tuple_impl<std::__ndk1::__tuple_indices<0u, 1u>, std::__ndk1::unique_ptr<std::__ndk1::__thread_struct, std::__ndk1::default_delete<std::__ndk1::__thread_struct> >, Java_com_zw_bugly_TestBugly_native_1crash3::$_0>::__tuple_impl<0u, 1u, std::__ndk1::unique_ptr<std::__ndk1::__thread_struct, std::__ndk1::default_delete<std::__ndk1::__thread_struct> >, Java_com_zw_bugly_TestBugly_native_1crash3::$_0, , , std::__ndk1::unique_ptr<std::__ndk1::__thread_struct, std::__ndk1::default_delete<std::__ndk1::__thread_struct> >, Java_com_zw_bugly_TestBugly_native_1crash3::$_0>(std::__ndk1::__tuple_indices<0u, 1u>, std::__ndk1::__tuple_types<std::__ndk1::unique_ptr<std::__ndk1::__thread_struct, std::__ndk1::default_delete<std::__ndk1::__thread_struct> >, Java_com_zw_bugly_TestBugly_native_1crash3::$_0>, std::__ndk1::__tuple_indices<>, std::__ndk1::__tuple_types<>, std::__ndk1::unique_ptr<std::__ndk1::__thread_struct, std::__ndk1::default_delete<std::__ndk1::__thread_struct> >&&, Java_com_zw_bugly_TestBugly_native_1crash3::$_0&&)
FUNC 2931e 30 0 std::__ndk1::__tuple_leaf<0u, std::__ndk1::unique_ptr<std::__ndk1::__thread_struct, std::__ndk1::default_delete<std::__ndk1::__thread_struct> >, false>::__tuple_leaf<std::__ndk1::unique_ptr<std::__ndk1::__thread_struct, std::__ndk1::default_delete<std::__ndk1::__thread_struct> >, void>(std::__ndk1::unique_ptr<std::__ndk1::__thread_struct, std::__ndk1::default_delete<std::__ndk1::__thread_struct> >&&)
FUNC 2934e 28 0 std::__ndk1::__tuple_leaf<1u, Java_com_zw_bugly_TestBugly_native_1crash3::$_0, true>::__tuple_leaf<Java_com_zw_bugly_TestBugly_native_1crash3::$_0, void>(Java_com_zw_bugly_TestBugly_native_1crash3::$_0&&)
FUNC 29378 6c 0 std::__ndk1::unique_ptr<std::__ndk1::__thread_struct, std::__ndk1::default_delete<std::__ndk1::__thread_struct> >::unique_ptr(std::__ndk1::unique_ptr<std::__ndk1::__thread_struct, std::__ndk1::default_delete<std::__ndk1::__thread_struct> >&&)
FUNC 293e4 28 0 std::__ndk1::unique_ptr<std::__ndk1::__thread_struct, std::__ndk1::default_delete<std::__ndk1::__thread_struct> >::release()
FUNC 2940c e 0 std::__ndk1::default_delete<std::__ndk1::__thread_struct>&& std::__ndk1::forward<std::__ndk1::default_delete<std::__ndk1::__thread_struct> >(std::__ndk1::remove_reference<std::__ndk1::default_delete<std::__ndk1::__thread_struct> >::type&)
FUNC 2941a 16 0 std::__ndk1::unique_ptr<std::__ndk1::__thread_struct, std::__ndk1::default_delete<std::__ndk1::__thread_struct> >::get_deleter()
FUNC 29430 4c 0 std::__ndk1::__compressed_pair<std::__ndk1::__thread_struct*, std::__ndk1::default_delete<std::__ndk1::__thread_struct> >::__compressed_pair<std::__ndk1::__thread_struct*, std::__ndk1::default_delete<std::__ndk1::__thread_struct> >(std::__ndk1::__thread_struct*&&, std::__ndk1::default_delete<std::__ndk1::__thread_struct>&&)
FUNC 2947c 16 0 std::__ndk1::__compressed_pair<std::__ndk1::__thread_struct*, std::__ndk1::default_delete<std::__ndk1::__thread_struct> >::first()
FUNC 29492 e 0 std::__ndk1::__compressed_pair_elem<std::__ndk1::__thread_struct*, 0, false>::__get()
FUNC 294a0 16 0 std::__ndk1::__compressed_pair<std::__ndk1::__thread_struct*, std::__ndk1::default_delete<std::__ndk1::__thread_struct> >::second()
FUNC 294b6 e 0 std::__ndk1::__compressed_pair_elem<std::__ndk1::default_delete<std::__ndk1::__thread_struct>, 1, true>::__get()
FUNC 294c4 e 0 std::__ndk1::__thread_struct*&& std::__ndk1::forward<std::__ndk1::__thread_struct*>(std::__ndk1::remove_reference<std::__ndk1::__thread_struct*>::type&)
FUNC 294d2 2a 0 std::__ndk1::__compressed_pair_elem<std::__ndk1::__thread_struct*, 0, false>::__compressed_pair_elem<std::__ndk1::__thread_struct*, void>(std::__ndk1::__thread_struct*&&)
FUNC 294fc 28 0 std::__ndk1::__compressed_pair_elem<std::__ndk1::default_delete<std::__ndk1::__thread_struct>, 1, true>::__compressed_pair_elem<std::__ndk1::default_delete<std::__ndk1::__thread_struct>, void>(std::__ndk1::default_delete<std::__ndk1::__thread_struct>&&)
FUNC 29524 30 0 std::__ndk1::__compressed_pair<std::__ndk1::tuple<std::__ndk1::unique_ptr<std::__ndk1::__thread_struct, std::__ndk1::default_delete<std::__ndk1::__thread_struct> >, Java_com_zw_bugly_TestBugly_native_1crash3::$_0>*, std::__ndk1::default_delete<std::__ndk1::tuple<std::__ndk1::unique_ptr<std::__ndk1::__thread_struct, std::__ndk1::default_delete<std::__ndk1::__thread_struct> >, Java_com_zw_bugly_TestBugly_native_1crash3::$_0> > >::__compressed_pair<std::__ndk1::tuple<std::__ndk1::unique_ptr<std::__ndk1::__thread_struct, std::__ndk1::default_delete<std::__ndk1::__thread_struct> >, Java_com_zw_bugly_TestBugly_native_1crash3::$_0>*&, true>(std::__ndk1::tuple<std::__ndk1::unique_ptr<std::__ndk1::__thread_struct, std::__ndk1::default_delete<std::__ndk1::__thread_struct> >, Java_com_zw_bugly_TestBugly_native_1crash3::$_0>*&)
FUNC 29554 e 0 std::__ndk1::tuple<std::__ndk1::unique_ptr<std::__ndk1::__thread_struct, std::__ndk1::default_delete<std::__ndk1::__thread_struct> >, Java_com_zw_bugly_TestBugly_native_1crash3::$_0>*& std::__ndk1::forward<std::__ndk1::tuple<std::__ndk1::unique_ptr<std::__ndk1::__thread_struct, std::__ndk1::default_delete<std::__ndk1::__thread_struct> >, Java_com_zw_bugly_TestBugly_native_1crash3::$_0>*&>(std::__ndk1::remove_reference<std::__ndk1::tuple<std::__ndk1::unique_ptr<std::__ndk1::__thread_struct, std::__ndk1::default_delete<std::__ndk1::__thread_struct> >, Java_com_zw_bugly_TestBugly_native_1crash3::$_0>*&>::type&)
FUNC 29562 2a 0 std::__ndk1::__compressed_pair_elem<std::__ndk1::tuple<std::__ndk1::unique_ptr<std::__ndk1::__thread_struct, std::__ndk1::default_delete<std::__ndk1::__thread_struct> >, Java_com_zw_bugly_TestBugly_native_1crash3::$_0>*, 0, false>::__compressed_pair_elem<std::__ndk1::tuple<std::__ndk1::unique_ptr<std::__ndk1::__thread_struct, std::__ndk1::default_delete<std::__ndk1::__thread_struct> >, Java_com_zw_bugly_TestBugly_native_1crash3::$_0>*&, void>(std::__ndk1::tuple<std::__ndk1::unique_ptr<std::__ndk1::__thread_struct, std::__ndk1::default_delete<std::__ndk1::__thread_struct> >, Java_com_zw_bugly_TestBugly_native_1crash3::$_0>*&)
FUNC 2958c 22 0 std::__ndk1::__thread_specific_ptr<std::__ndk1::__thread_struct>::set_pointer(std::__ndk1::__thread_struct*)
FUNC 295ae 16 0 std::__ndk1::tuple_element<0u, std::__ndk1::tuple<std::__ndk1::unique_ptr<std::__ndk1::__thread_struct, std::__ndk1::default_delete<std::__ndk1::__thread_struct> >, Java_com_zw_bugly_TestBugly_native_1crash3::$_0> >::type& std::__ndk1::get<0u, std::__ndk1::unique_ptr<std::__ndk1::__thread_struct, std::__ndk1::default_delete<std::__ndk1::__thread_struct> >, Java_com_zw_bugly_TestBugly_native_1crash3::$_0>(std::__ndk1::tuple<std::__ndk1::unique_ptr<std::__ndk1::__thread_struct, std::__ndk1::default_delete<std::__ndk1::__thread_struct> >, Java_com_zw_bugly_TestBugly_native_1crash3::$_0>&)
FUNC 295c4 18 0 std::__ndk1::unique_ptr<std::__ndk1::tuple<std::__ndk1::unique_ptr<std::__ndk1::__thread_struct, std::__ndk1::default_delete<std::__ndk1::__thread_struct> >, Java_com_zw_bugly_TestBugly_native_1crash3::$_0>, std::__ndk1::default_delete<std::__ndk1::tuple<std::__ndk1::unique_ptr<std::__ndk1::__thread_struct, std::__ndk1::default_delete<std::__ndk1::__thread_struct> >, Java_com_zw_bugly_TestBugly_native_1crash3::$_0> > >::operator*() const
FUNC 295dc 1e 0 void std::__ndk1::__thread_execute<std::__ndk1::unique_ptr<std::__ndk1::__thread_struct, std::__ndk1::default_delete<std::__ndk1::__thread_struct> >, Java_com_zw_bugly_TestBugly_native_1crash3::$_0>(std::__ndk1::tuple<std::__ndk1::unique_ptr<std::__ndk1::__thread_struct, std::__ndk1::default_delete<std::__ndk1::__thread_struct> >, Java_com_zw_bugly_TestBugly_native_1crash3::$_0>&, std::__ndk1::__tuple_indices<>)
FUNC 295fa 1e 0 std::__ndk1::__libcpp_tls_set(int, void*)
FUNC 29618 e 0 std::__ndk1::__tuple_leaf<0u, std::__ndk1::unique_ptr<std::__ndk1::__thread_struct, std::__ndk1::default_delete<std::__ndk1::__thread_struct> >, false>::get()
FUNC 29626 16 0 std::__ndk1::__compressed_pair<std::__ndk1::tuple<std::__ndk1::unique_ptr<std::__ndk1::__thread_struct, std::__ndk1::default_delete<std::__ndk1::__thread_struct> >, Java_com_zw_bugly_TestBugly_native_1crash3::$_0>*, std::__ndk1::default_delete<std::__ndk1::tuple<std::__ndk1::unique_ptr<std::__ndk1::__thread_struct, std::__ndk1::default_delete<std::__ndk1::__thread_struct> >, Java_com_zw_bugly_TestBugly_native_1crash3::$_0> > >::first() const
FUNC 2963c e 0 std::__ndk1::__compressed_pair_elem<std::__ndk1::tuple<std::__ndk1::unique_ptr<std::__ndk1::__thread_struct, std::__ndk1::default_delete<std::__ndk1::__thread_struct> >, Java_com_zw_bugly_TestBugly_native_1crash3::$_0>*, 0, false>::__get() const
FUNC 2964a 1a 0 std::__ndk1::__invoke<(lambda at /Users/apple/code/android_code/ak47media/breakpad-lib/src/main/cpp/app/src/java_TestBugly.cpp:33:20)>
FUNC 29664 e 0 std::__ndk1::remove_reference<Java_com_zw_bugly_TestBugly_native_1crash3::$_0&>::type&& std::__ndk1::move<Java_com_zw_bugly_TestBugly_native_1crash3::$_0&>(Java_com_zw_bugly_TestBugly_native_1crash3::$_0&)
FUNC 29672 16 0 std::__ndk1::tuple_element<1u, std::__ndk1::tuple<std::__ndk1::unique_ptr<std::__ndk1::__thread_struct, std::__ndk1::default_delete<std::__ndk1::__thread_struct> >, Java_com_zw_bugly_TestBugly_native_1crash3::$_0> >::type& std::__ndk1::get<1u, std::__ndk1::unique_ptr<std::__ndk1::__thread_struct, std::__ndk1::default_delete<std::__ndk1::__thread_struct> >, Java_com_zw_bugly_TestBugly_native_1crash3::$_0>(std::__ndk1::tuple<std::__ndk1::unique_ptr<std::__ndk1::__thread_struct, std::__ndk1::default_delete<std::__ndk1::__thread_struct> >, Java_com_zw_bugly_TestBugly_native_1crash3::$_0>&)
FUNC 29688 14 0 Java_com_zw_bugly_TestBugly_native_1crash3::$_0::operator()() const
FUNC 2969c e 0 std::__ndk1::__tuple_leaf<1u, Java_com_zw_bugly_TestBugly_native_1crash3::$_0, true>::get()
FUNC 296aa 16 0 std::__ndk1::__compressed_pair<std::__ndk1::tuple<std::__ndk1::unique_ptr<std::__ndk1::__thread_struct, std::__ndk1::default_delete<std::__ndk1::__thread_struct> >, Java_com_zw_bugly_TestBugly_native_1crash3::$_0>*, std::__ndk1::default_delete<std::__ndk1::tuple<std::__ndk1::unique_ptr<std::__ndk1::__thread_struct, std::__ndk1::default_delete<std::__ndk1::__thread_struct> >, Java_com_zw_bugly_TestBugly_native_1crash3::$_0> > >::first()
FUNC 296c0 e 0 std::__ndk1::__compressed_pair_elem<std::__ndk1::tuple<std::__ndk1::unique_ptr<std::__ndk1::__thread_struct, std::__ndk1::default_delete<std::__ndk1::__thread_struct> >, Java_com_zw_bugly_TestBugly_native_1crash3::$_0>*, 0, false>::__get()
FUNC 296ce 48 0 std::__ndk1::unique_ptr<std::__ndk1::tuple<std::__ndk1::unique_ptr<std::__ndk1::__thread_struct, std::__ndk1::default_delete<std::__ndk1::__thread_struct> >, Java_com_zw_bugly_TestBugly_native_1crash3::$_0>, std::__ndk1::default_delete<std::__ndk1::tuple<std::__ndk1::unique_ptr<std::__ndk1::__thread_struct, std::__ndk1::default_delete<std::__ndk1::__thread_struct> >, Java_com_zw_bugly_TestBugly_native_1crash3::$_0> > >::reset(std::__ndk1::tuple<std::__ndk1::unique_ptr<std::__ndk1::__thread_struct, std::__ndk1::default_delete<std::__ndk1::__thread_struct> >, Java_com_zw_bugly_TestBugly_native_1crash3::$_0>*)
FUNC 29716 16 0 std::__ndk1::__compressed_pair<std::__ndk1::tuple<std::__ndk1::unique_ptr<std::__ndk1::__thread_struct, std::__ndk1::default_delete<std::__ndk1::__thread_struct> >, Java_com_zw_bugly_TestBugly_native_1crash3::$_0>*, std::__ndk1::default_delete<std::__ndk1::tuple<std::__ndk1::unique_ptr<std::__ndk1::__thread_struct, std::__ndk1::default_delete<std::__ndk1::__thread_struct> >, Java_com_zw_bugly_TestBugly_native_1crash3::$_0> > >::second()
FUNC 2972c 2e 0 std::__ndk1::default_delete<std::__ndk1::tuple<std::__ndk1::unique_ptr<std::__ndk1::__thread_struct, std::__ndk1::default_delete<std::__ndk1::__thread_struct> >, Java_com_zw_bugly_TestBugly_native_1crash3::$_0> >::operator()(std::__ndk1::tuple<std::__ndk1::unique_ptr<std::__ndk1::__thread_struct, std::__ndk1::default_delete<std::__ndk1::__thread_struct> >, Java_com_zw_bugly_TestBugly_native_1crash3::$_0>*) const
FUNC 2975a e 0 std::__ndk1::__compressed_pair_elem<std::__ndk1::default_delete<std::__ndk1::tuple<std::__ndk1::unique_ptr<std::__ndk1::__thread_struct, std::__ndk1::default_delete<std::__ndk1::__thread_struct> >, Java_com_zw_bugly_TestBugly_native_1crash3::$_0> >, 1, true>::__get()
FUNC 29768 1a 0 std::__ndk1::tuple<std::__ndk1::unique_ptr<std::__ndk1::__thread_struct, std::__ndk1::default_delete<std::__ndk1::__thread_struct> >, Java_com_zw_bugly_TestBugly_native_1crash3::$_0>::~tuple()
FUNC 29782 1a 0 std::__ndk1::__tuple_impl<std::__ndk1::__tuple_indices<0u, 1u>, std::__ndk1::unique_ptr<std::__ndk1::__thread_struct, std::__ndk1::default_delete<std::__ndk1::__thread_struct> >, Java_com_zw_bugly_TestBugly_native_1crash3::$_0>::~__tuple_impl()
FUNC 2979c 1a 0 std::__ndk1::__tuple_leaf<0u, std::__ndk1::unique_ptr<std::__ndk1::__thread_struct, std::__ndk1::default_delete<std::__ndk1::__thread_struct> >, false>::~__tuple_leaf()
FUNC 297b6 48 0 std::__ndk1::unique_ptr<std::__ndk1::__thread_struct, std::__ndk1::default_delete<std::__ndk1::__thread_struct> >::reset(std::__ndk1::__thread_struct*)
FUNC 297fe 2e 0 std::__ndk1::default_delete<std::__ndk1::__thread_struct>::operator()(std::__ndk1::__thread_struct*) const
FUNC 2982c 18 0 std::__ndk1::decay<Java_com_zw_bugly_TestBugly_native_1crash4::$_1>::type std::__ndk1::__decay_copy<Java_com_zw_bugly_TestBugly_native_1crash4::$_1>(Java_com_zw_bugly_TestBugly_native_1crash4::$_1&&)
FUNC 29844 e 0 Java_com_zw_bugly_TestBugly_native_1crash4::$_1&& std::__ndk1::forward<Java_com_zw_bugly_TestBugly_native_1crash4::$_1>(std::__ndk1::remove_reference<Java_com_zw_bugly_TestBugly_native_1crash4::$_1>::type&)
FUNC 29852 46 0 std::__ndk1::tuple<std::__ndk1::unique_ptr<std::__ndk1::__thread_struct, std::__ndk1::default_delete<std::__ndk1::__thread_struct> >, Java_com_zw_bugly_TestBugly_native_1crash4::$_1>::tuple<std::__ndk1::unique_ptr<std::__ndk1::__thread_struct, std::__ndk1::default_delete<std::__ndk1::__thread_struct> >, Java_com_zw_bugly_TestBugly_native_1crash4::$_1, false, false>(std::__ndk1::unique_ptr<std::__ndk1::__thread_struct, std::__ndk1::default_delete<std::__ndk1::__thread_struct> >&&, Java_com_zw_bugly_TestBugly_native_1crash4::$_1&&)
FUNC 29898 50 0 std::__ndk1::unique_ptr<std::__ndk1::tuple<std::__ndk1::unique_ptr<std::__ndk1::__thread_struct, std::__ndk1::default_delete<std::__ndk1::__thread_struct> >, Java_com_zw_bugly_TestBugly_native_1crash4::$_1>, std::__ndk1::default_delete<std::__ndk1::tuple<std::__ndk1::unique_ptr<std::__ndk1::__thread_struct, std::__ndk1::default_delete<std::__ndk1::__thread_struct> >, Java_com_zw_bugly_TestBugly_native_1crash4::$_1> > >::unique_ptr<true, void>(std::__ndk1::tuple<std::__ndk1::unique_ptr<std::__ndk1::__thread_struct, std::__ndk1::default_delete<std::__ndk1::__thread_struct> >, Java_com_zw_bugly_TestBugly_native_1crash4::$_1>*)
FUNC 298e8 a0 0 void* std::__ndk1::__thread_proxy<std::__ndk1::tuple<std::__ndk1::unique_ptr<std::__ndk1::__thread_struct, std::__ndk1::default_delete<std::__ndk1::__thread_struct> >, Java_com_zw_bugly_TestBugly_native_1crash4::$_1> >(void*)
FUNC 29988 18 0 std::__ndk1::unique_ptr<std::__ndk1::tuple<std::__ndk1::unique_ptr<std::__ndk1::__thread_struct, std::__ndk1::default_delete<std::__ndk1::__thread_struct> >, Java_com_zw_bugly_TestBugly_native_1crash4::$_1>, std::__ndk1::default_delete<std::__ndk1::tuple<std::__ndk1::unique_ptr<std::__ndk1::__thread_struct, std::__ndk1::default_delete<std::__ndk1::__thread_struct> >, Java_com_zw_bugly_TestBugly_native_1crash4::$_1> > >::get() const
FUNC 299a0 28 0 std::__ndk1::unique_ptr<std::__ndk1::tuple<std::__ndk1::unique_ptr<std::__ndk1::__thread_struct, std::__ndk1::default_delete<std::__ndk1::__thread_struct> >, Java_com_zw_bugly_TestBugly_native_1crash4::$_1>, std::__ndk1::default_delete<std::__ndk1::tuple<std::__ndk1::unique_ptr<std::__ndk1::__thread_struct, std::__ndk1::default_delete<std::__ndk1::__thread_struct> >, Java_com_zw_bugly_TestBugly_native_1crash4::$_1> > >::release()
FUNC 299c8 1e 0 std::__ndk1::unique_ptr<std::__ndk1::tuple<std::__ndk1::unique_ptr<std::__ndk1::__thread_struct, std::__ndk1::default_delete<std::__ndk1::__thread_struct> >, Java_com_zw_bugly_TestBugly_native_1crash4::$_1>, std::__ndk1::default_delete<std::__ndk1::tuple<std::__ndk1::unique_ptr<std::__ndk1::__thread_struct, std::__ndk1::default_delete<std::__ndk1::__thread_struct> >, Java_com_zw_bugly_TestBugly_native_1crash4::$_1> > >::~unique_ptr()
FUNC 299e6 4c 0 std::__ndk1::__tuple_impl<std::__ndk1::__tuple_indices<0u, 1u>, std::__ndk1::unique_ptr<std::__ndk1::__thread_struct, std::__ndk1::default_delete<std::__ndk1::__thread_struct> >, Java_com_zw_bugly_TestBugly_native_1crash4::$_1>::__tuple_impl<0u, 1u, std::__ndk1::unique_ptr<std::__ndk1::__thread_struct, std::__ndk1::default_delete<std::__ndk1::__thread_struct> >, Java_com_zw_bugly_TestBugly_native_1crash4::$_1, , , std::__ndk1::unique_ptr<std::__ndk1::__thread_struct, std::__ndk1::default_delete<std::__ndk1::__thread_struct> >, Java_com_zw_bugly_TestBugly_native_1crash4::$_1>(std::__ndk1::__tuple_indices<0u, 1u>, std::__ndk1::__tuple_types<std::__ndk1::unique_ptr<std::__ndk1::__thread_struct, std::__ndk1::default_delete<std::__ndk1::__thread_struct> >, Java_com_zw_bugly_TestBugly_native_1crash4::$_1>, std::__ndk1::__tuple_indices<>, std::__ndk1::__tuple_types<>, std::__ndk1::unique_ptr<std::__ndk1::__thread_struct, std::__ndk1::default_delete<std::__ndk1::__thread_struct> >&&, Java_com_zw_bugly_TestBugly_native_1crash4::$_1&&)
FUNC 29a32 28 0 std::__ndk1::__tuple_leaf<1u, Java_com_zw_bugly_TestBugly_native_1crash4::$_1, true>::__tuple_leaf<Java_com_zw_bugly_TestBugly_native_1crash4::$_1, void>(Java_com_zw_bugly_TestBugly_native_1crash4::$_1&&)
FUNC 29a5a 30 0 std::__ndk1::__compressed_pair<std::__ndk1::tuple<std::__ndk1::unique_ptr<std::__ndk1::__thread_struct, std::__ndk1::default_delete<std::__ndk1::__thread_struct> >, Java_com_zw_bugly_TestBugly_native_1crash4::$_1>*, std::__ndk1::default_delete<std::__ndk1::tuple<std::__ndk1::unique_ptr<std::__ndk1::__thread_struct, std::__ndk1::default_delete<std::__ndk1::__thread_struct> >, Java_com_zw_bugly_TestBugly_native_1crash4::$_1> > >::__compressed_pair<std::__ndk1::tuple<std::__ndk1::unique_ptr<std::__ndk1::__thread_struct, std::__ndk1::default_delete<std::__ndk1::__thread_struct> >, Java_com_zw_bugly_TestBugly_native_1crash4::$_1>*&, true>(std::__ndk1::tuple<std::__ndk1::unique_ptr<std::__ndk1::__thread_struct, std::__ndk1::default_delete<std::__ndk1::__thread_struct> >, Java_com_zw_bugly_TestBugly_native_1crash4::$_1>*&)
FUNC 29a8a e 0 std::__ndk1::tuple<std::__ndk1::unique_ptr<std::__ndk1::__thread_struct, std::__ndk1::default_delete<std::__ndk1::__thread_struct> >, Java_com_zw_bugly_TestBugly_native_1crash4::$_1>*& std::__ndk1::forward<std::__ndk1::tuple<std::__ndk1::unique_ptr<std::__ndk1::__thread_struct, std::__ndk1::default_delete<std::__ndk1::__thread_struct> >, Java_com_zw_bugly_TestBugly_native_1crash4::$_1>*&>(std::__ndk1::remove_reference<std::__ndk1::tuple<std::__ndk1::unique_ptr<std::__ndk1::__thread_struct, std::__ndk1::default_delete<std::__ndk1::__thread_struct> >, Java_com_zw_bugly_TestBugly_native_1crash4::$_1>*&>::type&)
FUNC 29a98 2a 0 std::__ndk1::__compressed_pair_elem<std::__ndk1::tuple<std::__ndk1::unique_ptr<std::__ndk1::__thread_struct, std::__ndk1::default_delete<std::__ndk1::__thread_struct> >, Java_com_zw_bugly_TestBugly_native_1crash4::$_1>*, 0, false>::__compressed_pair_elem<std::__ndk1::tuple<std::__ndk1::unique_ptr<std::__ndk1::__thread_struct, std::__ndk1::default_delete<std::__ndk1::__thread_struct> >, Java_com_zw_bugly_TestBugly_native_1crash4::$_1>*&, void>(std::__ndk1::tuple<std::__ndk1::unique_ptr<std::__ndk1::__thread_struct, std::__ndk1::default_delete<std::__ndk1::__thread_struct> >, Java_com_zw_bugly_TestBugly_native_1crash4::$_1>*&)
FUNC 29ac2 16 0 std::__ndk1::tuple_element<0u, std::__ndk1::tuple<std::__ndk1::unique_ptr<std::__ndk1::__thread_struct, std::__ndk1::default_delete<std::__ndk1::__thread_struct> >, Java_com_zw_bugly_TestBugly_native_1crash4::$_1> >::type& std::__ndk1::get<0u, std::__ndk1::unique_ptr<std::__ndk1::__thread_struct, std::__ndk1::default_delete<std::__ndk1::__thread_struct> >, Java_com_zw_bugly_TestBugly_native_1crash4::$_1>(std::__ndk1::tuple<std::__ndk1::unique_ptr<std::__ndk1::__thread_struct, std::__ndk1::default_delete<std::__ndk1::__thread_struct> >, Java_com_zw_bugly_TestBugly_native_1crash4::$_1>&)
FUNC 29ad8 18 0 std::__ndk1::unique_ptr<std::__ndk1::tuple<std::__ndk1::unique_ptr<std::__ndk1::__thread_struct, std::__ndk1::default_delete<std::__ndk1::__thread_struct> >, Java_com_zw_bugly_TestBugly_native_1crash4::$_1>, std::__ndk1::default_delete<std::__ndk1::tuple<std::__ndk1::unique_ptr<std::__ndk1::__thread_struct, std::__ndk1::default_delete<std::__ndk1::__thread_struct> >, Java_com_zw_bugly_TestBugly_native_1crash4::$_1> > >::operator*() const
FUNC 29af0 1e 0 void std::__ndk1::__thread_execute<std::__ndk1::unique_ptr<std::__ndk1::__thread_struct, std::__ndk1::default_delete<std::__ndk1::__thread_struct> >, Java_com_zw_bugly_TestBugly_native_1crash4::$_1>(std::__ndk1::tuple<std::__ndk1::unique_ptr<std::__ndk1::__thread_struct, std::__ndk1::default_delete<std::__ndk1::__thread_struct> >, Java_com_zw_bugly_TestBugly_native_1crash4::$_1>&, std::__ndk1::__tuple_indices<>)
FUNC 29b0e 16 0 std::__ndk1::__compressed_pair<std::__ndk1::tuple<std::__ndk1::unique_ptr<std::__ndk1::__thread_struct, std::__ndk1::default_delete<std::__ndk1::__thread_struct> >, Java_com_zw_bugly_TestBugly_native_1crash4::$_1>*, std::__ndk1::default_delete<std::__ndk1::tuple<std::__ndk1::unique_ptr<std::__ndk1::__thread_struct, std::__ndk1::default_delete<std::__ndk1::__thread_struct> >, Java_com_zw_bugly_TestBugly_native_1crash4::$_1> > >::first() const
FUNC 29b24 e 0 std::__ndk1::__compressed_pair_elem<std::__ndk1::tuple<std::__ndk1::unique_ptr<std::__ndk1::__thread_struct, std::__ndk1::default_delete<std::__ndk1::__thread_struct> >, Java_com_zw_bugly_TestBugly_native_1crash4::$_1>*, 0, false>::__get() const
FUNC 29b32 1a 0 std::__ndk1::__invoke<(lambda at /Users/apple/code/android_code/ak47media/breakpad-lib/src/main/cpp/app/src/java_TestBugly.cpp:45:20)>
FUNC 29b4c e 0 std::__ndk1::remove_reference<Java_com_zw_bugly_TestBugly_native_1crash4::$_1&>::type&& std::__ndk1::move<Java_com_zw_bugly_TestBugly_native_1crash4::$_1&>(Java_com_zw_bugly_TestBugly_native_1crash4::$_1&)
FUNC 29b5a 16 0 std::__ndk1::tuple_element<1u, std::__ndk1::tuple<std::__ndk1::unique_ptr<std::__ndk1::__thread_struct, std::__ndk1::default_delete<std::__ndk1::__thread_struct> >, Java_com_zw_bugly_TestBugly_native_1crash4::$_1> >::type& std::__ndk1::get<1u, std::__ndk1::unique_ptr<std::__ndk1::__thread_struct, std::__ndk1::default_delete<std::__ndk1::__thread_struct> >, Java_com_zw_bugly_TestBugly_native_1crash4::$_1>(std::__ndk1::tuple<std::__ndk1::unique_ptr<std::__ndk1::__thread_struct, std::__ndk1::default_delete<std::__ndk1::__thread_struct> >, Java_com_zw_bugly_TestBugly_native_1crash4::$_1>&)
FUNC 29b70 14 0 Java_com_zw_bugly_TestBugly_native_1crash4::$_1::operator()() const
FUNC 29b84 e 0 std::__ndk1::__tuple_leaf<1u, Java_com_zw_bugly_TestBugly_native_1crash4::$_1, true>::get()
FUNC 29b92 16 0 std::__ndk1::__compressed_pair<std::__ndk1::tuple<std::__ndk1::unique_ptr<std::__ndk1::__thread_struct, std::__ndk1::default_delete<std::__ndk1::__thread_struct> >, Java_com_zw_bugly_TestBugly_native_1crash4::$_1>*, std::__ndk1::default_delete<std::__ndk1::tuple<std::__ndk1::unique_ptr<std::__ndk1::__thread_struct, std::__ndk1::default_delete<std::__ndk1::__thread_struct> >, Java_com_zw_bugly_TestBugly_native_1crash4::$_1> > >::first()
FUNC 29ba8 e 0 std::__ndk1::__compressed_pair_elem<std::__ndk1::tuple<std::__ndk1::unique_ptr<std::__ndk1::__thread_struct, std::__ndk1::default_delete<std::__ndk1::__thread_struct> >, Java_com_zw_bugly_TestBugly_native_1crash4::$_1>*, 0, false>::__get()
FUNC 29bb6 48 0 std::__ndk1::unique_ptr<std::__ndk1::tuple<std::__ndk1::unique_ptr<std::__ndk1::__thread_struct, std::__ndk1::default_delete<std::__ndk1::__thread_struct> >, Java_com_zw_bugly_TestBugly_native_1crash4::$_1>, std::__ndk1::default_delete<std::__ndk1::tuple<std::__ndk1::unique_ptr<std::__ndk1::__thread_struct, std::__ndk1::default_delete<std::__ndk1::__thread_struct> >, Java_com_zw_bugly_TestBugly_native_1crash4::$_1> > >::reset(std::__ndk1::tuple<std::__ndk1::unique_ptr<std::__ndk1::__thread_struct, std::__ndk1::default_delete<std::__ndk1::__thread_struct> >, Java_com_zw_bugly_TestBugly_native_1crash4::$_1>*)
FUNC 29bfe 16 0 std::__ndk1::__compressed_pair<std::__ndk1::tuple<std::__ndk1::unique_ptr<std::__ndk1::__thread_struct, std::__ndk1::default_delete<std::__ndk1::__thread_struct> >, Java_com_zw_bugly_TestBugly_native_1crash4::$_1>*, std::__ndk1::default_delete<std::__ndk1::tuple<std::__ndk1::unique_ptr<std::__ndk1::__thread_struct, std::__ndk1::default_delete<std::__ndk1::__thread_struct> >, Java_com_zw_bugly_TestBugly_native_1crash4::$_1> > >::second()
FUNC 29c14 2e 0 std::__ndk1::default_delete<std::__ndk1::tuple<std::__ndk1::unique_ptr<std::__ndk1::__thread_struct, std::__ndk1::default_delete<std::__ndk1::__thread_struct> >, Java_com_zw_bugly_TestBugly_native_1crash4::$_1> >::operator()(std::__ndk1::tuple<std::__ndk1::unique_ptr<std::__ndk1::__thread_struct, std::__ndk1::default_delete<std::__ndk1::__thread_struct> >, Java_com_zw_bugly_TestBugly_native_1crash4::$_1>*) const
FUNC 29c42 e 0 std::__ndk1::__compressed_pair_elem<std::__ndk1::default_delete<std::__ndk1::tuple<std::__ndk1::unique_ptr<std::__ndk1::__thread_struct, std::__ndk1::default_delete<std::__ndk1::__thread_struct> >, Java_com_zw_bugly_TestBugly_native_1crash4::$_1> >, 1, true>::__get()
FUNC 29c50 1a 0 std::__ndk1::tuple<std::__ndk1::unique_ptr<std::__ndk1::__thread_struct, std::__ndk1::default_delete<std::__ndk1::__thread_struct> >, Java_com_zw_bugly_TestBugly_native_1crash4::$_1>::~tuple()
FUNC 29c6a 1a 0 std::__ndk1::__tuple_impl<std::__ndk1::__tuple_indices<0u, 1u>, std::__ndk1::unique_ptr<std::__ndk1::__thread_struct, std::__ndk1::default_delete<std::__ndk1::__thread_struct> >, Java_com_zw_bugly_TestBugly_native_1crash4::$_1>::~__tuple_impl()
FUNC 29c84 228 0 google_breakpad::ExceptionHandler::ExceptionHandler(google_breakpad::MinidumpDescriptor const&, bool (*)(void*), bool (*)(google_breakpad::MinidumpDescriptor const&, void*, bool), void*, bool, int)
FUNC 29eac 18 0 google_breakpad::scoped_ptr<google_breakpad::CrashGenerationClient>::scoped_ptr(google_breakpad::CrashGenerationClient*)
FUNC 29ec4 1a 0 std::__ndk1::list<google_breakpad::MappingEntry, std::__ndk1::allocator<google_breakpad::MappingEntry> >::list()
FUNC 29ede 1a 0 std::__ndk1::list<google_breakpad::AppMemory, std::__ndk1::allocator<google_breakpad::AppMemory> >::list()
FUNC 29ef8 44 0 google_breakpad::scoped_ptr<google_breakpad::CrashGenerationClient>::reset(google_breakpad::CrashGenerationClient*)
FUNC 29f3c 1e 0 google_breakpad::ExceptionHandler::IsOutOfProcess() const
FUNC 29f5a 18 0 google_breakpad::MinidumpDescriptor::IsFD() const
FUNC 29f72 18 0 google_breakpad::MinidumpDescriptor::IsMicrodumpOnConsole() const
FUNC 29f8a 1a 0 std::__ndk1::vector<google_breakpad::ExceptionHandler*, std::__ndk1::allocator<google_breakpad::ExceptionHandler*> >::vector()
FUNC 29fa4 c0 0 google_breakpad::(anonymous namespace)::InstallAlternateStackLocked()
FUNC 2a064 14c 0 google_breakpad::ExceptionHandler::InstallHandlersLocked()
FUNC 2a1b0 b0 0 std::__ndk1::vector<google_breakpad::ExceptionHandler*, std::__ndk1::allocator<google_breakpad::ExceptionHandler*> >::push_back(google_breakpad::ExceptionHandler*&&)
FUNC 2a260 1a 0 std::__ndk1::list<google_breakpad::AppMemory, std::__ndk1::allocator<google_breakpad::AppMemory> >::~list()
FUNC 2a27a 1a 0 std::__ndk1::list<google_breakpad::MappingEntry, std::__ndk1::allocator<google_breakpad::MappingEntry> >::~list()
FUNC 2a294 28 0 google_breakpad::MinidumpDescriptor::~MinidumpDescriptor()
FUNC 2a2bc 2a 0 google_breakpad::scoped_ptr<google_breakpad::CrashGenerationClient>::~scoped_ptr()
FUNC 2a2e8 160 0 google_breakpad::ExceptionHandler::~ExceptionHandler()
FUNC 2a448 84 0 std::__ndk1::__wrap_iter<google_breakpad::ExceptionHandler**> std::__ndk1::find<std::__ndk1::__wrap_iter<google_breakpad::ExceptionHandler**>, google_breakpad::ExceptionHandler*>(std::__ndk1::__wrap_iter<google_breakpad::ExceptionHandler**>, std::__ndk1::__wrap_iter<google_breakpad::ExceptionHandler**>, google_breakpad::ExceptionHandler* const&)
FUNC 2a4cc 1e 0 std::__ndk1::vector<google_breakpad::ExceptionHandler*, std::__ndk1::allocator<google_breakpad::ExceptionHandler*> >::begin()
FUNC 2a4ea 1e 0 std::__ndk1::vector<google_breakpad::ExceptionHandler*, std::__ndk1::allocator<google_breakpad::ExceptionHandler*> >::end()
FUNC 2a508 94 0 std::__ndk1::vector<google_breakpad::ExceptionHandler*, std::__ndk1::allocator<google_breakpad::ExceptionHandler*> >::erase(std::__ndk1::__wrap_iter<google_breakpad::ExceptionHandler* const*>)
FUNC 2a59c 32 0 std::__ndk1::__wrap_iter<google_breakpad::ExceptionHandler *const *>::__wrap_iter<google_breakpad::ExceptionHandler **>
FUNC 2a5ce 1a 0 std::__ndk1::vector<google_breakpad::ExceptionHandler*, std::__ndk1::allocator<google_breakpad::ExceptionHandler*> >::empty() const
FUNC 2a5e8 34 0 std::__ndk1::vector<google_breakpad::ExceptionHandler*, std::__ndk1::allocator<google_breakpad::ExceptionHandler*> >::~vector()
FUNC 2a61c cc 0 google_breakpad::(anonymous namespace)::RestoreAlternateStackLocked()
FUNC 2a6e8 88 0 google_breakpad::ExceptionHandler::RestoreHandlersLocked()
FUNC 2a770 1f8 0 google_breakpad::ExceptionHandler::SignalHandler(int, siginfo*, void*)
FUNC 2a968 68 0 google_breakpad::(anonymous namespace)::InstallDefaultHandler(int)
FUNC 2a9d0 16 0 std::__ndk1::vector<google_breakpad::ExceptionHandler*, std::__ndk1::allocator<google_breakpad::ExceptionHandler*> >::size() const
FUNC 2a9e6 1c 0 std::__ndk1::vector<google_breakpad::ExceptionHandler*, std::__ndk1::allocator<google_breakpad::ExceptionHandler*> >::operator[](unsigned int)
FUNC 2aa04 150 0 google_breakpad::ExceptionHandler::HandleSignal(int, siginfo*, void*)
FUNC 2ab54 6a 0 sys_tgkill(int, int, int)
FUNC 2abbe 54 0 google_breakpad::ExceptionHandler::ThreadEntry(void*)
FUNC 2ac12 4e 0 sys_close(int)
FUNC 2ac60 d8 0 google_breakpad::ExceptionHandler::WaitForContinueSignal()
FUNC 2ad38 1a0 0 google_breakpad::ExceptionHandler::DoDump(int, void const*, unsigned int)
FUNC 2aed8 8e 0 sys_prctl(int, unsigned long, unsigned long, unsigned long, unsigned long)
FUNC 2af68 334 0 google_breakpad::ExceptionHandler::GenerateDump(google_breakpad::ExceptionHandler::CrashContext*)
FUNC 2b29c 7c 0 google_breakpad::ExceptionHandler::SimulateSignalDelivery(int)
FUNC 2b318 40 0 google_breakpad::scoped_ptr<google_breakpad::CrashGenerationClient>::operator->() const
FUNC 2b358 28 0 google_breakpad::PageAllocator::PageAllocator()
FUNC 2b380 e2 0 google_breakpad::PageAllocator::Alloc(unsigned int)
FUNC 2b462 4e 0 sys_pipe(int*)
FUNC 2b4b0 108 0 sys_clone(int (*)(void*), void*, int, void*, int*, void*, int*)
FUNC 2b5b8 b8 0 google_breakpad::ExceptionHandler::SendContinueSignalToChild()
FUNC 2b670 2e 0 sys_waitpid(int, int*, int)
FUNC 2b69e 22 0 google_breakpad::PageAllocator::~PageAllocator()
FUNC 2b6c0 6a 0 sys_write(int, void const*, unsigned int)
FUNC 2b72a 6a 0 sys_read(int, void*, unsigned int)
FUNC 2b794 16 0 google_breakpad::MinidumpDescriptor::skip_dump_if_principal_mapping_not_referenced()
FUNC 2b7aa 10 0 google_breakpad::MinidumpDescriptor::address_within_principal_mapping() const
FUNC 2b7ba 16 0 google_breakpad::MinidumpDescriptor::sanitize_stacks() const
FUNC 2b7d0 44 0 google_breakpad::MinidumpDescriptor::microdump_extra_info()
FUNC 2b814 10 0 google_breakpad::MinidumpDescriptor::fd() const
FUNC 2b824 10 0 google_breakpad::MinidumpDescriptor::size_limit() const
FUNC 2b834 b4 0 google_breakpad::ExceptionHandler::WriteMinidump(std::__ndk1::basic_string<char, std::__ndk1::char_traits<char>, std::__ndk1::allocator<char> > const&, bool (*)(google_breakpad::MinidumpDescriptor const&, void*, bool), void*)
FUNC 2b8e8 118 0 google_breakpad::ExceptionHandler::WriteMinidump()
FUNC 2ba00 c 0 void google_breakpad::ignore_result<int>(int const&)
FUNC 2ba0c 2a 0 sys_gettid()
FUNC 2ba38 d4 0 google_breakpad::ExceptionHandler::AddMappingInfo(std::__ndk1::basic_string<char, std::__ndk1::char_traits<char>, std::__ndk1::allocator<char> > const&, unsigned char const*, unsigned int, unsigned int, unsigned int)
FUNC 2bb0c d8 0 std::__ndk1::list<google_breakpad::MappingEntry, std::__ndk1::allocator<google_breakpad::MappingEntry> >::push_back(google_breakpad::MappingEntry const&)
FUNC 2bbe4 98 0 google_breakpad::ExceptionHandler::RegisterAppMemory(void*, unsigned int)
FUNC 2bc7c 88 0 std::__ndk1::__list_iterator<google_breakpad::AppMemory, void*> std::__ndk1::find<std::__ndk1::__list_iterator<google_breakpad::AppMemory, void*>, void*>(std::__ndk1::__list_iterator<google_breakpad::AppMemory, void*>, std::__ndk1::__list_iterator<google_breakpad::AppMemory, void*>, void* const&)
FUNC 2bd04 1a 0 std::__ndk1::list<google_breakpad::AppMemory, std::__ndk1::allocator<google_breakpad::AppMemory> >::begin()
FUNC 2bd1e 1a 0 std::__ndk1::list<google_breakpad::AppMemory, std::__ndk1::allocator<google_breakpad::AppMemory> >::end()
FUNC 2bd38 22 0 std::__ndk1::operator!=(std::__ndk1::__list_iterator<google_breakpad::AppMemory, void*> const&, std::__ndk1::__list_iterator<google_breakpad::AppMemory, void*> const&)
FUNC 2bd5c d8 0 std::__ndk1::list<google_breakpad::AppMemory, std::__ndk1::allocator<google_breakpad::AppMemory> >::push_back(google_breakpad::AppMemory const&)
FUNC 2be34 98 0 google_breakpad::ExceptionHandler::UnregisterAppMemory(void*)
FUNC 2becc a0 0 std::__ndk1::list<google_breakpad::AppMemory, std::__ndk1::allocator<google_breakpad::AppMemory> >::erase(std::__ndk1::__list_const_iterator<google_breakpad::AppMemory, void*>)
FUNC 2bf6c 1a 0 std::__ndk1::__list_const_iterator<google_breakpad::AppMemory, void*>::__list_const_iterator(std::__ndk1::__list_iterator<google_breakpad::AppMemory, void*> const&)
FUNC 2bf88 100 0 google_breakpad::ExceptionHandler::WriteMinidumpForChild(int, int, std::__ndk1::basic_string<char, std::__ndk1::char_traits<char>, std::__ndk1::allocator<char> > const&, bool (*)(google_breakpad::MinidumpDescriptor const&, void*, bool), void*)
FUNC 2c088 18 0 google_breakpad::SetFirstChanceExceptionHandler(bool (*)(int, siginfo*, void*))
FUNC 2c0a0 10 0 google_breakpad::scoped_ptr<google_breakpad::CrashGenerationClient>::get() const
FUNC 2c0b0 5a 0 sys_sigaltstack(sigaltstack const*, sigaltstack const*)
FUNC 2c10a 1a 0 std::__ndk1::__list_imp<google_breakpad::AppMemory, std::__ndk1::allocator<google_breakpad::AppMemory> >::~__list_imp()
FUNC 2c124 a6 0 std::__ndk1::__list_imp<google_breakpad::AppMemory, std::__ndk1::allocator<google_breakpad::AppMemory> >::clear()
FUNC 2c1ca 1e 0 std::__ndk1::__list_imp<google_breakpad::AppMemory, std::__ndk1::allocator<google_breakpad::AppMemory> >::empty() const
FUNC 2c1e8 18 0 std::__ndk1::__list_imp<google_breakpad::AppMemory, std::__ndk1::allocator<google_breakpad::AppMemory> >::__node_alloc()
FUNC 2c200 2c 0 std::__ndk1::__list_imp<google_breakpad::AppMemory, std::__ndk1::allocator<google_breakpad::AppMemory> >::__end_as_link() const
FUNC 2c22c 26 0 std::__ndk1::__list_imp<google_breakpad::AppMemory, std::__ndk1::allocator<google_breakpad::AppMemory> >::__unlink_nodes(std::__ndk1::__list_node_base<google_breakpad::AppMemory, void*>*, std::__ndk1::__list_node_base<google_breakpad::AppMemory, void*>*)
FUNC 2c252 18 0 std::__ndk1::__list_imp<google_breakpad::AppMemory, std::__ndk1::allocator<google_breakpad::AppMemory> >::__sz()
FUNC 2c26a 16 0 std::__ndk1::__list_node_base<google_breakpad::AppMemory, void*>::__as_node()
FUNC 2c280 1e 0 void std::__ndk1::allocator_traits<std::__ndk1::allocator<std::__ndk1::__list_node<google_breakpad::AppMemory, void*> > >::destroy<google_breakpad::AppMemory>(std::__ndk1::allocator<std::__ndk1::__list_node<google_breakpad::AppMemory, void*> >&, google_breakpad::AppMemory*)
FUNC 2c29e e 0 google_breakpad::AppMemory* std::__ndk1::addressof<google_breakpad::AppMemory>(google_breakpad::AppMemory&)
FUNC 2c2ac 2a 0 std::__ndk1::allocator_traits<std::__ndk1::allocator<std::__ndk1::__list_node<google_breakpad::AppMemory, void*> > >::deallocate(std::__ndk1::allocator<std::__ndk1::__list_node<google_breakpad::AppMemory, void*> >&, std::__ndk1::__list_node<google_breakpad::AppMemory, void*>*, unsigned int)
FUNC 2c2d6 c 0 std::__ndk1::__list_imp<google_breakpad::AppMemory, std::__ndk1::allocator<google_breakpad::AppMemory> >::__invalidate_all_iterators()
FUNC 2c2e2 18 0 std::__ndk1::__list_imp<google_breakpad::AppMemory, std::__ndk1::allocator<google_breakpad::AppMemory> >::__sz() const
FUNC 2c2fa 16 0 std::__ndk1::__compressed_pair<unsigned int, std::__ndk1::allocator<std::__ndk1::__list_node<google_breakpad::AppMemory, void*> > >::first() const
FUNC 2c310 e 0 std::__ndk1::__compressed_pair_elem<unsigned int, 0, false>::__get() const
FUNC 2c31e 16 0 std::__ndk1::__compressed_pair<unsigned int, std::__ndk1::allocator<std::__ndk1::__list_node<google_breakpad::AppMemory, void*> > >::second()
FUNC 2c334 e 0 std::__ndk1::__compressed_pair_elem<std::__ndk1::allocator<std::__ndk1::__list_node<google_breakpad::AppMemory, void*> >, 1, true>::__get()
FUNC 2c342 e 0 std::__ndk1::__list_node_pointer_traits<google_breakpad::AppMemory, void*>::__unsafe_link_pointer_cast(std::__ndk1::__list_node_base<google_breakpad::AppMemory, void*>*)
FUNC 2c350 16 0 std::__ndk1::__list_node_base<google_breakpad::AppMemory, void*>::__self()
FUNC 2c366 16 0 std::__ndk1::pointer_traits<std::__ndk1::__list_node_base<google_breakpad::AppMemory, void*>*>::pointer_to(std::__ndk1::__list_node_base<google_breakpad::AppMemory, void*>&)
FUNC 2c37c e 0 std::__ndk1::__list_node_base<google_breakpad::AppMemory, void*>* std::__ndk1::addressof<std::__ndk1::__list_node_base<google_breakpad::AppMemory, void*> >(std::__ndk1::__list_node_base<google_breakpad::AppMemory, void*>&)
FUNC 2c38a 16 0 std::__ndk1::__compressed_pair<unsigned int, std::__ndk1::allocator<std::__ndk1::__list_node<google_breakpad::AppMemory, void*> > >::first()
FUNC 2c3a0 e 0 std::__ndk1::__compressed_pair_elem<unsigned int, 0, false>::__get()
FUNC 2c3ae 12 0 void std::__ndk1::allocator_traits<std::__ndk1::allocator<std::__ndk1::__list_node<google_breakpad::AppMemory, void*> > >::__destroy<google_breakpad::AppMemory>(std::__ndk1::integral_constant<bool, false>, std::__ndk1::allocator<std::__ndk1::__list_node<google_breakpad::AppMemory, void*> >&, google_breakpad::AppMemory*)
FUNC 2c3c0 34 0 std::__ndk1::allocator<std::__ndk1::__list_node<google_breakpad::AppMemory, void*> >::deallocate(std::__ndk1::__list_node<google_breakpad::AppMemory, void*>*, unsigned int)
FUNC 2c3f4 1a 0 std::__ndk1::__list_imp<google_breakpad::MappingEntry, std::__ndk1::allocator<google_breakpad::MappingEntry> >::~__list_imp()
FUNC 2c40e a6 0 std::__ndk1::__list_imp<google_breakpad::MappingEntry, std::__ndk1::allocator<google_breakpad::MappingEntry> >::clear()
FUNC 2c4b4 1e 0 std::__ndk1::__list_imp<google_breakpad::MappingEntry, std::__ndk1::allocator<google_breakpad::MappingEntry> >::empty() const
FUNC 2c4d2 18 0 std::__ndk1::__list_imp<google_breakpad::MappingEntry, std::__ndk1::allocator<google_breakpad::MappingEntry> >::__node_alloc()
FUNC 2c4ea 2c 0 std::__ndk1::__list_imp<google_breakpad::MappingEntry, std::__ndk1::allocator<google_breakpad::MappingEntry> >::__end_as_link() const
FUNC 2c516 26 0 std::__ndk1::__list_imp<google_breakpad::MappingEntry, std::__ndk1::allocator<google_breakpad::MappingEntry> >::__unlink_nodes(std::__ndk1::__list_node_base<google_breakpad::MappingEntry, void*>*, std::__ndk1::__list_node_base<google_breakpad::MappingEntry, void*>*)
FUNC 2c53c 18 0 std::__ndk1::__list_imp<google_breakpad::MappingEntry, std::__ndk1::allocator<google_breakpad::MappingEntry> >::__sz()
FUNC 2c554 16 0 std::__ndk1::__list_node_base<google_breakpad::MappingEntry, void*>::__as_node()
FUNC 2c56a 1e 0 void std::__ndk1::allocator_traits<std::__ndk1::allocator<std::__ndk1::__list_node<google_breakpad::MappingEntry, void*> > >::destroy<google_breakpad::MappingEntry>(std::__ndk1::allocator<std::__ndk1::__list_node<google_breakpad::MappingEntry, void*> >&, google_breakpad::MappingEntry*)
FUNC 2c588 e 0 google_breakpad::MappingEntry* std::__ndk1::addressof<google_breakpad::MappingEntry>(google_breakpad::MappingEntry&)
FUNC 2c596 2a 0 std::__ndk1::allocator_traits<std::__ndk1::allocator<std::__ndk1::__list_node<google_breakpad::MappingEntry, void*> > >::deallocate(std::__ndk1::allocator<std::__ndk1::__list_node<google_breakpad::MappingEntry, void*> >&, std::__ndk1::__list_node<google_breakpad::MappingEntry, void*>*, unsigned int)
FUNC 2c5c0 c 0 std::__ndk1::__list_imp<google_breakpad::MappingEntry, std::__ndk1::allocator<google_breakpad::MappingEntry> >::__invalidate_all_iterators()
FUNC 2c5cc 18 0 std::__ndk1::__list_imp<google_breakpad::MappingEntry, std::__ndk1::allocator<google_breakpad::MappingEntry> >::__sz() const
FUNC 2c5e4 16 0 std::__ndk1::__compressed_pair<unsigned int, std::__ndk1::allocator<std::__ndk1::__list_node<google_breakpad::MappingEntry, void*> > >::first() const
FUNC 2c5fa 16 0 std::__ndk1::__compressed_pair<unsigned int, std::__ndk1::allocator<std::__ndk1::__list_node<google_breakpad::MappingEntry, void*> > >::second()
FUNC 2c610 e 0 std::__ndk1::__compressed_pair_elem<std::__ndk1::allocator<std::__ndk1::__list_node<google_breakpad::MappingEntry, void*> >, 1, true>::__get()
FUNC 2c61e e 0 std::__ndk1::__list_node_pointer_traits<google_breakpad::MappingEntry, void*>::__unsafe_link_pointer_cast(std::__ndk1::__list_node_base<google_breakpad::MappingEntry, void*>*)
FUNC 2c62c 16 0 std::__ndk1::__list_node_base<google_breakpad::MappingEntry, void*>::__self()
FUNC 2c642 16 0 std::__ndk1::pointer_traits<std::__ndk1::__list_node_base<google_breakpad::MappingEntry, void*>*>::pointer_to(std::__ndk1::__list_node_base<google_breakpad::MappingEntry, void*>&)
FUNC 2c658 e 0 std::__ndk1::__list_node_base<google_breakpad::MappingEntry, void*>* std::__ndk1::addressof<std::__ndk1::__list_node_base<google_breakpad::MappingEntry, void*> >(std::__ndk1::__list_node_base<google_breakpad::MappingEntry, void*>&)
FUNC 2c666 16 0 std::__ndk1::__compressed_pair<unsigned int, std::__ndk1::allocator<std::__ndk1::__list_node<google_breakpad::MappingEntry, void*> > >::first()
FUNC 2c67c 12 0 void std::__ndk1::allocator_traits<std::__ndk1::allocator<std::__ndk1::__list_node<google_breakpad::MappingEntry, void*> > >::__destroy<google_breakpad::MappingEntry>(std::__ndk1::integral_constant<bool, false>, std::__ndk1::allocator<std::__ndk1::__list_node<google_breakpad::MappingEntry, void*> >&, google_breakpad::MappingEntry*)
FUNC 2c68e 38 0 std::__ndk1::allocator<std::__ndk1::__list_node<google_breakpad::MappingEntry, void*> >::deallocate(std::__ndk1::__list_node<google_breakpad::MappingEntry, void*>*, unsigned int)
FUNC 2c6c6 10 0 std::__ndk1::__wrap_iter<google_breakpad::ExceptionHandler**>::base() const
FUNC 2c6d6 16 0 sys_sigemptyset(kernel_sigset_t*)
FUNC 2c6ec 76 0 sys_rt_sigaction(int, kernel_sigaction const*, kernel_sigaction*, unsigned int)
FUNC 2c762 82 0 google_breakpad::PageAllocator::GetNPages(unsigned int)
FUNC 2c7e4 b4 0 sys_mmap(void*, unsigned int, int, int, int, long long)
FUNC 2c898 a0 0 sys__mmap2(void*, unsigned int, int, int, int, long)
FUNC 2c938 76 0 sys_wait4(int, int*, int, kernel_rusage*)
FUNC 2c9ae 40 0 google_breakpad::PageAllocator::FreeAll()
FUNC 2c9ee 5a 0 sys_munmap(void*, unsigned int)
FUNC 2ca48 42 0 sys__gettid()
FUNC 2ca8a 42 0 sys_getpid()
FUNC 2cacc 58 0 std::__ndk1::__list_imp<google_breakpad::MappingEntry, std::__ndk1::allocator<google_breakpad::MappingEntry> >::__list_imp()
FUNC 2cb24 30 0 std::__ndk1::__list_node_base<google_breakpad::MappingEntry, void*>::__list_node_base()
FUNC 2cb54 36 0 std::__ndk1::__compressed_pair<unsigned int, std::__ndk1::allocator<std::__ndk1::__list_node<google_breakpad::MappingEntry, void*> > >::__compressed_pair<int, true>(int&&)
FUNC 2cb8a e 0 int&& std::__ndk1::forward<int>(std::__ndk1::remove_reference<int>::type&)
FUNC 2cb98 2a 0 std::__ndk1::__compressed_pair_elem<unsigned int, 0, false>::__compressed_pair_elem<int, void>(int&&)
FUNC 2cbc2 1a 0 std::__ndk1::__compressed_pair_elem<std::__ndk1::allocator<std::__ndk1::__list_node<google_breakpad::MappingEntry, void*> >, 1, true>::__compressed_pair_elem()
FUNC 2cbdc e 0 std::__ndk1::allocator<std::__ndk1::__list_node<google_breakpad::MappingEntry, void*> >::allocator()
FUNC 2cbec 58 0 std::__ndk1::__list_imp<google_breakpad::AppMemory, std::__ndk1::allocator<google_breakpad::AppMemory> >::__list_imp()
FUNC 2cc44 30 0 std::__ndk1::__list_node_base<google_breakpad::AppMemory, void*>::__list_node_base()
FUNC 2cc74 36 0 std::__ndk1::__compressed_pair<unsigned int, std::__ndk1::allocator<std::__ndk1::__list_node<google_breakpad::AppMemory, void*> > >::__compressed_pair<int, true>(int&&)
FUNC 2ccaa 1a 0 std::__ndk1::__compressed_pair_elem<std::__ndk1::allocator<std::__ndk1::__list_node<google_breakpad::AppMemory, void*> >, 1, true>::__compressed_pair_elem()
FUNC 2ccc4 e 0 std::__ndk1::allocator<std::__ndk1::__list_node<google_breakpad::AppMemory, void*> >::allocator()
FUNC 2ccd4 60 0 std::__ndk1::__vector_base<google_breakpad::ExceptionHandler*, std::__ndk1::allocator<google_breakpad::ExceptionHandler*> >::__vector_base()
FUNC 2cd34 e 0 std::__ndk1::__vector_base_common<true>::__vector_base_common()
FUNC 2cd42 36 0 std::__ndk1::__compressed_pair<google_breakpad::ExceptionHandler**, std::__ndk1::allocator<google_breakpad::ExceptionHandler*> >::__compressed_pair<decltype(nullptr), true>(decltype(nullptr)&&)
FUNC 2cd78 e 0 decltype(nullptr)&& std::__ndk1::forward<decltype(nullptr)>(std::__ndk1::remove_reference<decltype(nullptr)>::type&)
FUNC 2cd86 2c 0 std::__ndk1::__compressed_pair_elem<google_breakpad::ExceptionHandler**, 0, false>::__compressed_pair_elem<decltype(nullptr), void>(decltype(nullptr)&&)
FUNC 2cdb2 1a 0 std::__ndk1::__compressed_pair_elem<std::__ndk1::allocator<google_breakpad::ExceptionHandler*>, 1, true>::__compressed_pair_elem()
FUNC 2cdcc e 0 std::__ndk1::allocator<google_breakpad::ExceptionHandler*>::allocator()
FUNC 2cdda 18 0 std::__ndk1::__vector_base<google_breakpad::ExceptionHandler*, std::__ndk1::allocator<google_breakpad::ExceptionHandler*> >::__end_cap()
FUNC 2cdf2 22 0 std::__ndk1::vector<google_breakpad::ExceptionHandler*, std::__ndk1::allocator<google_breakpad::ExceptionHandler*> >::__RAII_IncreaseAnnotator::__RAII_IncreaseAnnotator(std::__ndk1::vector<google_breakpad::ExceptionHandler*, std::__ndk1::allocator<google_breakpad::ExceptionHandler*> > const&, unsigned int)
FUNC 2ce14 3e 0 void std::__ndk1::allocator_traits<std::__ndk1::allocator<google_breakpad::ExceptionHandler*> >::construct<google_breakpad::ExceptionHandler*, google_breakpad::ExceptionHandler*>(std::__ndk1::allocator<google_breakpad::ExceptionHandler*>&, google_breakpad::ExceptionHandler**, google_breakpad::ExceptionHandler*&&)
FUNC 2ce52 18 0 std::__ndk1::__vector_base<google_breakpad::ExceptionHandler*, std::__ndk1::allocator<google_breakpad::ExceptionHandler*> >::__alloc()
FUNC 2ce6a e 0 google_breakpad::ExceptionHandler** std::__ndk1::__to_raw_pointer<google_breakpad::ExceptionHandler*>(google_breakpad::ExceptionHandler**)
FUNC 2ce78 e 0 std::__ndk1::remove_reference<google_breakpad::ExceptionHandler*&>::type&& std::__ndk1::move<google_breakpad::ExceptionHandler*&>(google_breakpad::ExceptionHandler*&)
FUNC 2ce86 c 0 std::__ndk1::vector<google_breakpad::ExceptionHandler*, std::__ndk1::allocator<google_breakpad::ExceptionHandler*> >::__RAII_IncreaseAnnotator::__done()
FUNC 2ce94 c0 0 void std::__ndk1::vector<google_breakpad::ExceptionHandler*, std::__ndk1::allocator<google_breakpad::ExceptionHandler*> >::__push_back_slow_path<google_breakpad::ExceptionHandler*>(google_breakpad::ExceptionHandler*&&)
FUNC 2cf54 16 0 std::__ndk1::__compressed_pair<google_breakpad::ExceptionHandler**, std::__ndk1::allocator<google_breakpad::ExceptionHandler*> >::first()
FUNC 2cf6a e 0 std::__ndk1::__compressed_pair_elem<google_breakpad::ExceptionHandler**, 0, false>::__get()
FUNC 2cf78 3e 0 void std::__ndk1::allocator_traits<std::__ndk1::allocator<google_breakpad::ExceptionHandler*> >::__construct<google_breakpad::ExceptionHandler*, google_breakpad::ExceptionHandler*>(std::__ndk1::integral_constant<bool, true>, std::__ndk1::allocator<google_breakpad::ExceptionHandler*>&, google_breakpad::ExceptionHandler**, google_breakpad::ExceptionHandler*&&)
FUNC 2cfb6 e 0 google_breakpad::ExceptionHandler*&& std::__ndk1::forward<google_breakpad::ExceptionHandler*>(std::__ndk1::remove_reference<google_breakpad::ExceptionHandler*>::type&)
FUNC 2cfc4 32 0 void std::__ndk1::allocator<google_breakpad::ExceptionHandler*>::construct<google_breakpad::ExceptionHandler*, google_breakpad::ExceptionHandler*>(google_breakpad::ExceptionHandler**, google_breakpad::ExceptionHandler*&&)
FUNC 2cff6 16 0 std::__ndk1::__compressed_pair<google_breakpad::ExceptionHandler**, std::__ndk1::allocator<google_breakpad::ExceptionHandler*> >::second()
FUNC 2d00c e 0 std::__ndk1::__compressed_pair_elem<std::__ndk1::allocator<google_breakpad::ExceptionHandler*>, 1, true>::__get()
FUNC 2d01c 8c 0 std::__ndk1::vector<google_breakpad::ExceptionHandler*, std::__ndk1::allocator<google_breakpad::ExceptionHandler*> >::__recommend(unsigned int) const
FUNC 2d0a8 b8 0 std::__ndk1::__split_buffer<google_breakpad::ExceptionHandler*, std::__ndk1::allocator<google_breakpad::ExceptionHandler*>&>::__split_buffer(unsigned int, unsigned int, std::__ndk1::allocator<google_breakpad::ExceptionHandler*>&)
FUNC 2d160 90 0 std::__ndk1::vector<google_breakpad::ExceptionHandler*, std::__ndk1::allocator<google_breakpad::ExceptionHandler*> >::__swap_out_circular_buffer(std::__ndk1::__split_buffer<google_breakpad::ExceptionHandler*, std::__ndk1::allocator<google_breakpad::ExceptionHandler*>&>&)
FUNC 2d1f0 54 0 std::__ndk1::__split_buffer<google_breakpad::ExceptionHandler*, std::__ndk1::allocator<google_breakpad::ExceptionHandler*>&>::~__split_buffer()
FUNC 2d244 64 0 std::__ndk1::vector<google_breakpad::ExceptionHandler*, std::__ndk1::allocator<google_breakpad::ExceptionHandler*> >::max_size() const
FUNC 2d2a8 18 0 std::__ndk1::__vector_base_common<true>::__throw_length_error() const
FUNC 2d2c0 16 0 std::__ndk1::vector<google_breakpad::ExceptionHandler*, std::__ndk1::allocator<google_breakpad::ExceptionHandler*> >::capacity() const
FUNC 2d2d6 1e 0 unsigned int const& std::__ndk1::min<unsigned int>(unsigned int const&, unsigned int const&)
FUNC 2d2f4 16 0 std::__ndk1::allocator_traits<std::__ndk1::allocator<google_breakpad::ExceptionHandler*> >::max_size(std::__ndk1::allocator<google_breakpad::ExceptionHandler*> const&)
FUNC 2d30a 18 0 std::__ndk1::__vector_base<google_breakpad::ExceptionHandler*, std::__ndk1::allocator<google_breakpad::ExceptionHandler*> >::__alloc() const
FUNC 2d322 a 0 std::__ndk1::numeric_limits<int>::max()
FUNC 2d32c 68 0 unsigned int const& std::__ndk1::min<unsigned int, std::__ndk1::__less<unsigned int, unsigned int> >(unsigned int const&, unsigned int const&, std::__ndk1::__less<unsigned int, unsigned int>)
FUNC 2d394 16 0 std::__ndk1::allocator_traits<std::__ndk1::allocator<google_breakpad::ExceptionHandler*> >::__max_size(std::__ndk1::integral_constant<bool, true>, std::__ndk1::allocator<google_breakpad::ExceptionHandler*> const&)
FUNC 2d3aa 10 0 std::__ndk1::allocator<google_breakpad::ExceptionHandler*>::max_size() const
FUNC 2d3ba 16 0 std::__ndk1::__compressed_pair<google_breakpad::ExceptionHandler**, std::__ndk1::allocator<google_breakpad::ExceptionHandler*> >::second() const
FUNC 2d3d0 e 0 std::__ndk1::__compressed_pair_elem<std::__ndk1::allocator<google_breakpad::ExceptionHandler*>, 1, true>::__get() const
FUNC 2d3de 6 0 std::__ndk1::__libcpp_numeric_limits<int, true>::max()
FUNC 2d3e4 26 0 std::__ndk1::__vector_base<google_breakpad::ExceptionHandler*, std::__ndk1::allocator<google_breakpad::ExceptionHandler*> >::capacity() const
FUNC 2d40a 18 0 std::__ndk1::__vector_base<google_breakpad::ExceptionHandler*, std::__ndk1::allocator<google_breakpad::ExceptionHandler*> >::__end_cap() const
FUNC 2d422 16 0 std::__ndk1::__compressed_pair<google_breakpad::ExceptionHandler**, std::__ndk1::allocator<google_breakpad::ExceptionHandler*> >::first() const
FUNC 2d438 e 0 std::__ndk1::__compressed_pair_elem<google_breakpad::ExceptionHandler**, 0, false>::__get() const
FUNC 2d446 54 0 std::__ndk1::__compressed_pair<google_breakpad::ExceptionHandler**, std::__ndk1::allocator<google_breakpad::ExceptionHandler*>&>::__compressed_pair<decltype(nullptr), std::__ndk1::allocator<google_breakpad::ExceptionHandler*>&>(decltype(nullptr)&&, std::__ndk1::allocator<google_breakpad::ExceptionHandler*>&)
FUNC 2d49a 24 0 std::__ndk1::allocator_traits<std::__ndk1::allocator<google_breakpad::ExceptionHandler*> >::allocate(std::__ndk1::allocator<google_breakpad::ExceptionHandler*>&, unsigned int)
FUNC 2d4be 18 0 std::__ndk1::__split_buffer<google_breakpad::ExceptionHandler*, std::__ndk1::allocator<google_breakpad::ExceptionHandler*>&>::__alloc()
FUNC 2d4d6 18 0 std::__ndk1::__split_buffer<google_breakpad::ExceptionHandler*, std::__ndk1::allocator<google_breakpad::ExceptionHandler*>&>::__end_cap()
FUNC 2d4ee e 0 std::__ndk1::allocator<google_breakpad::ExceptionHandler*>& std::__ndk1::forward<std::__ndk1::allocator<google_breakpad::ExceptionHandler*>&>(std::__ndk1::remove_reference<std::__ndk1::allocator<google_breakpad::ExceptionHandler*>&>::type&)
FUNC 2d4fc 28 0 std::__ndk1::__compressed_pair_elem<std::__ndk1::allocator<google_breakpad::ExceptionHandler*>&, 1, false>::__compressed_pair_elem<std::__ndk1::allocator<google_breakpad::ExceptionHandler*>&, void>(std::__ndk1::allocator<google_breakpad::ExceptionHandler*>&)
FUNC 2d524 48 0 std::__ndk1::allocator<google_breakpad::ExceptionHandler*>::allocate(unsigned int, void const*)
FUNC 2d56c 18 0 std::__ndk1::__compressed_pair<google_breakpad::ExceptionHandler**, std::__ndk1::allocator<google_breakpad::ExceptionHandler*>&>::second()
FUNC 2d584 10 0 std::__ndk1::__compressed_pair_elem<std::__ndk1::allocator<google_breakpad::ExceptionHandler*>&, 1, false>::__get()
FUNC 2d594 16 0 std::__ndk1::__compressed_pair<google_breakpad::ExceptionHandler**, std::__ndk1::allocator<google_breakpad::ExceptionHandler*>&>::first()
FUNC 2d5aa 72 0 std::__ndk1::vector<google_breakpad::ExceptionHandler*, std::__ndk1::allocator<google_breakpad::ExceptionHandler*> >::__annotate_delete() const
FUNC 2d61c 54 0 std::__ndk1::allocator_traits<std::__ndk1::allocator<google_breakpad::ExceptionHandler *> >::__construct_backward<google_breakpad::ExceptionHandler *>
FUNC 2d670 5c 0 std::__ndk1::swap<google_breakpad::ExceptionHandler **>
FUNC 2d6cc 6e 0 std::__ndk1::vector<google_breakpad::ExceptionHandler*, std::__ndk1::allocator<google_breakpad::ExceptionHandler*> >::__annotate_new(unsigned int) const
FUNC 2d73a c 0 std::__ndk1::vector<google_breakpad::ExceptionHandler*, std::__ndk1::allocator<google_breakpad::ExceptionHandler*> >::__invalidate_all_iterators()
FUNC 2d746 34 0 std::__ndk1::vector<google_breakpad::ExceptionHandler*, std::__ndk1::allocator<google_breakpad::ExceptionHandler*> >::__annotate_contiguous_container(void const*, void const*, void const*, void const*) const
FUNC 2d77a 18 0 std::__ndk1::vector<google_breakpad::ExceptionHandler*, std::__ndk1::allocator<google_breakpad::ExceptionHandler*> >::data() const
FUNC 2d792 e 0 std::__ndk1::remove_reference<google_breakpad::ExceptionHandler**&>::type&& std::__ndk1::move<google_breakpad::ExceptionHandler**&>(google_breakpad::ExceptionHandler**&)
FUNC 2d7a0 1a 0 std::__ndk1::__split_buffer<google_breakpad::ExceptionHandler*, std::__ndk1::allocator<google_breakpad::ExceptionHandler*>&>::clear()
FUNC 2d7ba 2a 0 std::__ndk1::allocator_traits<std::__ndk1::allocator<google_breakpad::ExceptionHandler*> >::deallocate(std::__ndk1::allocator<google_breakpad::ExceptionHandler*>&, google_breakpad::ExceptionHandler**, unsigned int)
FUNC 2d7e4 26 0 std::__ndk1::__split_buffer<google_breakpad::ExceptionHandler*, std::__ndk1::allocator<google_breakpad::ExceptionHandler*>&>::capacity() const
FUNC 2d80a 1e 0 std::__ndk1::__split_buffer<google_breakpad::ExceptionHandler*, std::__ndk1::allocator<google_breakpad::ExceptionHandler*>&>::__destruct_at_end(google_breakpad::ExceptionHandler**)
FUNC 2d828 5a 0 std::__ndk1::__split_buffer<google_breakpad::ExceptionHandler*, std::__ndk1::allocator<google_breakpad::ExceptionHandler*>&>::__destruct_at_end(google_breakpad::ExceptionHandler**, std::__ndk1::integral_constant<bool, false>)
FUNC 2d882 1e 0 void std::__ndk1::allocator_traits<std::__ndk1::allocator<google_breakpad::ExceptionHandler*> >::destroy<google_breakpad::ExceptionHandler*>(std::__ndk1::allocator<google_breakpad::ExceptionHandler*>&, google_breakpad::ExceptionHandler**)
FUNC 2d8a0 1e 0 void std::__ndk1::allocator_traits<std::__ndk1::allocator<google_breakpad::ExceptionHandler*> >::__destroy<google_breakpad::ExceptionHandler*>(std::__ndk1::integral_constant<bool, true>, std::__ndk1::allocator<google_breakpad::ExceptionHandler*>&, google_breakpad::ExceptionHandler**)
FUNC 2d8be 12 0 std::__ndk1::allocator<google_breakpad::ExceptionHandler*>::destroy(google_breakpad::ExceptionHandler**)
FUNC 2d8d0 34 0 std::__ndk1::allocator<google_breakpad::ExceptionHandler*>::deallocate(google_breakpad::ExceptionHandler**, unsigned int)
FUNC 2d904 18 0 std::__ndk1::__split_buffer<google_breakpad::ExceptionHandler*, std::__ndk1::allocator<google_breakpad::ExceptionHandler*>&>::__end_cap() const
FUNC 2d91c 16 0 std::__ndk1::__compressed_pair<google_breakpad::ExceptionHandler**, std::__ndk1::allocator<google_breakpad::ExceptionHandler*>&>::first() const
FUNC 2d934 48 0 std::__ndk1::vector<google_breakpad::ExceptionHandler*, std::__ndk1::allocator<google_breakpad::ExceptionHandler*> >::__make_iter(google_breakpad::ExceptionHandler**)
FUNC 2d97c 18 0 std::__ndk1::__wrap_iter<google_breakpad::ExceptionHandler**>::__wrap_iter(google_breakpad::ExceptionHandler**)
FUNC 2d994 22 0 bool std::__ndk1::operator!=<google_breakpad::ExceptionHandler**>(std::__ndk1::__wrap_iter<google_breakpad::ExceptionHandler**> const&, std::__ndk1::__wrap_iter<google_breakpad::ExceptionHandler**> const&)
FUNC 2d9b6 10 0 std::__ndk1::__wrap_iter<google_breakpad::ExceptionHandler**>::operator*() const
FUNC 2d9c6 14 0 std::__ndk1::__wrap_iter<google_breakpad::ExceptionHandler**>::operator++()
FUNC 2d9da 30 0 bool std::__ndk1::operator==<google_breakpad::ExceptionHandler**, google_breakpad::ExceptionHandler**>(std::__ndk1::__wrap_iter<google_breakpad::ExceptionHandler**> const&, std::__ndk1::__wrap_iter<google_breakpad::ExceptionHandler**> const&)
FUNC 2da0a 2c 0 decltype ((({parm#1}.base)())-(({parm#2}.base)())) std::__ndk1::operator-<google_breakpad::ExceptionHandler* const*, google_breakpad::ExceptionHandler* const*>(std::__ndk1::__wrap_iter<google_breakpad::ExceptionHandler* const*> const&, std::__ndk1::__wrap_iter<google_breakpad::ExceptionHandler* const*> const&)
FUNC 2da36 1a 0 std::__ndk1::vector<google_breakpad::ExceptionHandler*, std::__ndk1::allocator<google_breakpad::ExceptionHandler*> >::cbegin() const
FUNC 2da50 42 0 std::__ndk1::vector<google_breakpad::ExceptionHandler*, std::__ndk1::allocator<google_breakpad::ExceptionHandler*> >::__destruct_at_end(google_breakpad::ExceptionHandler**)
FUNC 2da92 48 0 google_breakpad::ExceptionHandler** std::__ndk1::move<google_breakpad::ExceptionHandler**, google_breakpad::ExceptionHandler**>(google_breakpad::ExceptionHandler**, google_breakpad::ExceptionHandler**, google_breakpad::ExceptionHandler**)
FUNC 2dada 12 0 std::__ndk1::vector<google_breakpad::ExceptionHandler*, std::__ndk1::allocator<google_breakpad::ExceptionHandler*> >::__invalidate_iterators_past(google_breakpad::ExceptionHandler**)
FUNC 2daec 10 0 std::__ndk1::__wrap_iter<google_breakpad::ExceptionHandler* const*>::base() const
FUNC 2dafc 1e 0 std::__ndk1::vector<google_breakpad::ExceptionHandler*, std::__ndk1::allocator<google_breakpad::ExceptionHandler*> >::begin() const
FUNC 2db1c 48 0 std::__ndk1::vector<google_breakpad::ExceptionHandler*, std::__ndk1::allocator<google_breakpad::ExceptionHandler*> >::__make_iter(google_breakpad::ExceptionHandler* const*) const
FUNC 2db64 18 0 std::__ndk1::__wrap_iter<google_breakpad::ExceptionHandler* const*>::__wrap_iter(google_breakpad::ExceptionHandler* const*)
FUNC 2db7c 62 0 std::__ndk1::__vector_base<google_breakpad::ExceptionHandler*, std::__ndk1::allocator<google_breakpad::ExceptionHandler*> >::__destruct_at_end(google_breakpad::ExceptionHandler**)
FUNC 2dbde 6e 0 std::__ndk1::vector<google_breakpad::ExceptionHandler*, std::__ndk1::allocator<google_breakpad::ExceptionHandler*> >::__annotate_shrink(unsigned int) const
FUNC 2dc4c 48 0 std::__ndk1::__move<google_breakpad::ExceptionHandler *, google_breakpad::ExceptionHandler *>
FUNC 2dc94 e 0 google_breakpad::ExceptionHandler** std::__ndk1::__unwrap_iter<google_breakpad::ExceptionHandler**>(google_breakpad::ExceptionHandler**)
FUNC 2dca2 4e 0 std::__ndk1::__vector_base<google_breakpad::ExceptionHandler*, std::__ndk1::allocator<google_breakpad::ExceptionHandler*> >::~__vector_base()
FUNC 2dcf0 1a 0 std::__ndk1::__vector_base<google_breakpad::ExceptionHandler*, std::__ndk1::allocator<google_breakpad::ExceptionHandler*> >::clear()
FUNC 2dd0c 7c 0 std::__ndk1::list<google_breakpad::MappingEntry, std::__ndk1::allocator<google_breakpad::MappingEntry> >::__allocate_node(std::__ndk1::allocator<std::__ndk1::__list_node<google_breakpad::MappingEntry, void*> >&)
FUNC 2dd88 3e 0 void std::__ndk1::allocator_traits<std::__ndk1::allocator<std::__ndk1::__list_node<google_breakpad::MappingEntry, void*> > >::construct<google_breakpad::MappingEntry, google_breakpad::MappingEntry const&>(std::__ndk1::allocator<std::__ndk1::__list_node<google_breakpad::MappingEntry, void*> >&, google_breakpad::MappingEntry*, google_breakpad::MappingEntry const&)
FUNC 2ddc6 18 0 std::__ndk1::unique_ptr<std::__ndk1::__list_node<google_breakpad::MappingEntry, void*>, std::__ndk1::__allocator_destructor<std::__ndk1::allocator<std::__ndk1::__list_node<google_breakpad::MappingEntry, void*> > > >::operator->() const
FUNC 2ddde 3e 0 std::__ndk1::list<google_breakpad::MappingEntry, std::__ndk1::allocator<google_breakpad::MappingEntry> >::__link_nodes_at_back(std::__ndk1::__list_node_base<google_breakpad::MappingEntry, void*>*, std::__ndk1::__list_node_base<google_breakpad::MappingEntry, void*>*)
FUNC 2de1c 18 0 std::__ndk1::unique_ptr<std::__ndk1::__list_node<google_breakpad::MappingEntry, void*>, std::__ndk1::__allocator_destructor<std::__ndk1::allocator<std::__ndk1::__list_node<google_breakpad::MappingEntry, void*> > > >::get() const
FUNC 2de34 16 0 std::__ndk1::__list_node<google_breakpad::MappingEntry, void*>::__as_link()
FUNC 2de4a 28 0 std::__ndk1::unique_ptr<std::__ndk1::__list_node<google_breakpad::MappingEntry, void*>, std::__ndk1::__allocator_destructor<std::__ndk1::allocator<std::__ndk1::__list_node<google_breakpad::MappingEntry, void*> > > >::release()
FUNC 2de72 1e 0 std::__ndk1::unique_ptr<std::__ndk1::__list_node<google_breakpad::MappingEntry, void*>, std::__ndk1::__allocator_destructor<std::__ndk1::allocator<std::__ndk1::__list_node<google_breakpad::MappingEntry, void*> > > >::~unique_ptr()
FUNC 2de90 24 0 std::__ndk1::allocator_traits<std::__ndk1::allocator<std::__ndk1::__list_node<google_breakpad::MappingEntry, void*> > >::allocate(std::__ndk1::allocator<std::__ndk1::__list_node<google_breakpad::MappingEntry, void*> >&, unsigned int)
FUNC 2deb4 2a 0 std::__ndk1::__allocator_destructor<std::__ndk1::allocator<std::__ndk1::__list_node<google_breakpad::MappingEntry, void*> > >::__allocator_destructor(std::__ndk1::allocator<std::__ndk1::__list_node<google_breakpad::MappingEntry, void*> >&, unsigned int)
FUNC 2dee0 6c 0 std::__ndk1::unique_ptr<std::__ndk1::__list_node<google_breakpad::MappingEntry, void*>, std::__ndk1::__allocator_destructor<std::__ndk1::allocator<std::__ndk1::__list_node<google_breakpad::MappingEntry, void*> > > >::unique_ptr<true, void>(std::__ndk1::__list_node<google_breakpad::MappingEntry, void*>*, std::__ndk1::__dependent_type<std::__ndk1::__unique_ptr_deleter_sfinae<std::__ndk1::__allocator_destructor<std::__ndk1::allocator<std::__ndk1::__list_node<google_breakpad::MappingEntry, void*> > > >, true>::__good_rval_ref_type)
FUNC 2df4c 4c 0 std::__ndk1::allocator<std::__ndk1::__list_node<google_breakpad::MappingEntry, void*> >::allocate(unsigned int, void const*)
FUNC 2df98 14 0 std::__ndk1::allocator<std::__ndk1::__list_node<google_breakpad::MappingEntry, void*> >::max_size() const
FUNC 2dfac e 0 std::__ndk1::remove_reference<std::__ndk1::__allocator_destructor<std::__ndk1::allocator<std::__ndk1::__list_node<google_breakpad::MappingEntry, void*> > >&>::type&& std::__ndk1::move<std::__ndk1::__allocator_destructor<std::__ndk1::allocator<std::__ndk1::__list_node<google_breakpad::MappingEntry, void*> > >&>(std::__ndk1::__allocator_destructor<std::__ndk1::allocator<std::__ndk1::__list_node<google_breakpad::MappingEntry, void*> > >&)
FUNC 2dfba 54 0 std::__ndk1::__compressed_pair<std::__ndk1::__list_node<google_breakpad::MappingEntry, void*>*, std::__ndk1::__allocator_destructor<std::__ndk1::allocator<std::__ndk1::__list_node<google_breakpad::MappingEntry, void*> > > >::__compressed_pair<std::__ndk1::__list_node<google_breakpad::MappingEntry, void*>*&, std::__ndk1::__allocator_destructor<std::__ndk1::allocator<std::__ndk1::__list_node<google_breakpad::MappingEntry, void*> > > >(std::__ndk1::__list_node<google_breakpad::MappingEntry, void*>*&, std::__ndk1::__allocator_destructor<std::__ndk1::allocator<std::__ndk1::__list_node<google_breakpad::MappingEntry, void*> > >&&)
FUNC 2e00e e 0 std::__ndk1::__list_node<google_breakpad::MappingEntry, void*>*& std::__ndk1::forward<std::__ndk1::__list_node<google_breakpad::MappingEntry, void*>*&>(std::__ndk1::remove_reference<std::__ndk1::__list_node<google_breakpad::MappingEntry, void*>*&>::type&)
FUNC 2e01c 2a 0 std::__ndk1::__compressed_pair_elem<std::__ndk1::__list_node<google_breakpad::MappingEntry, void*>*, 0, false>::__compressed_pair_elem<std::__ndk1::__list_node<google_breakpad::MappingEntry, void*>*&, void>(std::__ndk1::__list_node<google_breakpad::MappingEntry, void*>*&)
FUNC 2e046 e 0 std::__ndk1::__allocator_destructor<std::__ndk1::allocator<std::__ndk1::__list_node<google_breakpad::MappingEntry, void*> > >&& std::__ndk1::forward<std::__ndk1::__allocator_destructor<std::__ndk1::allocator<std::__ndk1::__list_node<google_breakpad::MappingEntry, void*> > > >(std::__ndk1::remove_reference<std::__ndk1::__allocator_destructor<std::__ndk1::allocator<std::__ndk1::__list_node<google_breakpad::MappingEntry, void*> > > >::type&)
FUNC 2e054 2e 0 std::__ndk1::__compressed_pair_elem<std::__ndk1::__allocator_destructor<std::__ndk1::allocator<std::__ndk1::__list_node<google_breakpad::MappingEntry, void*> > >, 1, false>::__compressed_pair_elem<std::__ndk1::__allocator_destructor<std::__ndk1::allocator<std::__ndk1::__list_node<google_breakpad::MappingEntry, void*> > >, void>(std::__ndk1::__allocator_destructor<std::__ndk1::allocator<std::__ndk1::__list_node<google_breakpad::MappingEntry, void*> > >&&)
FUNC 2e082 3e 0 void std::__ndk1::allocator_traits<std::__ndk1::allocator<std::__ndk1::__list_node<google_breakpad::MappingEntry, void*> > >::__construct<google_breakpad::MappingEntry, google_breakpad::MappingEntry const&>(std::__ndk1::integral_constant<bool, true>, std::__ndk1::allocator<std::__ndk1::__list_node<google_breakpad::MappingEntry, void*> >&, google_breakpad::MappingEntry*, google_breakpad::MappingEntry const&)
FUNC 2e0c0 e 0 google_breakpad::MappingEntry const& std::__ndk1::forward<google_breakpad::MappingEntry const&>(std::__ndk1::remove_reference<google_breakpad::MappingEntry const&>::type&)
FUNC 2e0ce 3c 0 void std::__ndk1::allocator<std::__ndk1::__list_node<google_breakpad::MappingEntry, void*> >::construct<google_breakpad::MappingEntry, google_breakpad::MappingEntry const&>(google_breakpad::MappingEntry*, google_breakpad::MappingEntry const&)
FUNC 2e10a 16 0 std::__ndk1::__compressed_pair<std::__ndk1::__list_node<google_breakpad::MappingEntry, void*>*, std::__ndk1::__allocator_destructor<std::__ndk1::allocator<std::__ndk1::__list_node<google_breakpad::MappingEntry, void*> > > >::first() const
FUNC 2e120 e 0 std::__ndk1::__compressed_pair_elem<std::__ndk1::__list_node<google_breakpad::MappingEntry, void*>*, 0, false>::__get() const
FUNC 2e12e 16 0 std::__ndk1::__compressed_pair<std::__ndk1::__list_node<google_breakpad::MappingEntry, void*>*, std::__ndk1::__allocator_destructor<std::__ndk1::allocator<std::__ndk1::__list_node<google_breakpad::MappingEntry, void*> > > >::first()
FUNC 2e144 e 0 std::__ndk1::__compressed_pair_elem<std::__ndk1::__list_node<google_breakpad::MappingEntry, void*>*, 0, false>::__get()
FUNC 2e152 48 0 std::__ndk1::unique_ptr<std::__ndk1::__list_node<google_breakpad::MappingEntry, void*>, std::__ndk1::__allocator_destructor<std::__ndk1::allocator<std::__ndk1::__list_node<google_breakpad::MappingEntry, void*> > > >::reset(std::__ndk1::__list_node<google_breakpad::MappingEntry, void*>*)
FUNC 2e19a 18 0 std::__ndk1::__compressed_pair<std::__ndk1::__list_node<google_breakpad::MappingEntry, void*>*, std::__ndk1::__allocator_destructor<std::__ndk1::allocator<std::__ndk1::__list_node<google_breakpad::MappingEntry, void*> > > >::second()
FUNC 2e1b2 2e 0 std::__ndk1::__allocator_destructor<std::__ndk1::allocator<std::__ndk1::__list_node<google_breakpad::MappingEntry, void*> > >::operator()(std::__ndk1::__list_node<google_breakpad::MappingEntry, void*>*)
FUNC 2e1e0 e 0 std::__ndk1::__compressed_pair_elem<std::__ndk1::__allocator_destructor<std::__ndk1::allocator<std::__ndk1::__list_node<google_breakpad::MappingEntry, void*> > >, 1, false>::__get()
FUNC 2e1f0 48 0 std::__ndk1::__list_imp<google_breakpad::AppMemory, std::__ndk1::allocator<google_breakpad::AppMemory> >::begin()
FUNC 2e238 18 0 std::__ndk1::__list_iterator<google_breakpad::AppMemory, void*>::__list_iterator(std::__ndk1::__list_node_base<google_breakpad::AppMemory, void*>*)
FUNC 2e250 48 0 std::__ndk1::__list_imp<google_breakpad::AppMemory, std::__ndk1::allocator<google_breakpad::AppMemory> >::end()
FUNC 2e298 1a 0 std::__ndk1::__list_iterator<google_breakpad::AppMemory, void*>::operator*() const
FUNC 2e2b2 20 0 google_breakpad::AppMemory::operator==(void const*) const
FUNC 2e2d2 14 0 std::__ndk1::__list_iterator<google_breakpad::AppMemory, void*>::operator++()
FUNC 2e2e6 22 0 std::__ndk1::operator==(std::__ndk1::__list_iterator<google_breakpad::AppMemory, void*> const&, std::__ndk1::__list_iterator<google_breakpad::AppMemory, void*> const&)
FUNC 2e308 7c 0 std::__ndk1::list<google_breakpad::AppMemory, std::__ndk1::allocator<google_breakpad::AppMemory> >::__allocate_node(std::__ndk1::allocator<std::__ndk1::__list_node<google_breakpad::AppMemory, void*> >&)
FUNC 2e384 3e 0 void std::__ndk1::allocator_traits<std::__ndk1::allocator<std::__ndk1::__list_node<google_breakpad::AppMemory, void*> > >::construct<google_breakpad::AppMemory, google_breakpad::AppMemory const&>(std::__ndk1::allocator<std::__ndk1::__list_node<google_breakpad::AppMemory, void*> >&, google_breakpad::AppMemory*, google_breakpad::AppMemory const&)
FUNC 2e3c2 18 0 std::__ndk1::unique_ptr<std::__ndk1::__list_node<google_breakpad::AppMemory, void*>, std::__ndk1::__allocator_destructor<std::__ndk1::allocator<std::__ndk1::__list_node<google_breakpad::AppMemory, void*> > > >::operator->() const
FUNC 2e3da 3e 0 std::__ndk1::list<google_breakpad::AppMemory, std::__ndk1::allocator<google_breakpad::AppMemory> >::__link_nodes_at_back(std::__ndk1::__list_node_base<google_breakpad::AppMemory, void*>*, std::__ndk1::__list_node_base<google_breakpad::AppMemory, void*>*)
FUNC 2e418 18 0 std::__ndk1::unique_ptr<std::__ndk1::__list_node<google_breakpad::AppMemory, void*>, std::__ndk1::__allocator_destructor<std::__ndk1::allocator<std::__ndk1::__list_node<google_breakpad::AppMemory, void*> > > >::get() const
FUNC 2e430 16 0 std::__ndk1::__list_node<google_breakpad::AppMemory, void*>::__as_link()
FUNC 2e446 28 0 std::__ndk1::unique_ptr<std::__ndk1::__list_node<google_breakpad::AppMemory, void*>, std::__ndk1::__allocator_destructor<std::__ndk1::allocator<std::__ndk1::__list_node<google_breakpad::AppMemory, void*> > > >::release()
FUNC 2e46e 1e 0 std::__ndk1::unique_ptr<std::__ndk1::__list_node<google_breakpad::AppMemory, void*>, std::__ndk1::__allocator_destructor<std::__ndk1::allocator<std::__ndk1::__list_node<google_breakpad::AppMemory, void*> > > >::~unique_ptr()
FUNC 2e48c 24 0 std::__ndk1::allocator_traits<std::__ndk1::allocator<std::__ndk1::__list_node<google_breakpad::AppMemory, void*> > >::allocate(std::__ndk1::allocator<std::__ndk1::__list_node<google_breakpad::AppMemory, void*> >&, unsigned int)
FUNC 2e4b0 2a 0 std::__ndk1::__allocator_destructor<std::__ndk1::allocator<std::__ndk1::__list_node<google_breakpad::AppMemory, void*> > >::__allocator_destructor(std::__ndk1::allocator<std::__ndk1::__list_node<google_breakpad::AppMemory, void*> >&, unsigned int)
FUNC 2e4dc 6c 0 std::__ndk1::unique_ptr<std::__ndk1::__list_node<google_breakpad::AppMemory, void*>, std::__ndk1::__allocator_destructor<std::__ndk1::allocator<std::__ndk1::__list_node<google_breakpad::AppMemory, void*> > > >::unique_ptr<true, void>(std::__ndk1::__list_node<google_breakpad::AppMemory, void*>*, std::__ndk1::__dependent_type<std::__ndk1::__unique_ptr_deleter_sfinae<std::__ndk1::__allocator_destructor<std::__ndk1::allocator<std::__ndk1::__list_node<google_breakpad::AppMemory, void*> > > >, true>::__good_rval_ref_type)
FUNC 2e548 48 0 std::__ndk1::allocator<std::__ndk1::__list_node<google_breakpad::AppMemory, void*> >::allocate(unsigned int, void const*)
FUNC 2e590 10 0 std::__ndk1::allocator<std::__ndk1::__list_node<google_breakpad::AppMemory, void*> >::max_size() const
FUNC 2e5a0 e 0 std::__ndk1::remove_reference<std::__ndk1::__allocator_destructor<std::__ndk1::allocator<std::__ndk1::__list_node<google_breakpad::AppMemory, void*> > >&>::type&& std::__ndk1::move<std::__ndk1::__allocator_destructor<std::__ndk1::allocator<std::__ndk1::__list_node<google_breakpad::AppMemory, void*> > >&>(std::__ndk1::__allocator_destructor<std::__ndk1::allocator<std::__ndk1::__list_node<google_breakpad::AppMemory, void*> > >&)
FUNC 2e5ae 54 0 std::__ndk1::__compressed_pair<std::__ndk1::__list_node<google_breakpad::AppMemory, void*>*, std::__ndk1::__allocator_destructor<std::__ndk1::allocator<std::__ndk1::__list_node<google_breakpad::AppMemory, void*> > > >::__compressed_pair<std::__ndk1::__list_node<google_breakpad::AppMemory, void*>*&, std::__ndk1::__allocator_destructor<std::__ndk1::allocator<std::__ndk1::__list_node<google_breakpad::AppMemory, void*> > > >(std::__ndk1::__list_node<google_breakpad::AppMemory, void*>*&, std::__ndk1::__allocator_destructor<std::__ndk1::allocator<std::__ndk1::__list_node<google_breakpad::AppMemory, void*> > >&&)
FUNC 2e602 e 0 std::__ndk1::__list_node<google_breakpad::AppMemory, void*>*& std::__ndk1::forward<std::__ndk1::__list_node<google_breakpad::AppMemory, void*>*&>(std::__ndk1::remove_reference<std::__ndk1::__list_node<google_breakpad::AppMemory, void*>*&>::type&)
FUNC 2e610 2a 0 std::__ndk1::__compressed_pair_elem<std::__ndk1::__list_node<google_breakpad::AppMemory, void*>*, 0, false>::__compressed_pair_elem<std::__ndk1::__list_node<google_breakpad::AppMemory, void*>*&, void>(std::__ndk1::__list_node<google_breakpad::AppMemory, void*>*&)
FUNC 2e63a e 0 std::__ndk1::__allocator_destructor<std::__ndk1::allocator<std::__ndk1::__list_node<google_breakpad::AppMemory, void*> > >&& std::__ndk1::forward<std::__ndk1::__allocator_destructor<std::__ndk1::allocator<std::__ndk1::__list_node<google_breakpad::AppMemory, void*> > > >(std::__ndk1::remove_reference<std::__ndk1::__allocator_destructor<std::__ndk1::allocator<std::__ndk1::__list_node<google_breakpad::AppMemory, void*> > > >::type&)
FUNC 2e648 2e 0 std::__ndk1::__compressed_pair_elem<std::__ndk1::__allocator_destructor<std::__ndk1::allocator<std::__ndk1::__list_node<google_breakpad::AppMemory, void*> > >, 1, false>::__compressed_pair_elem<std::__ndk1::__allocator_destructor<std::__ndk1::allocator<std::__ndk1::__list_node<google_breakpad::AppMemory, void*> > >, void>(std::__ndk1::__allocator_destructor<std::__ndk1::allocator<std::__ndk1::__list_node<google_breakpad::AppMemory, void*> > >&&)
FUNC 2e676 3e 0 void std::__ndk1::allocator_traits<std::__ndk1::allocator<std::__ndk1::__list_node<google_breakpad::AppMemory, void*> > >::__construct<google_breakpad::AppMemory, google_breakpad::AppMemory const&>(std::__ndk1::integral_constant<bool, true>, std::__ndk1::allocator<std::__ndk1::__list_node<google_breakpad::AppMemory, void*> >&, google_breakpad::AppMemory*, google_breakpad::AppMemory const&)
FUNC 2e6b4 e 0 google_breakpad::AppMemory const& std::__ndk1::forward<google_breakpad::AppMemory const&>(std::__ndk1::remove_reference<google_breakpad::AppMemory const&>::type&)
FUNC 2e6c2 36 0 void std::__ndk1::allocator<std::__ndk1::__list_node<google_breakpad::AppMemory, void*> >::construct<google_breakpad::AppMemory, google_breakpad::AppMemory const&>(google_breakpad::AppMemory*, google_breakpad::AppMemory const&)
FUNC 2e6f8 16 0 std::__ndk1::__compressed_pair<std::__ndk1::__list_node<google_breakpad::AppMemory, void*>*, std::__ndk1::__allocator_destructor<std::__ndk1::allocator<std::__ndk1::__list_node<google_breakpad::AppMemory, void*> > > >::first() const
FUNC 2e70e e 0 std::__ndk1::__compressed_pair_elem<std::__ndk1::__list_node<google_breakpad::AppMemory, void*>*, 0, false>::__get() const
FUNC 2e71c 16 0 std::__ndk1::__compressed_pair<std::__ndk1::__list_node<google_breakpad::AppMemory, void*>*, std::__ndk1::__allocator_destructor<std::__ndk1::allocator<std::__ndk1::__list_node<google_breakpad::AppMemory, void*> > > >::first()
FUNC 2e732 e 0 std::__ndk1::__compressed_pair_elem<std::__ndk1::__list_node<google_breakpad::AppMemory, void*>*, 0, false>::__get()
FUNC 2e740 48 0 std::__ndk1::unique_ptr<std::__ndk1::__list_node<google_breakpad::AppMemory, void*>, std::__ndk1::__allocator_destructor<std::__ndk1::allocator<std::__ndk1::__list_node<google_breakpad::AppMemory, void*> > > >::reset(std::__ndk1::__list_node<google_breakpad::AppMemory, void*>*)
FUNC 2e788 18 0 std::__ndk1::__compressed_pair<std::__ndk1::__list_node<google_breakpad::AppMemory, void*>*, std::__ndk1::__allocator_destructor<std::__ndk1::allocator<std::__ndk1::__list_node<google_breakpad::AppMemory, void*> > > >::second()
FUNC 2e7a0 2e 0 std::__ndk1::__allocator_destructor<std::__ndk1::allocator<std::__ndk1::__list_node<google_breakpad::AppMemory, void*> > >::operator()(std::__ndk1::__list_node<google_breakpad::AppMemory, void*>*)
FUNC 2e7ce e 0 std::__ndk1::__compressed_pair_elem<std::__ndk1::__allocator_destructor<std::__ndk1::allocator<std::__ndk1::__list_node<google_breakpad::AppMemory, void*> > >, 1, false>::__get()
FUNC 2e7dc e0 0 google_breakpad::MinidumpDescriptor::MinidumpDescriptor(google_breakpad::MinidumpDescriptor const&)
FUNC 2e8bc d0 0 google_breakpad::MinidumpDescriptor::operator=(google_breakpad::MinidumpDescriptor const&)
FUNC 2e98c 4e 0 std::__ndk1::basic_string<char, std::__ndk1::char_traits<char>, std::__ndk1::allocator<char> >::operator=(std::__ndk1::basic_string<char, std::__ndk1::char_traits<char>, std::__ndk1::allocator<char> > const&)
FUNC 2e9dc 98 0 std::__ndk1::basic_string<char, std::__ndk1::char_traits<char>, std::__ndk1::allocator<char> >::clear()
FUNC 2ea74 144 0 google_breakpad::MinidumpDescriptor::UpdatePath()
FUNC 2ebb8 22 0 std::__ndk1::basic_string<char, std::__ndk1::char_traits<char>, std::__ndk1::allocator<char> >::operator=(std::__ndk1::basic_string<char, std::__ndk1::char_traits<char>, std::__ndk1::allocator<char> >&&)
FUNC 2ebda 1e 0 std::__ndk1::basic_string<char, std::__ndk1::char_traits<char>, std::__ndk1::allocator<char> >::__copy_assign_alloc(std::__ndk1::basic_string<char, std::__ndk1::char_traits<char>, std::__ndk1::allocator<char> > const&)
FUNC 2ebf8 12 0 std::__ndk1::basic_string<char, std::__ndk1::char_traits<char>, std::__ndk1::allocator<char> >::__copy_assign_alloc(std::__ndk1::basic_string<char, std::__ndk1::char_traits<char>, std::__ndk1::allocator<char> > const&, std::__ndk1::integral_constant<bool, false>)
FUNC 2ec0a 4e 0 std::__ndk1::basic_string<char, std::__ndk1::char_traits<char>, std::__ndk1::allocator<char> >::__move_assign(std::__ndk1::basic_string<char, std::__ndk1::char_traits<char>, std::__ndk1::allocator<char> >&, std::__ndk1::integral_constant<bool, true>)
FUNC 2ec58 64 0 std::__ndk1::basic_string<char, std::__ndk1::char_traits<char>, std::__ndk1::allocator<char> >::__clear_and_shrink()
FUNC 2ecbc 1e 0 std::__ndk1::basic_string<char, std::__ndk1::char_traits<char>, std::__ndk1::allocator<char> >::__move_assign_alloc(std::__ndk1::basic_string<char, std::__ndk1::char_traits<char>, std::__ndk1::allocator<char> >&)
FUNC 2ecda 32 0 std::__ndk1::basic_string<char, std::__ndk1::char_traits<char>, std::__ndk1::allocator<char> >::__move_assign_alloc(std::__ndk1::basic_string<char, std::__ndk1::char_traits<char>, std::__ndk1::allocator<char> >&, std::__ndk1::integral_constant<bool, true>)
FUNC 2ed0c e 0 std::__ndk1::remove_reference<std::__ndk1::allocator<char>&>::type&& std::__ndk1::move<std::__ndk1::allocator<char>&>(std::__ndk1::allocator<char>&)
FUNC 2ed1c 44 0 logger::initializeCrashLogWriter()
FUNC 2ed60 60 0 logger::writeToCrashLog(char const*)
FUNC 2edc0 34 0 logger::write(char const*, unsigned int)
FUNC 2edf4 158 0 google_breakpad::WriteMicrodump(int, void const*, unsigned int, std::__ndk1::list<google_breakpad::MappingEntry, std::__ndk1::allocator<google_breakpad::MappingEntry> > const&, bool, unsigned int, bool, google_breakpad::MicrodumpExtraInfo const&)
FUNC 2ef4c 18 0 google_breakpad::LinuxDumper::set_crash_thread(int)
FUNC 2ef64 dc 0 (anonymous namespace)::MicrodumpWriter::MicrodumpWriter(google_breakpad::ExceptionHandler::CrashContext const*, std::__ndk1::list<google_breakpad::MappingEntry, std::__ndk1::allocator<google_breakpad::MappingEntry> > const&, bool, unsigned int, bool, google_breakpad::MicrodumpExtraInfo const&, google_breakpad::LinuxDumper*)
FUNC 2f040 6c 0 (anonymous namespace)::MicrodumpWriter::Init()
FUNC 2f0ac 98 0 (anonymous namespace)::MicrodumpWriter::Dump()
FUNC 2f144 2a 0 (anonymous namespace)::MicrodumpWriter::~MicrodumpWriter()
FUNC 2f16e 1a 0 google_breakpad::LinuxPtraceDumper::~LinuxPtraceDumper()
FUNC 2f188 24 0 (anonymous namespace)::MicrodumpWriter::Alloc(unsigned int)
FUNC 2f1ac 10 0 google_breakpad::LinuxDumper::allocator()
FUNC 2f1bc b4 0 sys_mmap(void*, unsigned int, int, int, int, long long)
FUNC 2f270 a0 0 sys__mmap2(void*, unsigned int, int, int, int, long)
FUNC 2f310 13c 0 (anonymous namespace)::MicrodumpWriter::CaptureCrashingThreadStack(int)
FUNC 2f44c 1e 0 (anonymous namespace)::MicrodumpWriter::LogLine(char const*)
FUNC 2f46c 4c 0 (anonymous namespace)::MicrodumpWriter::DumpProductInformation()
FUNC 2f4b8 158 0 (anonymous namespace)::MicrodumpWriter::DumpOSInformation()
FUNC 2f610 4c 0 (anonymous namespace)::MicrodumpWriter::DumpProcessType()
FUNC 2f65c 80 0 (anonymous namespace)::MicrodumpWriter::DumpCrashReason()
FUNC 2f6dc 4c 0 (anonymous namespace)::MicrodumpWriter::DumpGPUInformation()
FUNC 2f728 318 0 (anonymous namespace)::MicrodumpWriter::DumpFreeSpace()
FUNC 2fa40 134 0 (anonymous namespace)::MicrodumpWriter::DumpThreadStack()
FUNC 2fb74 78 0 (anonymous namespace)::MicrodumpWriter::DumpCPUState()
FUNC 2fbec 11c 0 (anonymous namespace)::MicrodumpWriter::DumpMappings()
FUNC 2fd08 10 0 google_breakpad::LinuxDumper::crash_thread() const
FUNC 2fd18 28 0 (anonymous namespace)::MicrodumpWriter::LogAppend(char const*)
FUNC 2fd40 24 0 (anonymous namespace)::MicrodumpWriter::LogCommitLine()
FUNC 2fd64 90 0 void (anonymous namespace)::MicrodumpWriter::LogAppend<unsigned char>(unsigned char)
FUNC 2fdf4 1e 0 (anonymous namespace)::MicrodumpWriter::LogAppend(char*)
FUNC 2fe14 88 0 void (anonymous namespace)::MicrodumpWriter::LogAppend<int>(int)
FUNC 2fe9c 10 0 google_breakpad::LinuxDumper::crash_signal() const
FUNC 2feac 88 0 void (anonymous namespace)::MicrodumpWriter::LogAppend<unsigned int>(unsigned int)
FUNC 2ff34 10 0 google_breakpad::LinuxDumper::crash_address() const
FUNC 2ff44 64 0 google_breakpad::LinuxDumper::GetMainThreadIndex() const
FUNC 2ffa8 10 0 google_breakpad::LinuxDumper::mappings()
FUNC 2ffb8 16 0 std::__ndk1::vector<google_breakpad::MappingInfo*, google_breakpad::PageStdAllocator<google_breakpad::MappingInfo*> >::size() const
FUNC 2ffce 1c 0 std::__ndk1::vector<google_breakpad::MappingInfo*, google_breakpad::PageStdAllocator<google_breakpad::MappingInfo*> >::operator[](unsigned int) const
FUNC 2ffea 46 0 (anonymous namespace)::MappingsAreAdjacent(google_breakpad::MappingInfo const&, google_breakpad::MappingInfo const&)
FUNC 30030 a8 0 (anonymous namespace)::NextOrderedMapping(google_breakpad::wasteful_vector<google_breakpad::MappingInfo*> const&, unsigned int)
FUNC 300d8 a 0 std::__ndk1::numeric_limits<unsigned int>::max()
FUNC 300e4 e0 0 (anonymous namespace)::Log2Floor(unsigned long long)
FUNC 301c4 90 0 void (anonymous namespace)::MicrodumpWriter::LogAppend<unsigned short>(unsigned short)
FUNC 30254 52 0 unsigned short (anonymous namespace)::saturated_cast<unsigned short, unsigned int>(unsigned int)
FUNC 302a6 52 0 unsigned char (anonymous namespace)::saturated_cast<unsigned char, unsigned int>(unsigned int)
FUNC 302f8 16 0 std::__ndk1::vector<int, google_breakpad::PageStdAllocator<int> >::size() const
FUNC 3030e 1c 0 std::__ndk1::vector<int, google_breakpad::PageStdAllocator<int> >::operator[](unsigned int) const
FUNC 3032a 32 0 (anonymous namespace)::MappingLessThan(google_breakpad::MappingInfo const*, google_breakpad::MappingInfo const*)
FUNC 3035c 6 0 std::__ndk1::__libcpp_numeric_limits<unsigned int, true>::max()
FUNC 30362 a 0 std::__ndk1::numeric_limits<unsigned short>::max()
FUNC 3036c a 0 std::__ndk1::numeric_limits<unsigned short>::min()
FUNC 30376 6 0 std::__ndk1::__libcpp_numeric_limits<unsigned short, true>::max()
FUNC 3037c 4 0 std::__ndk1::__libcpp_numeric_limits<unsigned short, true>::min()
FUNC 30380 a 0 std::__ndk1::numeric_limits<unsigned char>::max()
FUNC 3038a a 0 std::__ndk1::numeric_limits<unsigned char>::min()
FUNC 30394 4 0 std::__ndk1::__libcpp_numeric_limits<unsigned char, true>::max()
FUNC 30398 4 0 std::__ndk1::__libcpp_numeric_limits<unsigned char, true>::min()
FUNC 3039c 52 0 (anonymous namespace)::MicrodumpWriter::LogAppend(void const*, unsigned int)
FUNC 303f0 d4 0 (anonymous namespace)::MicrodumpWriter::HaveMappingInfo(google_breakpad::MappingInfo const&)
FUNC 304c4 268 0 (anonymous namespace)::MicrodumpWriter::DumpModule(google_breakpad::MappingInfo const&, bool, unsigned int, unsigned char const*)
FUNC 3072c 1a 0 std::__ndk1::list<google_breakpad::MappingEntry, std::__ndk1::allocator<google_breakpad::MappingEntry> >::begin() const
FUNC 30746 22 0 std::__ndk1::operator!=(std::__ndk1::__list_const_iterator<google_breakpad::MappingEntry, void*> const&, std::__ndk1::__list_const_iterator<google_breakpad::MappingEntry, void*> const&)
FUNC 30768 1a 0 std::__ndk1::list<google_breakpad::MappingEntry, std::__ndk1::allocator<google_breakpad::MappingEntry> >::end() const
FUNC 30782 1e 0 std::__ndk1::__list_const_iterator<google_breakpad::MappingEntry, void*>::operator->() const
FUNC 307a0 14 0 std::__ndk1::__list_const_iterator<google_breakpad::MappingEntry, void*>::operator++()
FUNC 307b4 88 0 google_breakpad::auto_wasteful_vector<unsigned char, 20u>::auto_wasteful_vector(google_breakpad::PageAllocator*)
FUNC 3083c 1bc 0 std::__ndk1::vector<unsigned char, google_breakpad::PageStdAllocator<unsigned char> >::insert<const unsigned char *>
FUNC 309f8 1e 0 std::__ndk1::vector<unsigned char, google_breakpad::PageStdAllocator<unsigned char> >::end()
FUNC 30a16 32 0 std::__ndk1::__wrap_iter<const unsigned char *>::__wrap_iter<unsigned char *>
FUNC 30a48 1a 0 std::__ndk1::vector<unsigned char, google_breakpad::PageStdAllocator<unsigned char> >::operator[](unsigned int)
FUNC 30a62 14 0 std::__ndk1::vector<unsigned char, google_breakpad::PageStdAllocator<unsigned char> >::size() const
FUNC 30a76 1a 0 google_breakpad::auto_wasteful_vector<unsigned char, 20u>::~auto_wasteful_vector()
FUNC 30a90 3e 0 google_breakpad::PageStdAllocator<unsigned char>::PageStdAllocator(google_breakpad::PageAllocator&, unsigned char*, unsigned int)
FUNC 30ad0 60 0 google_breakpad::wasteful_vector<unsigned char>::wasteful_vector(google_breakpad::PageStdAllocator<unsigned char>)
FUNC 30b30 9c 0 std::__ndk1::vector<unsigned char, google_breakpad::PageStdAllocator<unsigned char> >::reserve(unsigned int)
FUNC 30bcc 1a 0 google_breakpad::wasteful_vector<unsigned char>::~wasteful_vector()
FUNC 30be6 e 0 std::__ndk1::allocator<unsigned char>::allocator()
FUNC 30bf4 2a 0 std::__ndk1::vector<unsigned char, google_breakpad::PageStdAllocator<unsigned char> >::vector(google_breakpad::PageStdAllocator<unsigned char> const&)
FUNC 30c20 60 0 std::__ndk1::__vector_base<unsigned char, google_breakpad::PageStdAllocator<unsigned char> >::__vector_base(google_breakpad::PageStdAllocator<unsigned char> const&)
FUNC 30c80 54 0 std::__ndk1::__compressed_pair<unsigned char*, google_breakpad::PageStdAllocator<unsigned char> >::__compressed_pair<decltype(nullptr), google_breakpad::PageStdAllocator<unsigned char> const&>(decltype(nullptr)&&, google_breakpad::PageStdAllocator<unsigned char> const&)
FUNC 30cd4 2c 0 std::__ndk1::__compressed_pair_elem<unsigned char*, 0, false>::__compressed_pair_elem<decltype(nullptr), void>(decltype(nullptr)&&)
FUNC 30d00 e 0 google_breakpad::PageStdAllocator<unsigned char> const& std::__ndk1::forward<google_breakpad::PageStdAllocator<unsigned char> const&>(std::__ndk1::remove_reference<google_breakpad::PageStdAllocator<unsigned char> const&>::type&)
FUNC 30d0e 32 0 std::__ndk1::__compressed_pair_elem<google_breakpad::PageStdAllocator<unsigned char>, 1, false>::__compressed_pair_elem<google_breakpad::PageStdAllocator<unsigned char> const&, void>(google_breakpad::PageStdAllocator<unsigned char> const&)
FUNC 30d40 16 0 std::__ndk1::vector<unsigned char, google_breakpad::PageStdAllocator<unsigned char> >::capacity() const
FUNC 30d56 18 0 std::__ndk1::__vector_base<unsigned char, google_breakpad::PageStdAllocator<unsigned char> >::__alloc()
FUNC 30d70 b4 0 std::__ndk1::__split_buffer<unsigned char, google_breakpad::PageStdAllocator<unsigned char>&>::__split_buffer(unsigned int, unsigned int, google_breakpad::PageStdAllocator<unsigned char>&)
FUNC 30e24 90 0 std::__ndk1::vector<unsigned char, google_breakpad::PageStdAllocator<unsigned char> >::__swap_out_circular_buffer(std::__ndk1::__split_buffer<unsigned char, google_breakpad::PageStdAllocator<unsigned char>&>&)
FUNC 30eb4 54 0 std::__ndk1::__split_buffer<unsigned char, google_breakpad::PageStdAllocator<unsigned char>&>::~__split_buffer()
FUNC 30f08 24 0 std::__ndk1::__vector_base<unsigned char, google_breakpad::PageStdAllocator<unsigned char> >::capacity() const
FUNC 30f2c 18 0 std::__ndk1::__vector_base<unsigned char, google_breakpad::PageStdAllocator<unsigned char> >::__end_cap() const
FUNC 30f44 16 0 std::__ndk1::__compressed_pair<unsigned char*, google_breakpad::PageStdAllocator<unsigned char> >::first() const
FUNC 30f5a e 0 std::__ndk1::__compressed_pair_elem<unsigned char*, 0, false>::__get() const
FUNC 30f68 18 0 std::__ndk1::__compressed_pair<unsigned char*, google_breakpad::PageStdAllocator<unsigned char> >::second()
FUNC 30f80 e 0 std::__ndk1::__compressed_pair_elem<google_breakpad::PageStdAllocator<unsigned char>, 1, false>::__get()
FUNC 30f8e 54 0 std::__ndk1::__compressed_pair<unsigned char*, google_breakpad::PageStdAllocator<unsigned char>&>::__compressed_pair<decltype(nullptr), google_breakpad::PageStdAllocator<unsigned char>&>(decltype(nullptr)&&, google_breakpad::PageStdAllocator<unsigned char>&)
FUNC 30fe2 24 0 std::__ndk1::allocator_traits<google_breakpad::PageStdAllocator<unsigned char> >::allocate(google_breakpad::PageStdAllocator<unsigned char>&, unsigned int)
FUNC 31006 18 0 std::__ndk1::__split_buffer<unsigned char, google_breakpad::PageStdAllocator<unsigned char>&>::__alloc()
FUNC 3101e 18 0 std::__ndk1::__split_buffer<unsigned char, google_breakpad::PageStdAllocator<unsigned char>&>::__end_cap()
FUNC 31036 e 0 google_breakpad::PageStdAllocator<unsigned char>& std::__ndk1::forward<google_breakpad::PageStdAllocator<unsigned char>&>(std::__ndk1::remove_reference<google_breakpad::PageStdAllocator<unsigned char>&>::type&)
FUNC 31044 28 0 std::__ndk1::__compressed_pair_elem<google_breakpad::PageStdAllocator<unsigned char>&, 1, false>::__compressed_pair_elem<google_breakpad::PageStdAllocator<unsigned char>&, void>(google_breakpad::PageStdAllocator<unsigned char>&)
FUNC 3106c 4a 0 google_breakpad::PageStdAllocator<unsigned char>::allocate(unsigned int, void const*)
FUNC 310b6 18 0 std::__ndk1::__compressed_pair<unsigned char*, google_breakpad::PageStdAllocator<unsigned char>&>::second()
FUNC 310ce 10 0 std::__ndk1::__compressed_pair_elem<google_breakpad::PageStdAllocator<unsigned char>&, 1, false>::__get()
FUNC 310de 16 0 std::__ndk1::__compressed_pair<unsigned char*, google_breakpad::PageStdAllocator<unsigned char>&>::first()
FUNC 310f4 e 0 std::__ndk1::__compressed_pair_elem<unsigned char*, 0, false>::__get()
FUNC 31102 6c 0 std::__ndk1::vector<unsigned char, google_breakpad::PageStdAllocator<unsigned char> >::__annotate_delete() const
FUNC 3116e 68 0 void std::__ndk1::allocator_traits<google_breakpad::PageStdAllocator<unsigned char> >::__construct_backward<unsigned char*>(google_breakpad::PageStdAllocator<unsigned char>&, unsigned char*, unsigned char*, unsigned char*&)
FUNC 311d8 5c 0 std::__ndk1::swap<unsigned char *>
FUNC 31234 18 0 std::__ndk1::__vector_base<unsigned char, google_breakpad::PageStdAllocator<unsigned char> >::__end_cap()
FUNC 3124c 68 0 std::__ndk1::vector<unsigned char, google_breakpad::PageStdAllocator<unsigned char> >::__annotate_new(unsigned int) const
FUNC 312b4 c 0 std::__ndk1::vector<unsigned char, google_breakpad::PageStdAllocator<unsigned char> >::__invalidate_all_iterators()
FUNC 312c0 34 0 std::__ndk1::vector<unsigned char, google_breakpad::PageStdAllocator<unsigned char> >::__annotate_contiguous_container(void const*, void const*, void const*, void const*) const
FUNC 312f4 18 0 std::__ndk1::vector<unsigned char, google_breakpad::PageStdAllocator<unsigned char> >::data() const
FUNC 3130c e 0 unsigned char* std::__ndk1::__to_raw_pointer<unsigned char>(unsigned char*)
FUNC 3131a 3e 0 void std::__ndk1::allocator_traits<google_breakpad::PageStdAllocator<unsigned char> >::construct<unsigned char, unsigned char>(google_breakpad::PageStdAllocator<unsigned char>&, unsigned char*, unsigned char&&)
FUNC 31358 16 0 std::__ndk1::move_if_noexcept<unsigned char>
FUNC 3136e 3e 0 void std::__ndk1::allocator_traits<google_breakpad::PageStdAllocator<unsigned char> >::__construct<unsigned char, unsigned char>(std::__ndk1::integral_constant<bool, true>, google_breakpad::PageStdAllocator<unsigned char>&, unsigned char*, unsigned char&&)
FUNC 313ac e 0 unsigned char&& std::__ndk1::forward<unsigned char>(std::__ndk1::remove_reference<unsigned char>::type&)
FUNC 313ba 32 0 void std::__ndk1::allocator<unsigned char>::construct<unsigned char, unsigned char>(unsigned char*, unsigned char&&)
FUNC 313ec e 0 std::__ndk1::remove_reference<unsigned char&>::type&& std::__ndk1::move<unsigned char&>(unsigned char&)
FUNC 313fa e 0 std::__ndk1::remove_reference<unsigned char*&>::type&& std::__ndk1::move<unsigned char*&>(unsigned char*&)
FUNC 31408 16 0 std::__ndk1::__compressed_pair<unsigned char*, google_breakpad::PageStdAllocator<unsigned char> >::first()
FUNC 3141e 1a 0 std::__ndk1::__split_buffer<unsigned char, google_breakpad::PageStdAllocator<unsigned char>&>::clear()
FUNC 31438 32 0 std::__ndk1::allocator_traits<google_breakpad::PageStdAllocator<unsigned char> >::deallocate(google_breakpad::PageStdAllocator<unsigned char>&, unsigned char*, unsigned int)
FUNC 3146a 24 0 std::__ndk1::__split_buffer<unsigned char, google_breakpad::PageStdAllocator<unsigned char>&>::capacity() const
FUNC 3148e 1e 0 std::__ndk1::__split_buffer<unsigned char, google_breakpad::PageStdAllocator<unsigned char>&>::__destruct_at_end(unsigned char*)
FUNC 314ac 5a 0 std::__ndk1::__split_buffer<unsigned char, google_breakpad::PageStdAllocator<unsigned char>&>::__destruct_at_end(unsigned char*, std::__ndk1::integral_constant<bool, false>)
FUNC 31506 1e 0 void std::__ndk1::allocator_traits<google_breakpad::PageStdAllocator<unsigned char> >::destroy<unsigned char>(google_breakpad::PageStdAllocator<unsigned char>&, unsigned char*)
FUNC 31524 1e 0 void std::__ndk1::allocator_traits<google_breakpad::PageStdAllocator<unsigned char> >::__destroy<unsigned char>(std::__ndk1::integral_constant<bool, true>, google_breakpad::PageStdAllocator<unsigned char>&, unsigned char*)
FUNC 31542 12 0 std::__ndk1::allocator<unsigned char>::destroy(unsigned char*)
FUNC 31554 20 0 google_breakpad::PageStdAllocator<unsigned char>::deallocate(unsigned char*, unsigned int)
FUNC 31574 18 0 std::__ndk1::__split_buffer<unsigned char, google_breakpad::PageStdAllocator<unsigned char>&>::__end_cap() const
FUNC 3158c 16 0 std::__ndk1::__compressed_pair<unsigned char*, google_breakpad::PageStdAllocator<unsigned char>&>::first() const
FUNC 315a2 34 0 std::__ndk1::vector<unsigned char, google_breakpad::PageStdAllocator<unsigned char> >::~vector()
FUNC 315d6 4e 0 std::__ndk1::__vector_base<unsigned char, google_breakpad::PageStdAllocator<unsigned char> >::~__vector_base()
FUNC 31624 1a 0 std::__ndk1::__vector_base<unsigned char, google_breakpad::PageStdAllocator<unsigned char> >::clear()
FUNC 3163e 62 0 std::__ndk1::__vector_base<unsigned char, google_breakpad::PageStdAllocator<unsigned char> >::__destruct_at_end(unsigned char*)
FUNC 316a0 2a 0 decltype ((({parm#1}.base)())-(({parm#2}.base)())) std::__ndk1::operator-<unsigned char const*, unsigned char*>(std::__ndk1::__wrap_iter<unsigned char const*> const&, std::__ndk1::__wrap_iter<unsigned char*> const&)
FUNC 316ca 1e 0 std::__ndk1::vector<unsigned char, google_breakpad::PageStdAllocator<unsigned char> >::begin()
FUNC 316e8 1e 0 std::__ndk1::iterator_traits<unsigned char const*>::difference_type std::__ndk1::distance<unsigned char const*>(unsigned char const*, unsigned char const*)
FUNC 31706 1e 0 void std::__ndk1::advance<unsigned char const*>(unsigned char const*&, std::__ndk1::iterator_traits<unsigned char const*>::difference_type)
FUNC 31724 7c 0 std::__ndk1::vector<unsigned char, google_breakpad::PageStdAllocator<unsigned char> >::__construct_at_end<const unsigned char *>
FUNC 317a0 22 0 std::__ndk1::vector<unsigned char, google_breakpad::PageStdAllocator<unsigned char> >::__RAII_IncreaseAnnotator::__RAII_IncreaseAnnotator(std::__ndk1::vector<unsigned char, google_breakpad::PageStdAllocator<unsigned char> > const&, unsigned int)
FUNC 317c2 98 0 std::__ndk1::vector<unsigned char, google_breakpad::PageStdAllocator<unsigned char> >::__move_range(unsigned char*, unsigned char*, unsigned char*)
FUNC 3185a c 0 std::__ndk1::vector<unsigned char, google_breakpad::PageStdAllocator<unsigned char> >::__RAII_IncreaseAnnotator::__done()
FUNC 31866 48 0 unsigned char* std::__ndk1::copy<unsigned char const*, unsigned char*>(unsigned char const*, unsigned char const*, unsigned char*)
FUNC 318b0 8c 0 std::__ndk1::vector<unsigned char, google_breakpad::PageStdAllocator<unsigned char> >::__recommend(unsigned int) const
FUNC 3193c 64 0 std::__ndk1::__split_buffer<unsigned char, google_breakpad::PageStdAllocator<unsigned char> &>::__construct_at_end<const unsigned char *>
FUNC 319a0 b4 0 std::__ndk1::vector<unsigned char, google_breakpad::PageStdAllocator<unsigned char> >::__swap_out_circular_buffer(std::__ndk1::__split_buffer<unsigned char, google_breakpad::PageStdAllocator<unsigned char>&>&, unsigned char*)
FUNC 31a54 48 0 std::__ndk1::vector<unsigned char, google_breakpad::PageStdAllocator<unsigned char> >::__make_iter(unsigned char*)
FUNC 31a9c 10 0 std::__ndk1::__wrap_iter<unsigned char const*>::base() const
FUNC 31aac 10 0 std::__ndk1::__wrap_iter<unsigned char*>::base() const
FUNC 31abc 18 0 std::__ndk1::iterator_traits<unsigned char const*>::difference_type std::__ndk1::__distance<unsigned char const*>(unsigned char const*, unsigned char const*, std::__ndk1::random_access_iterator_tag)
FUNC 31ad4 1e 0 void std::__ndk1::__advance<unsigned char const*>(unsigned char const*&, std::__ndk1::iterator_traits<unsigned char const*>::difference_type, std::__ndk1::random_access_iterator_tag)
FUNC 31af2 60 0 void std::__ndk1::allocator_traits<google_breakpad::PageStdAllocator<unsigned char> >::__construct_range_forward<unsigned char const*, unsigned char*>(google_breakpad::PageStdAllocator<unsigned char>&, unsigned char const*, unsigned char const*, unsigned char*&)
FUNC 31b52 3e 0 void std::__ndk1::allocator_traits<google_breakpad::PageStdAllocator<unsigned char> >::construct<unsigned char, unsigned char const&>(google_breakpad::PageStdAllocator<unsigned char>&, unsigned char*, unsigned char const&)
FUNC 31b90 3e 0 void std::__ndk1::allocator_traits<google_breakpad::PageStdAllocator<unsigned char> >::__construct<unsigned char, unsigned char const&>(std::__ndk1::integral_constant<bool, true>, google_breakpad::PageStdAllocator<unsigned char>&, unsigned char*, unsigned char const&)
FUNC 31bce e 0 unsigned char const& std::__ndk1::forward<unsigned char const&>(std::__ndk1::remove_reference<unsigned char const&>::type&)
FUNC 31bdc 32 0 void std::__ndk1::allocator<unsigned char>::construct<unsigned char, unsigned char const&>(unsigned char*, unsigned char const&)
FUNC 31c0e 48 0 unsigned char* std::__ndk1::move_backward<unsigned char*, unsigned char*>(unsigned char*, unsigned char*, unsigned char*)
FUNC 31c56 46 0 std::__ndk1::__move_backward<unsigned char, unsigned char>
FUNC 31c9c e 0 unsigned char* std::__ndk1::__unwrap_iter<unsigned char*>(unsigned char*)
FUNC 31caa 42 0 std::__ndk1::__copy<const unsigned char, unsigned char>
FUNC 31cec e 0 unsigned char const* std::__ndk1::__unwrap_iter<unsigned char const*>(unsigned char const*)
FUNC 31cfc 64 0 std::__ndk1::vector<unsigned char, google_breakpad::PageStdAllocator<unsigned char> >::max_size() const
FUNC 31d60 16 0 std::__ndk1::allocator_traits<google_breakpad::PageStdAllocator<unsigned char> >::max_size(google_breakpad::PageStdAllocator<unsigned char> const&)
FUNC 31d76 18 0 std::__ndk1::__vector_base<unsigned char, google_breakpad::PageStdAllocator<unsigned char> >::__alloc() const
FUNC 31d8e 16 0 std::__ndk1::allocator_traits<google_breakpad::PageStdAllocator<unsigned char> >::__max_size(std::__ndk1::integral_constant<bool, true>, google_breakpad::PageStdAllocator<unsigned char> const&)
FUNC 31da4 10 0 std::__ndk1::allocator<unsigned char>::max_size() const
FUNC 31db4 18 0 std::__ndk1::__compressed_pair<unsigned char*, google_breakpad::PageStdAllocator<unsigned char> >::second() const
FUNC 31dcc e 0 std::__ndk1::__compressed_pair_elem<google_breakpad::PageStdAllocator<unsigned char>, 1, false>::__get() const
FUNC 31dda 6a 0 void std::__ndk1::allocator_traits<google_breakpad::PageStdAllocator<unsigned char> >::__construct_forward<unsigned char*>(google_breakpad::PageStdAllocator<unsigned char>&, unsigned char*, unsigned char*, unsigned char*&)
FUNC 31e44 18 0 std::__ndk1::__wrap_iter<unsigned char*>::__wrap_iter(unsigned char*)
FUNC 31e5c 48 0 std::__ndk1::__list_imp<google_breakpad::MappingEntry, std::__ndk1::allocator<google_breakpad::MappingEntry> >::begin() const
FUNC 31ea4 18 0 std::__ndk1::__list_const_iterator<google_breakpad::MappingEntry, void*>::__list_const_iterator(std::__ndk1::__list_node_base<google_breakpad::MappingEntry, void*>*)
FUNC 31ebc 22 0 std::__ndk1::operator==(std::__ndk1::__list_const_iterator<google_breakpad::MappingEntry, void*> const&, std::__ndk1::__list_const_iterator<google_breakpad::MappingEntry, void*> const&)
FUNC 31ee0 48 0 std::__ndk1::__list_imp<google_breakpad::MappingEntry, std::__ndk1::allocator<google_breakpad::MappingEntry> >::end() const
FUNC 31f28 16 0 std::__ndk1::pointer_traits<google_breakpad::MappingEntry const*>::pointer_to(google_breakpad::MappingEntry const&)
FUNC 31f3e e 0 google_breakpad::MappingEntry const* std::__ndk1::addressof<google_breakpad::MappingEntry const>(google_breakpad::MappingEntry const&)
FUNC 31f4c 160 0 google_breakpad::LinuxDumper::LinuxDumper(int, char const*)
FUNC 320ac 1a 0 std::__ndk1::vector<unsigned long long, std::__ndk1::allocator<unsigned long long> >::vector()
FUNC 320c8 7c 0 google_breakpad::wasteful_vector<int>::wasteful_vector(google_breakpad::PageAllocator*, unsigned int)
FUNC 32144 7c 0 google_breakpad::wasteful_vector<google_breakpad::MappingInfo*>::wasteful_vector(google_breakpad::PageAllocator*, unsigned int)
FUNC 321c0 7c 0 google_breakpad::wasteful_vector<unsigned int>::wasteful_vector(google_breakpad::PageAllocator*, unsigned int)
FUNC 3223c 54 0 std::__ndk1::vector<unsigned int, google_breakpad::PageStdAllocator<unsigned int> >::resize(unsigned int)
FUNC 32290 1a 0 google_breakpad::wasteful_vector<unsigned int>::~wasteful_vector()
FUNC 322aa 1a 0 google_breakpad::wasteful_vector<google_breakpad::MappingInfo*>::~wasteful_vector()
FUNC 322c4 1a 0 google_breakpad::wasteful_vector<int>::~wasteful_vector()
FUNC 322de 34 0 std::__ndk1::vector<unsigned long long, std::__ndk1::allocator<unsigned long long> >::~vector()
FUNC 32314 54 0 google_breakpad::LinuxDumper::~LinuxDumper()
FUNC 32368 a 0 google_breakpad::LinuxDumper::~LinuxDumper()
FUNC 32372 46 0 google_breakpad::LinuxDumper::Init()
FUNC 323b8 108 0 google_breakpad::LinuxDumper::ReadAuxv()
FUNC 324c0 18 0 google_breakpad::LinuxDumper::LateInit()
FUNC 324d8 cc 0 google_breakpad::LinuxDumper::LatePostprocessMappings()
FUNC 325a4 254 0 google_breakpad::LinuxDumper::ElfFileIdentifierForMapping(google_breakpad::MappingInfo const&, bool, unsigned int, google_breakpad::wasteful_vector<unsigned char>&)
FUNC 327f8 2c 0 IsMappedFileOpenUnsafe(google_breakpad::MappingInfo const&)
FUNC 32824 42 0 sys_getpid()
FUNC 32866 64 0 google_breakpad::LinuxDumper::GetMappingAbsolutePath(google_breakpad::MappingInfo const&, char*) const
FUNC 328cc 188 0 google_breakpad::LinuxDumper::HandleDeletedFileInMapping(char*) const
FUNC 32a54 16 0 google_breakpad::MemoryMappedFile::data() const
FUNC 32a6a 16 0 google_breakpad::MemoryMappedFile::size() const
FUNC 32a80 1c 0 std::__ndk1::vector<google_breakpad::MappingInfo*, google_breakpad::PageStdAllocator<google_breakpad::MappingInfo*> >::operator[](unsigned int)
FUNC 32a9c 36 0 google_breakpad::LinuxDumper::SetCrashInfoFromSigInfo(siginfo const&)
FUNC 32ad2 18 0 google_breakpad::LinuxDumper::set_crash_address(unsigned int)
FUNC 32aea 18 0 google_breakpad::LinuxDumper::set_crash_signal(int)
FUNC 32b02 18 0 google_breakpad::LinuxDumper::set_crash_signal_code(int)
FUNC 32b1c 1d4 0 google_breakpad::LinuxDumper::GetCrashSignalString() const
FUNC 32cf0 158 0 google_breakpad::LinuxDumper::GetMappingEffectiveNameAndPath(google_breakpad::MappingInfo const&, char*, unsigned int, char*, unsigned int)
FUNC 32e48 118 0 google_breakpad::(anonymous namespace)::ElfFileSoName(google_breakpad::LinuxDumper const&, google_breakpad::MappingInfo const&, char*, unsigned int)
FUNC 32f60 6a 0 sys_open(char const*, int, int)
FUNC 32fca 6a 0 sys_read(int, void*, unsigned int)
FUNC 33034 1c 0 std::__ndk1::vector<unsigned int, google_breakpad::PageStdAllocator<unsigned int> >::operator[](unsigned int)
FUNC 33050 4e 0 sys_close(int)
FUNC 330a0 3ac 0 google_breakpad::LinuxDumper::EnumerateMappings()
FUNC 3344c 1e 0 operator new(unsigned int, google_breakpad::PageAllocator&)
FUNC 3346a 1e 0 google_breakpad::LineReader::LineReader(int)
FUNC 33488 158 0 google_breakpad::LineReader::GetNextLine(char const**, unsigned int*)
FUNC 335e0 1a 0 std::__ndk1::vector<google_breakpad::MappingInfo*, google_breakpad::PageStdAllocator<google_breakpad::MappingInfo*> >::empty() const
FUNC 335fa 12 0 std::__ndk1::vector<google_breakpad::MappingInfo*, google_breakpad::PageStdAllocator<google_breakpad::MappingInfo*> >::back()
FUNC 3360c 68 0 google_breakpad::LineReader::PopLine(unsigned int)
FUNC 33674 98 0 std::__ndk1::vector<google_breakpad::MappingInfo*, google_breakpad::PageStdAllocator<google_breakpad::MappingInfo*> >::push_back(google_breakpad::MappingInfo* const&)
FUNC 3370c 60 0 google_breakpad::LinuxDumper::GetLoadedElfHeader(unsigned int, elf32_hdr*)
FUNC 3376c 104 0 google_breakpad::LinuxDumper::ParseLoadedElfProgramHeaders(elf32_hdr*, unsigned int, unsigned int*, unsigned int*, unsigned int*)
FUNC 33870 dc 0 google_breakpad::LinuxDumper::HasAndroidPackedRelocations(unsigned int, unsigned int, unsigned int)
FUNC 3394c a0 0 google_breakpad::LinuxDumper::GetEffectiveLoadBias(elf32_hdr*, unsigned int)
FUNC 339ec 98 0 google_breakpad::LinuxDumper::GetStackInfo(void const**, unsigned int*, unsigned int)
FUNC 33a84 9a 0 google_breakpad::LinuxDumper::FindMapping(void const*) const
FUNC 33b20 24c 0 google_breakpad::LinuxDumper::SanitizeStackCopy(unsigned char*, unsigned int, unsigned int, unsigned int)
FUNC 33d6c 96 0 google_breakpad::LinuxDumper::FindMappingNoBias(unsigned int) const
FUNC 33e02 3e 0 google_breakpad::(anonymous namespace)::MappingContainsAddress(google_breakpad::MappingInfo const&, unsigned int)
FUNC 33e40 d0 0 google_breakpad::LinuxDumper::StackHasPointerToMapping(unsigned char const*, unsigned int, unsigned int, google_breakpad::MappingInfo const&)
FUNC 33f10 24 0 bool google_breakpad::SafeReadLink<255u>(char const*, char (&) [255u])
FUNC 33f34 5a 0 sys_stat(char const*, kernel_stat*)
FUNC 33f8e 34 0 std::__ndk1::vector<unsigned int, google_breakpad::PageStdAllocator<unsigned int> >::~vector()
FUNC 33fc2 72 0 std::__ndk1::vector<unsigned int, google_breakpad::PageStdAllocator<unsigned int> >::__annotate_delete() const
FUNC 34034 4e 0 std::__ndk1::__vector_base<unsigned int, google_breakpad::PageStdAllocator<unsigned int> >::~__vector_base()
FUNC 34082 34 0 std::__ndk1::vector<unsigned int, google_breakpad::PageStdAllocator<unsigned int> >::__annotate_contiguous_container(void const*, void const*, void const*, void const*) const
FUNC 340b6 18 0 std::__ndk1::vector<unsigned int, google_breakpad::PageStdAllocator<unsigned int> >::data() const
FUNC 340ce 16 0 std::__ndk1::vector<unsigned int, google_breakpad::PageStdAllocator<unsigned int> >::capacity() const
FUNC 340e4 16 0 std::__ndk1::vector<unsigned int, google_breakpad::PageStdAllocator<unsigned int> >::size() const
FUNC 340fa e 0 unsigned int* std::__ndk1::__to_raw_pointer<unsigned int>(unsigned int*)
FUNC 34108 26 0 std::__ndk1::__vector_base<unsigned int, google_breakpad::PageStdAllocator<unsigned int> >::capacity() const
FUNC 3412e 18 0 std::__ndk1::__vector_base<unsigned int, google_breakpad::PageStdAllocator<unsigned int> >::__end_cap() const
FUNC 34146 16 0 std::__ndk1::__compressed_pair<unsigned int*, google_breakpad::PageStdAllocator<unsigned int> >::first() const
FUNC 3415c e 0 std::__ndk1::__compressed_pair_elem<unsigned int*, 0, false>::__get() const
FUNC 3416a 1a 0 std::__ndk1::__vector_base<unsigned int, google_breakpad::PageStdAllocator<unsigned int> >::clear()
FUNC 34184 32 0 std::__ndk1::allocator_traits<google_breakpad::PageStdAllocator<unsigned int> >::deallocate(google_breakpad::PageStdAllocator<unsigned int>&, unsigned int*, unsigned int)
FUNC 341b6 18 0 std::__ndk1::__vector_base<unsigned int, google_breakpad::PageStdAllocator<unsigned int> >::__alloc()
FUNC 341ce 62 0 std::__ndk1::__vector_base<unsigned int, google_breakpad::PageStdAllocator<unsigned int> >::__destruct_at_end(unsigned int*)
FUNC 34230 1e 0 void std::__ndk1::allocator_traits<google_breakpad::PageStdAllocator<unsigned int> >::destroy<unsigned int>(google_breakpad::PageStdAllocator<unsigned int>&, unsigned int*)
FUNC 3424e 1e 0 void std::__ndk1::allocator_traits<google_breakpad::PageStdAllocator<unsigned int> >::__destroy<unsigned int>(std::__ndk1::integral_constant<bool, true>, google_breakpad::PageStdAllocator<unsigned int>&, unsigned int*)
FUNC 3426c 12 0 std::__ndk1::allocator<unsigned int>::destroy(unsigned int*)
FUNC 3427e 20 0 google_breakpad::PageStdAllocator<unsigned int>::deallocate(unsigned int*, unsigned int)
FUNC 3429e 18 0 std::__ndk1::__compressed_pair<unsigned int*, google_breakpad::PageStdAllocator<unsigned int> >::second()
FUNC 342b6 e 0 std::__ndk1::__compressed_pair_elem<google_breakpad::PageStdAllocator<unsigned int>, 1, false>::__get()
FUNC 342c4 34 0 std::__ndk1::vector<google_breakpad::MappingInfo*, google_breakpad::PageStdAllocator<google_breakpad::MappingInfo*> >::~vector()
FUNC 342f8 72 0 std::__ndk1::vector<google_breakpad::MappingInfo*, google_breakpad::PageStdAllocator<google_breakpad::MappingInfo*> >::__annotate_delete() const
FUNC 3436a 4e 0 std::__ndk1::__vector_base<google_breakpad::MappingInfo*, google_breakpad::PageStdAllocator<google_breakpad::MappingInfo*> >::~__vector_base()
FUNC 343b8 34 0 std::__ndk1::vector<google_breakpad::MappingInfo*, google_breakpad::PageStdAllocator<google_breakpad::MappingInfo*> >::__annotate_contiguous_container(void const*, void const*, void const*, void const*) const
FUNC 343ec 18 0 std::__ndk1::vector<google_breakpad::MappingInfo*, google_breakpad::PageStdAllocator<google_breakpad::MappingInfo*> >::data() const
FUNC 34404 16 0 std::__ndk1::vector<google_breakpad::MappingInfo*, google_breakpad::PageStdAllocator<google_breakpad::MappingInfo*> >::capacity() const
FUNC 3441a e 0 google_breakpad::MappingInfo** std::__ndk1::__to_raw_pointer<google_breakpad::MappingInfo*>(google_breakpad::MappingInfo**)
FUNC 34428 26 0 std::__ndk1::__vector_base<google_breakpad::MappingInfo*, google_breakpad::PageStdAllocator<google_breakpad::MappingInfo*> >::capacity() const
FUNC 3444e 18 0 std::__ndk1::__vector_base<google_breakpad::MappingInfo*, google_breakpad::PageStdAllocator<google_breakpad::MappingInfo*> >::__end_cap() const
FUNC 34466 16 0 std::__ndk1::__compressed_pair<google_breakpad::MappingInfo**, google_breakpad::PageStdAllocator<google_breakpad::MappingInfo*> >::first() const
FUNC 3447c e 0 std::__ndk1::__compressed_pair_elem<google_breakpad::MappingInfo**, 0, false>::__get() const
FUNC 3448a 1a 0 std::__ndk1::__vector_base<google_breakpad::MappingInfo*, google_breakpad::PageStdAllocator<google_breakpad::MappingInfo*> >::clear()
FUNC 344a4 32 0 std::__ndk1::allocator_traits<google_breakpad::PageStdAllocator<google_breakpad::MappingInfo*> >::deallocate(google_breakpad::PageStdAllocator<google_breakpad::MappingInfo*>&, google_breakpad::MappingInfo**, unsigned int)
FUNC 344d6 18 0 std::__ndk1::__vector_base<google_breakpad::MappingInfo*, google_breakpad::PageStdAllocator<google_breakpad::MappingInfo*> >::__alloc()
FUNC 344ee 62 0 std::__ndk1::__vector_base<google_breakpad::MappingInfo*, google_breakpad::PageStdAllocator<google_breakpad::MappingInfo*> >::__destruct_at_end(google_breakpad::MappingInfo**)
FUNC 34550 1e 0 void std::__ndk1::allocator_traits<google_breakpad::PageStdAllocator<google_breakpad::MappingInfo*> >::destroy<google_breakpad::MappingInfo*>(google_breakpad::PageStdAllocator<google_breakpad::MappingInfo*>&, google_breakpad::MappingInfo**)
FUNC 3456e 1e 0 void std::__ndk1::allocator_traits<google_breakpad::PageStdAllocator<google_breakpad::MappingInfo*> >::__destroy<google_breakpad::MappingInfo*>(std::__ndk1::integral_constant<bool, true>, google_breakpad::PageStdAllocator<google_breakpad::MappingInfo*>&, google_breakpad::MappingInfo**)
FUNC 3458c 12 0 std::__ndk1::allocator<google_breakpad::MappingInfo*>::destroy(google_breakpad::MappingInfo**)
FUNC 3459e 20 0 google_breakpad::PageStdAllocator<google_breakpad::MappingInfo*>::deallocate(google_breakpad::MappingInfo**, unsigned int)
FUNC 345be 18 0 std::__ndk1::__compressed_pair<google_breakpad::MappingInfo**, google_breakpad::PageStdAllocator<google_breakpad::MappingInfo*> >::second()
FUNC 345d6 e 0 std::__ndk1::__compressed_pair_elem<google_breakpad::PageStdAllocator<google_breakpad::MappingInfo*>, 1, false>::__get()
FUNC 345e4 34 0 std::__ndk1::vector<int, google_breakpad::PageStdAllocator<int> >::~vector()
FUNC 34618 72 0 std::__ndk1::vector<int, google_breakpad::PageStdAllocator<int> >::__annotate_delete() const
FUNC 3468a 4e 0 std::__ndk1::__vector_base<int, google_breakpad::PageStdAllocator<int> >::~__vector_base()
FUNC 346d8 34 0 std::__ndk1::vector<int, google_breakpad::PageStdAllocator<int> >::__annotate_contiguous_container(void const*, void const*, void const*, void const*) const
FUNC 3470c 18 0 std::__ndk1::vector<int, google_breakpad::PageStdAllocator<int> >::data() const
FUNC 34724 16 0 std::__ndk1::vector<int, google_breakpad::PageStdAllocator<int> >::capacity() const
FUNC 3473a e 0 int* std::__ndk1::__to_raw_pointer<int>(int*)
FUNC 34748 26 0 std::__ndk1::__vector_base<int, google_breakpad::PageStdAllocator<int> >::capacity() const
FUNC 3476e 18 0 std::__ndk1::__vector_base<int, google_breakpad::PageStdAllocator<int> >::__end_cap() const
FUNC 34786 16 0 std::__ndk1::__compressed_pair<int*, google_breakpad::PageStdAllocator<int> >::first() const
FUNC 3479c e 0 std::__ndk1::__compressed_pair_elem<int*, 0, false>::__get() const
FUNC 347aa 1a 0 std::__ndk1::__vector_base<int, google_breakpad::PageStdAllocator<int> >::clear()
FUNC 347c4 32 0 std::__ndk1::allocator_traits<google_breakpad::PageStdAllocator<int> >::deallocate(google_breakpad::PageStdAllocator<int>&, int*, unsigned int)
FUNC 347f6 18 0 std::__ndk1::__vector_base<int, google_breakpad::PageStdAllocator<int> >::__alloc()
FUNC 3480e 62 0 std::__ndk1::__vector_base<int, google_breakpad::PageStdAllocator<int> >::__destruct_at_end(int*)
FUNC 34870 1e 0 void std::__ndk1::allocator_traits<google_breakpad::PageStdAllocator<int> >::destroy<int>(google_breakpad::PageStdAllocator<int>&, int*)
FUNC 3488e 1e 0 void std::__ndk1::allocator_traits<google_breakpad::PageStdAllocator<int> >::__destroy<int>(std::__ndk1::integral_constant<bool, true>, google_breakpad::PageStdAllocator<int>&, int*)
FUNC 348ac 12 0 std::__ndk1::allocator<int>::destroy(int*)
FUNC 348be 20 0 google_breakpad::PageStdAllocator<int>::deallocate(int*, unsigned int)
FUNC 348de 18 0 std::__ndk1::__compressed_pair<int*, google_breakpad::PageStdAllocator<int> >::second()
FUNC 348f6 e 0 std::__ndk1::__compressed_pair_elem<google_breakpad::PageStdAllocator<int>, 1, false>::__get()
FUNC 34904 5a 0 sys_munmap(void*, unsigned int)
FUNC 3495e b4 0 sys_mmap(void*, unsigned int, int, int, int, long long)
FUNC 34a12 a0 0 sys__mmap2(void*, unsigned int, int, int, int, long)
FUNC 34ab2 10 0 google_breakpad::MemoryRange::data() const
FUNC 34ac2 10 0 google_breakpad::MemoryRange::length() const
FUNC 34ad2 2c 0 google_breakpad::PageStdAllocator<int>::PageStdAllocator(google_breakpad::PageAllocator&)
FUNC 34afe 2a 0 std::__ndk1::vector<int, google_breakpad::PageStdAllocator<int> >::vector(google_breakpad::PageStdAllocator<int> const&)
FUNC 34b28 9c 0 std::__ndk1::vector<int, google_breakpad::PageStdAllocator<int> >::reserve(unsigned int)
FUNC 34bc4 e 0 std::__ndk1::allocator<int>::allocator()
FUNC 34bd4 60 0 std::__ndk1::__vector_base<int, google_breakpad::PageStdAllocator<int> >::__vector_base(google_breakpad::PageStdAllocator<int> const&)
FUNC 34c34 54 0 std::__ndk1::__compressed_pair<int*, google_breakpad::PageStdAllocator<int> >::__compressed_pair<decltype(nullptr), google_breakpad::PageStdAllocator<int> const&>(decltype(nullptr)&&, google_breakpad::PageStdAllocator<int> const&)
FUNC 34c88 2c 0 std::__ndk1::__compressed_pair_elem<int*, 0, false>::__compressed_pair_elem<decltype(nullptr), void>(decltype(nullptr)&&)
FUNC 34cb4 e 0 google_breakpad::PageStdAllocator<int> const& std::__ndk1::forward<google_breakpad::PageStdAllocator<int> const&>(std::__ndk1::remove_reference<google_breakpad::PageStdAllocator<int> const&>::type&)
FUNC 34cc2 32 0 std::__ndk1::__compressed_pair_elem<google_breakpad::PageStdAllocator<int>, 1, false>::__compressed_pair_elem<google_breakpad::PageStdAllocator<int> const&, void>(google_breakpad::PageStdAllocator<int> const&)
FUNC 34cf4 b8 0 std::__ndk1::__split_buffer<int, google_breakpad::PageStdAllocator<int>&>::__split_buffer(unsigned int, unsigned int, google_breakpad::PageStdAllocator<int>&)
FUNC 34dac 90 0 std::__ndk1::vector<int, google_breakpad::PageStdAllocator<int> >::__swap_out_circular_buffer(std::__ndk1::__split_buffer<int, google_breakpad::PageStdAllocator<int>&>&)
FUNC 34e3c 54 0 std::__ndk1::__split_buffer<int, google_breakpad::PageStdAllocator<int>&>::~__split_buffer()
FUNC 34e90 54 0 std::__ndk1::__compressed_pair<int*, google_breakpad::PageStdAllocator<int>&>::__compressed_pair<decltype(nullptr), google_breakpad::PageStdAllocator<int>&>(decltype(nullptr)&&, google_breakpad::PageStdAllocator<int>&)
FUNC 34ee4 24 0 std::__ndk1::allocator_traits<google_breakpad::PageStdAllocator<int> >::allocate(google_breakpad::PageStdAllocator<int>&, unsigned int)
FUNC 34f08 18 0 std::__ndk1::__split_buffer<int, google_breakpad::PageStdAllocator<int>&>::__alloc()
FUNC 34f20 18 0 std::__ndk1::__split_buffer<int, google_breakpad::PageStdAllocator<int>&>::__end_cap()
FUNC 34f38 e 0 google_breakpad::PageStdAllocator<int>& std::__ndk1::forward<google_breakpad::PageStdAllocator<int>&>(std::__ndk1::remove_reference<google_breakpad::PageStdAllocator<int>&>::type&)
FUNC 34f46 28 0 std::__ndk1::__compressed_pair_elem<google_breakpad::PageStdAllocator<int>&, 1, false>::__compressed_pair_elem<google_breakpad::PageStdAllocator<int>&, void>(google_breakpad::PageStdAllocator<int>&)
FUNC 34f6e 4c 0 google_breakpad::PageStdAllocator<int>::allocate(unsigned int, void const*)
FUNC 34fba 18 0 std::__ndk1::__compressed_pair<int*, google_breakpad::PageStdAllocator<int>&>::second()
FUNC 34fd2 10 0 std::__ndk1::__compressed_pair_elem<google_breakpad::PageStdAllocator<int>&, 1, false>::__get()
FUNC 34fe2 16 0 std::__ndk1::__compressed_pair<int*, google_breakpad::PageStdAllocator<int>&>::first()
FUNC 34ff8 e 0 std::__ndk1::__compressed_pair_elem<int*, 0, false>::__get()
FUNC 35006 68 0 void std::__ndk1::allocator_traits<google_breakpad::PageStdAllocator<int> >::__construct_backward<int*>(google_breakpad::PageStdAllocator<int>&, int*, int*, int*&)
FUNC 35070 5c 0 std::__ndk1::swap<int *>
FUNC 350cc 18 0 std::__ndk1::__vector_base<int, google_breakpad::PageStdAllocator<int> >::__end_cap()
FUNC 350e4 6e 0 std::__ndk1::vector<int, google_breakpad::PageStdAllocator<int> >::__annotate_new(unsigned int) const
FUNC 35152 c 0 std::__ndk1::vector<int, google_breakpad::PageStdAllocator<int> >::__invalidate_all_iterators()
FUNC 3515e 3e 0 void std::__ndk1::allocator_traits<google_breakpad::PageStdAllocator<int> >::construct<int, int>(google_breakpad::PageStdAllocator<int>&, int*, int&&)
FUNC 3519c 16 0 std::__ndk1::move_if_noexcept<int>
FUNC 351b2 3e 0 void std::__ndk1::allocator_traits<google_breakpad::PageStdAllocator<int> >::__construct<int, int>(std::__ndk1::integral_constant<bool, true>, google_breakpad::PageStdAllocator<int>&, int*, int&&)
FUNC 351f0 32 0 void std::__ndk1::allocator<int>::construct<int, int>(int*, int&&)
FUNC 35222 e 0 std::__ndk1::remove_reference<int&>::type&& std::__ndk1::move<int&>(int&)
FUNC 35230 e 0 std::__ndk1::remove_reference<int*&>::type&& std::__ndk1::move<int*&>(int*&)
FUNC 3523e 16 0 std::__ndk1::__compressed_pair<int*, google_breakpad::PageStdAllocator<int> >::first()
FUNC 35254 1a 0 std::__ndk1::__split_buffer<int, google_breakpad::PageStdAllocator<int>&>::clear()
FUNC 3526e 26 0 std::__ndk1::__split_buffer<int, google_breakpad::PageStdAllocator<int>&>::capacity() const
FUNC 35294 1e 0 std::__ndk1::__split_buffer<int, google_breakpad::PageStdAllocator<int>&>::__destruct_at_end(int*)
FUNC 352b2 5a 0 std::__ndk1::__split_buffer<int, google_breakpad::PageStdAllocator<int>&>::__destruct_at_end(int*, std::__ndk1::integral_constant<bool, false>)
FUNC 3530c 18 0 std::__ndk1::__split_buffer<int, google_breakpad::PageStdAllocator<int>&>::__end_cap() const
FUNC 35324 16 0 std::__ndk1::__compressed_pair<int*, google_breakpad::PageStdAllocator<int>&>::first() const
FUNC 3533a 2c 0 google_breakpad::PageStdAllocator<google_breakpad::MappingInfo*>::PageStdAllocator(google_breakpad::PageAllocator&)
FUNC 35366 2a 0 std::__ndk1::vector<google_breakpad::MappingInfo*, google_breakpad::PageStdAllocator<google_breakpad::MappingInfo*> >::vector(google_breakpad::PageStdAllocator<google_breakpad::MappingInfo*> const&)
FUNC 35390 9c 0 std::__ndk1::vector<google_breakpad::MappingInfo*, google_breakpad::PageStdAllocator<google_breakpad::MappingInfo*> >::reserve(unsigned int)
FUNC 3542c e 0 std::__ndk1::allocator<google_breakpad::MappingInfo*>::allocator()
FUNC 3543c 60 0 std::__ndk1::__vector_base<google_breakpad::MappingInfo*, google_breakpad::PageStdAllocator<google_breakpad::MappingInfo*> >::__vector_base(google_breakpad::PageStdAllocator<google_breakpad::MappingInfo*> const&)
FUNC 3549c 54 0 std::__ndk1::__compressed_pair<google_breakpad::MappingInfo**, google_breakpad::PageStdAllocator<google_breakpad::MappingInfo*> >::__compressed_pair<decltype(nullptr), google_breakpad::PageStdAllocator<google_breakpad::MappingInfo*> const&>(decltype(nullptr)&&, google_breakpad::PageStdAllocator<google_breakpad::MappingInfo*> const&)
FUNC 354f0 2c 0 std::__ndk1::__compressed_pair_elem<google_breakpad::MappingInfo**, 0, false>::__compressed_pair_elem<decltype(nullptr), void>(decltype(nullptr)&&)
FUNC 3551c e 0 google_breakpad::PageStdAllocator<google_breakpad::MappingInfo*> const& std::__ndk1::forward<google_breakpad::PageStdAllocator<google_breakpad::MappingInfo*> const&>(std::__ndk1::remove_reference<google_breakpad::PageStdAllocator<google_breakpad::MappingInfo*> const&>::type&)
FUNC 3552a 32 0 std::__ndk1::__compressed_pair_elem<google_breakpad::PageStdAllocator<google_breakpad::MappingInfo*>, 1, false>::__compressed_pair_elem<google_breakpad::PageStdAllocator<google_breakpad::MappingInfo*> const&, void>(google_breakpad::PageStdAllocator<google_breakpad::MappingInfo*> const&)
FUNC 3555c b8 0 std::__ndk1::__split_buffer<google_breakpad::MappingInfo*, google_breakpad::PageStdAllocator<google_breakpad::MappingInfo*>&>::__split_buffer(unsigned int, unsigned int, google_breakpad::PageStdAllocator<google_breakpad::MappingInfo*>&)
FUNC 35614 90 0 std::__ndk1::vector<google_breakpad::MappingInfo*, google_breakpad::PageStdAllocator<google_breakpad::MappingInfo*> >::__swap_out_circular_buffer(std::__ndk1::__split_buffer<google_breakpad::MappingInfo*, google_breakpad::PageStdAllocator<google_breakpad::MappingInfo*>&>&)
FUNC 356a4 54 0 std::__ndk1::__split_buffer<google_breakpad::MappingInfo*, google_breakpad::PageStdAllocator<google_breakpad::MappingInfo*>&>::~__split_buffer()
FUNC 356f8 54 0 std::__ndk1::__compressed_pair<google_breakpad::MappingInfo**, google_breakpad::PageStdAllocator<google_breakpad::MappingInfo*>&>::__compressed_pair<decltype(nullptr), google_breakpad::PageStdAllocator<google_breakpad::MappingInfo*>&>(decltype(nullptr)&&, google_breakpad::PageStdAllocator<google_breakpad::MappingInfo*>&)
FUNC 3574c 24 0 std::__ndk1::allocator_traits<google_breakpad::PageStdAllocator<google_breakpad::MappingInfo*> >::allocate(google_breakpad::PageStdAllocator<google_breakpad::MappingInfo*>&, unsigned int)
FUNC 35770 18 0 std::__ndk1::__split_buffer<google_breakpad::MappingInfo*, google_breakpad::PageStdAllocator<google_breakpad::MappingInfo*>&>::__alloc()
FUNC 35788 18 0 std::__ndk1::__split_buffer<google_breakpad::MappingInfo*, google_breakpad::PageStdAllocator<google_breakpad::MappingInfo*>&>::__end_cap()
FUNC 357a0 e 0 google_breakpad::PageStdAllocator<google_breakpad::MappingInfo*>& std::__ndk1::forward<google_breakpad::PageStdAllocator<google_breakpad::MappingInfo*>&>(std::__ndk1::remove_reference<google_breakpad::PageStdAllocator<google_breakpad::MappingInfo*>&>::type&)
FUNC 357ae 28 0 std::__ndk1::__compressed_pair_elem<google_breakpad::PageStdAllocator<google_breakpad::MappingInfo*>&, 1, false>::__compressed_pair_elem<google_breakpad::PageStdAllocator<google_breakpad::MappingInfo*>&, void>(google_breakpad::PageStdAllocator<google_breakpad::MappingInfo*>&)
FUNC 357d6 4c 0 google_breakpad::PageStdAllocator<google_breakpad::MappingInfo*>::allocate(unsigned int, void const*)
FUNC 35822 18 0 std::__ndk1::__compressed_pair<google_breakpad::MappingInfo**, google_breakpad::PageStdAllocator<google_breakpad::MappingInfo*>&>::second()
FUNC 3583a 10 0 std::__ndk1::__compressed_pair_elem<google_breakpad::PageStdAllocator<google_breakpad::MappingInfo*>&, 1, false>::__get()
FUNC 3584a 16 0 std::__ndk1::__compressed_pair<google_breakpad::MappingInfo**, google_breakpad::PageStdAllocator<google_breakpad::MappingInfo*>&>::first()
FUNC 35860 e 0 std::__ndk1::__compressed_pair_elem<google_breakpad::MappingInfo**, 0, false>::__get()
FUNC 3586e 68 0 void std::__ndk1::allocator_traits<google_breakpad::PageStdAllocator<google_breakpad::MappingInfo*> >::__construct_backward<google_breakpad::MappingInfo**>(google_breakpad::PageStdAllocator<google_breakpad::MappingInfo*>&, google_breakpad::MappingInfo**, google_breakpad::MappingInfo**, google_breakpad::MappingInfo**&)
FUNC 358d8 5c 0 std::__ndk1::swap<google_breakpad::MappingInfo **>
FUNC 35934 18 0 std::__ndk1::__vector_base<google_breakpad::MappingInfo*, google_breakpad::PageStdAllocator<google_breakpad::MappingInfo*> >::__end_cap()
FUNC 3594c 6e 0 std::__ndk1::vector<google_breakpad::MappingInfo*, google_breakpad::PageStdAllocator<google_breakpad::MappingInfo*> >::__annotate_new(unsigned int) const
FUNC 359ba c 0 std::__ndk1::vector<google_breakpad::MappingInfo*, google_breakpad::PageStdAllocator<google_breakpad::MappingInfo*> >::__invalidate_all_iterators()
FUNC 359c6 3e 0 void std::__ndk1::allocator_traits<google_breakpad::PageStdAllocator<google_breakpad::MappingInfo*> >::construct<google_breakpad::MappingInfo*, google_breakpad::MappingInfo*>(google_breakpad::PageStdAllocator<google_breakpad::MappingInfo*>&, google_breakpad::MappingInfo**, google_breakpad::MappingInfo*&&)
FUNC 35a04 16 0 std::__ndk1::move_if_noexcept<google_breakpad::MappingInfo *>
FUNC 35a1a 3e 0 void std::__ndk1::allocator_traits<google_breakpad::PageStdAllocator<google_breakpad::MappingInfo*> >::__construct<google_breakpad::MappingInfo*, google_breakpad::MappingInfo*>(std::__ndk1::integral_constant<bool, true>, google_breakpad::PageStdAllocator<google_breakpad::MappingInfo*>&, google_breakpad::MappingInfo**, google_breakpad::MappingInfo*&&)
FUNC 35a58 e 0 google_breakpad::MappingInfo*&& std::__ndk1::forward<google_breakpad::MappingInfo*>(std::__ndk1::remove_reference<google_breakpad::MappingInfo*>::type&)
FUNC 35a66 32 0 void std::__ndk1::allocator<google_breakpad::MappingInfo*>::construct<google_breakpad::MappingInfo*, google_breakpad::MappingInfo*>(google_breakpad::MappingInfo**, google_breakpad::MappingInfo*&&)
FUNC 35a98 e 0 std::__ndk1::remove_reference<google_breakpad::MappingInfo*&>::type&& std::__ndk1::move<google_breakpad::MappingInfo*&>(google_breakpad::MappingInfo*&)
FUNC 35aa6 e 0 std::__ndk1::remove_reference<google_breakpad::MappingInfo**&>::type&& std::__ndk1::move<google_breakpad::MappingInfo**&>(google_breakpad::MappingInfo**&)
FUNC 35ab4 16 0 std::__ndk1::__compressed_pair<google_breakpad::MappingInfo**, google_breakpad::PageStdAllocator<google_breakpad::MappingInfo*> >::first()
FUNC 35aca 1a 0 std::__ndk1::__split_buffer<google_breakpad::MappingInfo*, google_breakpad::PageStdAllocator<google_breakpad::MappingInfo*>&>::clear()
FUNC 35ae4 26 0 std::__ndk1::__split_buffer<google_breakpad::MappingInfo*, google_breakpad::PageStdAllocator<google_breakpad::MappingInfo*>&>::capacity() const
FUNC 35b0a 1e 0 std::__ndk1::__split_buffer<google_breakpad::MappingInfo*, google_breakpad::PageStdAllocator<google_breakpad::MappingInfo*>&>::__destruct_at_end(google_breakpad::MappingInfo**)
FUNC 35b28 5a 0 std::__ndk1::__split_buffer<google_breakpad::MappingInfo*, google_breakpad::PageStdAllocator<google_breakpad::MappingInfo*>&>::__destruct_at_end(google_breakpad::MappingInfo**, std::__ndk1::integral_constant<bool, false>)
FUNC 35b82 18 0 std::__ndk1::__split_buffer<google_breakpad::MappingInfo*, google_breakpad::PageStdAllocator<google_breakpad::MappingInfo*>&>::__end_cap() const
FUNC 35b9a 16 0 std::__ndk1::__compressed_pair<google_breakpad::MappingInfo**, google_breakpad::PageStdAllocator<google_breakpad::MappingInfo*>&>::first() const
FUNC 35bb0 2c 0 google_breakpad::PageStdAllocator<unsigned int>::PageStdAllocator(google_breakpad::PageAllocator&)
FUNC 35bdc 2a 0 std::__ndk1::vector<unsigned int, google_breakpad::PageStdAllocator<unsigned int> >::vector(google_breakpad::PageStdAllocator<unsigned int> const&)
FUNC 35c08 9c 0 std::__ndk1::vector<unsigned int, google_breakpad::PageStdAllocator<unsigned int> >::reserve(unsigned int)
FUNC 35ca4 e 0 std::__ndk1::allocator<unsigned int>::allocator()
FUNC 35cb4 60 0 std::__ndk1::__vector_base<unsigned int, google_breakpad::PageStdAllocator<unsigned int> >::__vector_base(google_breakpad::PageStdAllocator<unsigned int> const&)
FUNC 35d14 54 0 std::__ndk1::__compressed_pair<unsigned int*, google_breakpad::PageStdAllocator<unsigned int> >::__compressed_pair<decltype(nullptr), google_breakpad::PageStdAllocator<unsigned int> const&>(decltype(nullptr)&&, google_breakpad::PageStdAllocator<unsigned int> const&)
FUNC 35d68 2c 0 std::__ndk1::__compressed_pair_elem<unsigned int*, 0, false>::__compressed_pair_elem<decltype(nullptr), void>(decltype(nullptr)&&)
FUNC 35d94 e 0 google_breakpad::PageStdAllocator<unsigned int> const& std::__ndk1::forward<google_breakpad::PageStdAllocator<unsigned int> const&>(std::__ndk1::remove_reference<google_breakpad::PageStdAllocator<unsigned int> const&>::type&)
FUNC 35da2 32 0 std::__ndk1::__compressed_pair_elem<google_breakpad::PageStdAllocator<unsigned int>, 1, false>::__compressed_pair_elem<google_breakpad::PageStdAllocator<unsigned int> const&, void>(google_breakpad::PageStdAllocator<unsigned int> const&)
FUNC 35dd4 b8 0 std::__ndk1::__split_buffer<unsigned int, google_breakpad::PageStdAllocator<unsigned int>&>::__split_buffer(unsigned int, unsigned int, google_breakpad::PageStdAllocator<unsigned int>&)
FUNC 35e8c 90 0 std::__ndk1::vector<unsigned int, google_breakpad::PageStdAllocator<unsigned int> >::__swap_out_circular_buffer(std::__ndk1::__split_buffer<unsigned int, google_breakpad::PageStdAllocator<unsigned int>&>&)
FUNC 35f1c 54 0 std::__ndk1::__split_buffer<unsigned int, google_breakpad::PageStdAllocator<unsigned int>&>::~__split_buffer()
FUNC 35f70 54 0 std::__ndk1::__compressed_pair<unsigned int*, google_breakpad::PageStdAllocator<unsigned int>&>::__compressed_pair<decltype(nullptr), google_breakpad::PageStdAllocator<unsigned int>&>(decltype(nullptr)&&, google_breakpad::PageStdAllocator<unsigned int>&)
FUNC 35fc4 24 0 std::__ndk1::allocator_traits<google_breakpad::PageStdAllocator<unsigned int> >::allocate(google_breakpad::PageStdAllocator<unsigned int>&, unsigned int)
FUNC 35fe8 18 0 std::__ndk1::__split_buffer<unsigned int, google_breakpad::PageStdAllocator<unsigned int>&>::__alloc()
FUNC 36000 18 0 std::__ndk1::__split_buffer<unsigned int, google_breakpad::PageStdAllocator<unsigned int>&>::__end_cap()
FUNC 36018 e 0 google_breakpad::PageStdAllocator<unsigned int>& std::__ndk1::forward<google_breakpad::PageStdAllocator<unsigned int>&>(std::__ndk1::remove_reference<google_breakpad::PageStdAllocator<unsigned int>&>::type&)
FUNC 36026 28 0 std::__ndk1::__compressed_pair_elem<google_breakpad::PageStdAllocator<unsigned int>&, 1, false>::__compressed_pair_elem<google_breakpad::PageStdAllocator<unsigned int>&, void>(google_breakpad::PageStdAllocator<unsigned int>&)
FUNC 3604e 4c 0 google_breakpad::PageStdAllocator<unsigned int>::allocate(unsigned int, void const*)
FUNC 3609a 18 0 std::__ndk1::__compressed_pair<unsigned int*, google_breakpad::PageStdAllocator<unsigned int>&>::second()
FUNC 360b2 10 0 std::__ndk1::__compressed_pair_elem<google_breakpad::PageStdAllocator<unsigned int>&, 1, false>::__get()
FUNC 360c2 16 0 std::__ndk1::__compressed_pair<unsigned int*, google_breakpad::PageStdAllocator<unsigned int>&>::first()
FUNC 360d8 e 0 std::__ndk1::__compressed_pair_elem<unsigned int*, 0, false>::__get()
FUNC 360e6 68 0 void std::__ndk1::allocator_traits<google_breakpad::PageStdAllocator<unsigned int> >::__construct_backward<unsigned int*>(google_breakpad::PageStdAllocator<unsigned int>&, unsigned int*, unsigned int*, unsigned int*&)
FUNC 36150 5c 0 std::__ndk1::swap<unsigned int *>
FUNC 361ac 18 0 std::__ndk1::__vector_base<unsigned int, google_breakpad::PageStdAllocator<unsigned int> >::__end_cap()
FUNC 361c4 6e 0 std::__ndk1::vector<unsigned int, google_breakpad::PageStdAllocator<unsigned int> >::__annotate_new(unsigned int) const
FUNC 36232 c 0 std::__ndk1::vector<unsigned int, google_breakpad::PageStdAllocator<unsigned int> >::__invalidate_all_iterators()
FUNC 3623e 3e 0 void std::__ndk1::allocator_traits<google_breakpad::PageStdAllocator<unsigned int> >::construct<unsigned int, unsigned int>(google_breakpad::PageStdAllocator<unsigned int>&, unsigned int*, unsigned int&&)
FUNC 3627c 16 0 std::__ndk1::move_if_noexcept<unsigned int>
FUNC 36292 3e 0 void std::__ndk1::allocator_traits<google_breakpad::PageStdAllocator<unsigned int> >::__construct<unsigned int, unsigned int>(std::__ndk1::integral_constant<bool, true>, google_breakpad::PageStdAllocator<unsigned int>&, unsigned int*, unsigned int&&)
FUNC 362d0 e 0 unsigned int&& std::__ndk1::forward<unsigned int>(std::__ndk1::remove_reference<unsigned int>::type&)
FUNC 362de 32 0 void std::__ndk1::allocator<unsigned int>::construct<unsigned int, unsigned int>(unsigned int*, unsigned int&&)
FUNC 36310 e 0 std::__ndk1::remove_reference<unsigned int&>::type&& std::__ndk1::move<unsigned int&>(unsigned int&)
FUNC 3631e e 0 std::__ndk1::remove_reference<unsigned int*&>::type&& std::__ndk1::move<unsigned int*&>(unsigned int*&)
FUNC 3632c 16 0 std::__ndk1::__compressed_pair<unsigned int*, google_breakpad::PageStdAllocator<unsigned int> >::first()
FUNC 36342 1a 0 std::__ndk1::__split_buffer<unsigned int, google_breakpad::PageStdAllocator<unsigned int>&>::clear()
FUNC 3635c 26 0 std::__ndk1::__split_buffer<unsigned int, google_breakpad::PageStdAllocator<unsigned int>&>::capacity() const
FUNC 36382 1e 0 std::__ndk1::__split_buffer<unsigned int, google_breakpad::PageStdAllocator<unsigned int>&>::__destruct_at_end(unsigned int*)
FUNC 363a0 5a 0 std::__ndk1::__split_buffer<unsigned int, google_breakpad::PageStdAllocator<unsigned int>&>::__destruct_at_end(unsigned int*, std::__ndk1::integral_constant<bool, false>)
FUNC 363fa 18 0 std::__ndk1::__split_buffer<unsigned int, google_breakpad::PageStdAllocator<unsigned int>&>::__end_cap() const
FUNC 36412 16 0 std::__ndk1::__compressed_pair<unsigned int*, google_breakpad::PageStdAllocator<unsigned int>&>::first() const
FUNC 36428 60 0 std::__ndk1::__vector_base<unsigned long long, std::__ndk1::allocator<unsigned long long> >::__vector_base()
FUNC 36488 36 0 std::__ndk1::__compressed_pair<unsigned long long*, std::__ndk1::allocator<unsigned long long> >::__compressed_pair<decltype(nullptr), true>(decltype(nullptr)&&)
FUNC 364be 2c 0 std::__ndk1::__compressed_pair_elem<unsigned long long*, 0, false>::__compressed_pair_elem<decltype(nullptr), void>(decltype(nullptr)&&)
FUNC 364ea 1a 0 std::__ndk1::__compressed_pair_elem<std::__ndk1::allocator<unsigned long long>, 1, true>::__compressed_pair_elem()
FUNC 36504 e 0 std::__ndk1::allocator<unsigned long long>::allocator()
FUNC 36512 72 0 std::__ndk1::vector<unsigned long long, std::__ndk1::allocator<unsigned long long> >::__annotate_delete() const
FUNC 36584 4e 0 std::__ndk1::__vector_base<unsigned long long, std::__ndk1::allocator<unsigned long long> >::~__vector_base()
FUNC 365d2 34 0 std::__ndk1::vector<unsigned long long, std::__ndk1::allocator<unsigned long long> >::__annotate_contiguous_container(void const*, void const*, void const*, void const*) const
FUNC 36606 18 0 std::__ndk1::vector<unsigned long long, std::__ndk1::allocator<unsigned long long> >::data() const
FUNC 3661e 16 0 std::__ndk1::vector<unsigned long long, std::__ndk1::allocator<unsigned long long> >::capacity() const
FUNC 36634 16 0 std::__ndk1::vector<unsigned long long, std::__ndk1::allocator<unsigned long long> >::size() const
FUNC 3664a e 0 unsigned long long* std::__ndk1::__to_raw_pointer<unsigned long long>(unsigned long long*)
FUNC 36658 26 0 std::__ndk1::__vector_base<unsigned long long, std::__ndk1::allocator<unsigned long long> >::capacity() const
FUNC 3667e 18 0 std::__ndk1::__vector_base<unsigned long long, std::__ndk1::allocator<unsigned long long> >::__end_cap() const
FUNC 36696 16 0 std::__ndk1::__compressed_pair<unsigned long long*, std::__ndk1::allocator<unsigned long long> >::first() const
FUNC 366ac e 0 std::__ndk1::__compressed_pair_elem<unsigned long long*, 0, false>::__get() const
FUNC 366ba 1a 0 std::__ndk1::__vector_base<unsigned long long, std::__ndk1::allocator<unsigned long long> >::clear()
FUNC 366d4 2a 0 std::__ndk1::allocator_traits<std::__ndk1::allocator<unsigned long long> >::deallocate(std::__ndk1::allocator<unsigned long long>&, unsigned long long*, unsigned int)
FUNC 366fe 18 0 std::__ndk1::__vector_base<unsigned long long, std::__ndk1::allocator<unsigned long long> >::__alloc()
FUNC 36716 62 0 std::__ndk1::__vector_base<unsigned long long, std::__ndk1::allocator<unsigned long long> >::__destruct_at_end(unsigned long long*)
FUNC 36778 1e 0 void std::__ndk1::allocator_traits<std::__ndk1::allocator<unsigned long long> >::destroy<unsigned long long>(std::__ndk1::allocator<unsigned long long>&, unsigned long long*)
FUNC 36796 1e 0 void std::__ndk1::allocator_traits<std::__ndk1::allocator<unsigned long long> >::__destroy<unsigned long long>(std::__ndk1::integral_constant<bool, true>, std::__ndk1::allocator<unsigned long long>&, unsigned long long*)
FUNC 367b4 12 0 std::__ndk1::allocator<unsigned long long>::destroy(unsigned long long*)
FUNC 367c6 34 0 std::__ndk1::allocator<unsigned long long>::deallocate(unsigned long long*, unsigned int)
FUNC 367fa 16 0 std::__ndk1::__compressed_pair<unsigned long long*, std::__ndk1::allocator<unsigned long long> >::second()
FUNC 36810 e 0 std::__ndk1::__compressed_pair_elem<std::__ndk1::allocator<unsigned long long>, 1, true>::__get()
FUNC 36820 cc 0 std::__ndk1::vector<unsigned int, google_breakpad::PageStdAllocator<unsigned int> >::__append(unsigned int)
FUNC 368ec 42 0 std::__ndk1::vector<unsigned int, google_breakpad::PageStdAllocator<unsigned int> >::__destruct_at_end(unsigned int*)
FUNC 36930 8c 0 std::__ndk1::vector<unsigned int, google_breakpad::PageStdAllocator<unsigned int> >::__construct_at_end(unsigned int)
FUNC 369bc 8c 0 std::__ndk1::vector<unsigned int, google_breakpad::PageStdAllocator<unsigned int> >::__recommend(unsigned int) const
FUNC 36a48 54 0 std::__ndk1::__split_buffer<unsigned int, google_breakpad::PageStdAllocator<unsigned int>&>::__construct_at_end(unsigned int)
FUNC 36a9c 22 0 std::__ndk1::vector<unsigned int, google_breakpad::PageStdAllocator<unsigned int> >::__RAII_IncreaseAnnotator::__RAII_IncreaseAnnotator(std::__ndk1::vector<unsigned int, google_breakpad::PageStdAllocator<unsigned int> > const&, unsigned int)
FUNC 36abe 1e 0 void std::__ndk1::allocator_traits<google_breakpad::PageStdAllocator<unsigned int> >::construct<unsigned int>(google_breakpad::PageStdAllocator<unsigned int>&, unsigned int*)
FUNC 36adc c 0 std::__ndk1::vector<unsigned int, google_breakpad::PageStdAllocator<unsigned int> >::__RAII_IncreaseAnnotator::__done()
FUNC 36ae8 1e 0 void std::__ndk1::allocator_traits<google_breakpad::PageStdAllocator<unsigned int> >::__construct<unsigned int>(std::__ndk1::integral_constant<bool, true>, google_breakpad::PageStdAllocator<unsigned int>&, unsigned int*)
FUNC 36b06 18 0 void std::__ndk1::allocator<unsigned int>::construct<unsigned int>(unsigned int*)
FUNC 36b20 64 0 std::__ndk1::vector<unsigned int, google_breakpad::PageStdAllocator<unsigned int> >::max_size() const
FUNC 36b84 16 0 std::__ndk1::allocator_traits<google_breakpad::PageStdAllocator<unsigned int> >::max_size(google_breakpad::PageStdAllocator<unsigned int> const&)
FUNC 36b9a 18 0 std::__ndk1::__vector_base<unsigned int, google_breakpad::PageStdAllocator<unsigned int> >::__alloc() const
FUNC 36bb2 16 0 std::__ndk1::allocator_traits<google_breakpad::PageStdAllocator<unsigned int> >::__max_size(std::__ndk1::integral_constant<bool, true>, google_breakpad::PageStdAllocator<unsigned int> const&)
FUNC 36bc8 10 0 std::__ndk1::allocator<unsigned int>::max_size() const
FUNC 36bd8 18 0 std::__ndk1::__compressed_pair<unsigned int*, google_breakpad::PageStdAllocator<unsigned int> >::second() const
FUNC 36bf0 e 0 std::__ndk1::__compressed_pair_elem<google_breakpad::PageStdAllocator<unsigned int>, 1, false>::__get() const
FUNC 36bfe 12 0 std::__ndk1::vector<unsigned int, google_breakpad::PageStdAllocator<unsigned int> >::__invalidate_iterators_past(unsigned int*)
FUNC 36c10 6e 0 std::__ndk1::vector<unsigned int, google_breakpad::PageStdAllocator<unsigned int> >::__annotate_shrink(unsigned int) const
FUNC 36c7e 22 0 std::__ndk1::vector<google_breakpad::MappingInfo*, google_breakpad::PageStdAllocator<google_breakpad::MappingInfo*> >::__RAII_IncreaseAnnotator::__RAII_IncreaseAnnotator(std::__ndk1::vector<google_breakpad::MappingInfo*, google_breakpad::PageStdAllocator<google_breakpad::MappingInfo*> > const&, unsigned int)
FUNC 36ca0 3e 0 void std::__ndk1::allocator_traits<google_breakpad::PageStdAllocator<google_breakpad::MappingInfo*> >::construct<google_breakpad::MappingInfo*, google_breakpad::MappingInfo* const&>(google_breakpad::PageStdAllocator<google_breakpad::MappingInfo*>&, google_breakpad::MappingInfo**, google_breakpad::MappingInfo* const&)
FUNC 36cde c 0 std::__ndk1::vector<google_breakpad::MappingInfo*, google_breakpad::PageStdAllocator<google_breakpad::MappingInfo*> >::__RAII_IncreaseAnnotator::__done()
FUNC 36cec c0 0 void std::__ndk1::vector<google_breakpad::MappingInfo*, google_breakpad::PageStdAllocator<google_breakpad::MappingInfo*> >::__push_back_slow_path<google_breakpad::MappingInfo* const&>(google_breakpad::MappingInfo* const&)
FUNC 36dac 3e 0 void std::__ndk1::allocator_traits<google_breakpad::PageStdAllocator<google_breakpad::MappingInfo*> >::__construct<google_breakpad::MappingInfo*, google_breakpad::MappingInfo* const&>(std::__ndk1::integral_constant<bool, true>, google_breakpad::PageStdAllocator<google_breakpad::MappingInfo*>&, google_breakpad::MappingInfo**, google_breakpad::MappingInfo* const&)
FUNC 36dea e 0 google_breakpad::MappingInfo* const& std::__ndk1::forward<google_breakpad::MappingInfo* const&>(std::__ndk1::remove_reference<google_breakpad::MappingInfo* const&>::type&)
FUNC 36df8 32 0 void std::__ndk1::allocator<google_breakpad::MappingInfo*>::construct<google_breakpad::MappingInfo*, google_breakpad::MappingInfo* const&>(google_breakpad::MappingInfo**, google_breakpad::MappingInfo* const&)
FUNC 36e2c 8c 0 std::__ndk1::vector<google_breakpad::MappingInfo*, google_breakpad::PageStdAllocator<google_breakpad::MappingInfo*> >::__recommend(unsigned int) const
FUNC 36eb8 64 0 std::__ndk1::vector<google_breakpad::MappingInfo*, google_breakpad::PageStdAllocator<google_breakpad::MappingInfo*> >::max_size() const
FUNC 36f1c 16 0 std::__ndk1::allocator_traits<google_breakpad::PageStdAllocator<google_breakpad::MappingInfo*> >::max_size(google_breakpad::PageStdAllocator<google_breakpad::MappingInfo*> const&)
FUNC 36f32 18 0 std::__ndk1::__vector_base<google_breakpad::MappingInfo*, google_breakpad::PageStdAllocator<google_breakpad::MappingInfo*> >::__alloc() const
FUNC 36f4a 16 0 std::__ndk1::allocator_traits<google_breakpad::PageStdAllocator<google_breakpad::MappingInfo*> >::__max_size(std::__ndk1::integral_constant<bool, true>, google_breakpad::PageStdAllocator<google_breakpad::MappingInfo*> const&)
FUNC 36f60 10 0 std::__ndk1::allocator<google_breakpad::MappingInfo*>::max_size() const
FUNC 36f70 18 0 std::__ndk1::__compressed_pair<google_breakpad::MappingInfo**, google_breakpad::PageStdAllocator<google_breakpad::MappingInfo*> >::second() const
FUNC 36f88 e 0 std::__ndk1::__compressed_pair_elem<google_breakpad::PageStdAllocator<google_breakpad::MappingInfo*>, 1, false>::__get() const
FUNC 36f98 44 0 google_breakpad::LinuxPtraceDumper::LinuxPtraceDumper(int)
FUNC 36fdc da 0 google_breakpad::LinuxPtraceDumper::BuildProcPath(char*, int, char const*) const
FUNC 370b8 d4 0 google_breakpad::LinuxPtraceDumper::CopyFromProcess(void*, int, void const*, unsigned int)
FUNC 3718c 76 0 sys_ptrace(int, int, void*, void*)
FUNC 37204 b0 0 google_breakpad::LinuxPtraceDumper::ReadRegisterSet(google_breakpad::ThreadInfo*, int)
FUNC 372b4 84 0 google_breakpad::LinuxPtraceDumper::ReadRegisters(google_breakpad::ThreadInfo*, int)
FUNC 37338 1f8 0 google_breakpad::LinuxPtraceDumper::GetThreadInfoByIndex(unsigned int, google_breakpad::ThreadInfo*)
FUNC 37530 1c 0 std::__ndk1::vector<int, google_breakpad::PageStdAllocator<int> >::operator[](unsigned int)
FUNC 3754c 6a 0 sys_open(char const*, int, int)
FUNC 375b6 4e 0 sys_close(int)
FUNC 37604 e 0 google_breakpad::LinuxPtraceDumper::IsPostMortem() const
FUNC 37612 fe 0 google_breakpad::LinuxPtraceDumper::ThreadsSuspend()
FUNC 37710 94 0 SuspendThread(int)
FUNC 377a4 54 0 std::__ndk1::vector<int, google_breakpad::PageStdAllocator<int> >::resize(unsigned int)
FUNC 377f8 8a 0 google_breakpad::LinuxPtraceDumper::ThreadsResume()
FUNC 37882 28 0 ResumeThread(int)
FUNC 378ac 138 0 google_breakpad::LinuxPtraceDumper::EnumerateThreads()
FUNC 379e4 1c 0 google_breakpad::DirectoryReader::DirectoryReader(int)
FUNC 37a00 c8 0 google_breakpad::DirectoryReader::GetNextEntry(char const**)
FUNC 37ac8 98 0 std::__ndk1::vector<int, google_breakpad::PageStdAllocator<int> >::push_back(int const&)
FUNC 37b60 44 0 google_breakpad::DirectoryReader::PopEntry()
FUNC 37ba4 1e 0 google_breakpad::LinuxPtraceDumper::~LinuxPtraceDumper()
FUNC 37bc2 b4 0 sys_mmap(void*, unsigned int, int, int, int, long long)
FUNC 37c76 a0 0 sys__mmap2(void*, unsigned int, int, int, int, long)
FUNC 37d16 6a 0 sys_read(int, void*, unsigned int)
FUNC 37d80 2e 0 sys_waitpid(int, int*, int)
FUNC 37dae 76 0 sys_wait4(int, int*, int, kernel_rusage*)
FUNC 37e24 6a 0 sys_getdents(int, kernel_dirent*, int)
FUNC 37e90 cc 0 std::__ndk1::vector<int, google_breakpad::PageStdAllocator<int> >::__append(unsigned int)
FUNC 37f5c 42 0 std::__ndk1::vector<int, google_breakpad::PageStdAllocator<int> >::__destruct_at_end(int*)
FUNC 37fa0 8c 0 std::__ndk1::vector<int, google_breakpad::PageStdAllocator<int> >::__construct_at_end(unsigned int)
FUNC 3802c 8c 0 std::__ndk1::vector<int, google_breakpad::PageStdAllocator<int> >::__recommend(unsigned int) const
FUNC 380b8 54 0 std::__ndk1::__split_buffer<int, google_breakpad::PageStdAllocator<int>&>::__construct_at_end(unsigned int)
FUNC 3810c 22 0 std::__ndk1::vector<int, google_breakpad::PageStdAllocator<int> >::__RAII_IncreaseAnnotator::__RAII_IncreaseAnnotator(std::__ndk1::vector<int, google_breakpad::PageStdAllocator<int> > const&, unsigned int)
FUNC 3812e 1e 0 void std::__ndk1::allocator_traits<google_breakpad::PageStdAllocator<int> >::construct<int>(google_breakpad::PageStdAllocator<int>&, int*)
FUNC 3814c c 0 std::__ndk1::vector<int, google_breakpad::PageStdAllocator<int> >::__RAII_IncreaseAnnotator::__done()
FUNC 38158 1e 0 void std::__ndk1::allocator_traits<google_breakpad::PageStdAllocator<int> >::__construct<int>(std::__ndk1::integral_constant<bool, true>, google_breakpad::PageStdAllocator<int>&, int*)
FUNC 38176 18 0 void std::__ndk1::allocator<int>::construct<int>(int*)
FUNC 38190 64 0 std::__ndk1::vector<int, google_breakpad::PageStdAllocator<int> >::max_size() const
FUNC 381f4 16 0 std::__ndk1::allocator_traits<google_breakpad::PageStdAllocator<int> >::max_size(google_breakpad::PageStdAllocator<int> const&)
FUNC 3820a 18 0 std::__ndk1::__vector_base<int, google_breakpad::PageStdAllocator<int> >::__alloc() const
FUNC 38222 16 0 std::__ndk1::allocator_traits<google_breakpad::PageStdAllocator<int> >::__max_size(std::__ndk1::integral_constant<bool, true>, google_breakpad::PageStdAllocator<int> const&)
FUNC 38238 10 0 std::__ndk1::allocator<int>::max_size() const
FUNC 38248 18 0 std::__ndk1::__compressed_pair<int*, google_breakpad::PageStdAllocator<int> >::second() const
FUNC 38260 e 0 std::__ndk1::__compressed_pair_elem<google_breakpad::PageStdAllocator<int>, 1, false>::__get() const
FUNC 3826e 12 0 std::__ndk1::vector<int, google_breakpad::PageStdAllocator<int> >::__invalidate_iterators_past(int*)
FUNC 38280 6e 0 std::__ndk1::vector<int, google_breakpad::PageStdAllocator<int> >::__annotate_shrink(unsigned int) const
FUNC 382ee 3e 0 void std::__ndk1::allocator_traits<google_breakpad::PageStdAllocator<int> >::construct<int, int const&>(google_breakpad::PageStdAllocator<int>&, int*, int const&)
FUNC 3832c c0 0 void std::__ndk1::vector<int, google_breakpad::PageStdAllocator<int> >::__push_back_slow_path<int const&>(int const&)
FUNC 383ec 3e 0 void std::__ndk1::allocator_traits<google_breakpad::PageStdAllocator<int> >::__construct<int, int const&>(std::__ndk1::integral_constant<bool, true>, google_breakpad::PageStdAllocator<int>&, int*, int const&)
FUNC 3842a e 0 int const& std::__ndk1::forward<int const&>(std::__ndk1::remove_reference<int const&>::type&)
FUNC 38438 32 0 void std::__ndk1::allocator<int>::construct<int, int const&>(int*, int const&)
FUNC 3846c fc 0 google_breakpad::WriteMinidump(char const*, int, void const*, unsigned int, bool, unsigned int, bool)
FUNC 38568 190 0 (anonymous namespace)::WriteMinidumpImpl(char const*, int, long, int, void const*, unsigned int, std::__ndk1::list<google_breakpad::MappingEntry, std::__ndk1::allocator<google_breakpad::MappingEntry> > const&, std::__ndk1::list<google_breakpad::AppMemory, std::__ndk1::allocator<google_breakpad::AppMemory> > const&, bool, unsigned int, bool)
FUNC 386f8 fc 0 google_breakpad::WriteMinidump(int, int, void const*, unsigned int, bool, unsigned int, bool)
FUNC 387f4 13c 0 google_breakpad::WriteMinidump(char const*, int, int)
FUNC 38930 178 0 (anonymous namespace)::MinidumpWriter::MinidumpWriter(char const*, int, google_breakpad::ExceptionHandler::CrashContext const*, std::__ndk1::list<google_breakpad::MappingEntry, std::__ndk1::allocator<google_breakpad::MappingEntry> > const&, std::__ndk1::list<google_breakpad::AppMemory, std::__ndk1::allocator<google_breakpad::AppMemory> > const&, bool, unsigned int, bool, google_breakpad::LinuxDumper*)
FUNC 38aa8 cc 0 (anonymous namespace)::MinidumpWriter::Init()
FUNC 38b74 57c 0 (anonymous namespace)::MinidumpWriter::Dump()
FUNC 390f0 6c 0 (anonymous namespace)::MinidumpWriter::~MinidumpWriter()
FUNC 3915c aa 0 google_breakpad::WriteMinidump(char const*, int, void const*, unsigned int, std::__ndk1::list<google_breakpad::MappingEntry, std::__ndk1::allocator<google_breakpad::MappingEntry> > const&, std::__ndk1::list<google_breakpad::AppMemory, std::__ndk1::allocator<google_breakpad::AppMemory> > const&, bool, unsigned int, bool)
FUNC 39206 a4 0 google_breakpad::WriteMinidump(int, int, void const*, unsigned int, std::__ndk1::list<google_breakpad::MappingEntry, std::__ndk1::allocator<google_breakpad::MappingEntry> > const&, std::__ndk1::list<google_breakpad::AppMemory, std::__ndk1::allocator<google_breakpad::AppMemory> > const&, bool, unsigned int, bool)
FUNC 392aa b0 0 google_breakpad::WriteMinidump(char const*, long, int, void const*, unsigned int, std::__ndk1::list<google_breakpad::MappingEntry, std::__ndk1::allocator<google_breakpad::MappingEntry> > const&, std::__ndk1::list<google_breakpad::AppMemory, std::__ndk1::allocator<google_breakpad::AppMemory> > const&, bool, unsigned int, bool)
FUNC 3935a ae 0 google_breakpad::WriteMinidump(int, long, int, void const*, unsigned int, std::__ndk1::list<google_breakpad::MappingEntry, std::__ndk1::allocator<google_breakpad::MappingEntry> > const&, std::__ndk1::list<google_breakpad::AppMemory, std::__ndk1::allocator<google_breakpad::AppMemory> > const&, bool, unsigned int, bool)
FUNC 39408 d8 0 google_breakpad::WriteMinidump(char const*, std::__ndk1::list<google_breakpad::MappingEntry, std::__ndk1::allocator<google_breakpad::MappingEntry> > const&, std::__ndk1::list<google_breakpad::AppMemory, std::__ndk1::allocator<google_breakpad::AppMemory> > const&, google_breakpad::LinuxDumper*)
FUNC 394e0 18 0 (anonymous namespace)::MinidumpWriter::set_minidump_size_limit(long)
FUNC 394f8 7c 0 google_breakpad::wasteful_vector<MDMemoryDescriptor>::wasteful_vector(google_breakpad::PageAllocator*, unsigned int)
FUNC 39574 1a 0 google_breakpad::wasteful_vector<MDMemoryDescriptor>::~wasteful_vector()
FUNC 3958e 2c 0 google_breakpad::PageStdAllocator<MDMemoryDescriptor>::PageStdAllocator(google_breakpad::PageAllocator&)
FUNC 395ba 2a 0 std::__ndk1::vector<MDMemoryDescriptor, google_breakpad::PageStdAllocator<MDMemoryDescriptor> >::vector(google_breakpad::PageStdAllocator<MDMemoryDescriptor> const&)
FUNC 395e4 9c 0 std::__ndk1::vector<MDMemoryDescriptor, google_breakpad::PageStdAllocator<MDMemoryDescriptor> >::reserve(unsigned int)
FUNC 39680 34 0 std::__ndk1::vector<MDMemoryDescriptor, google_breakpad::PageStdAllocator<MDMemoryDescriptor> >::~vector()
FUNC 396b4 e 0 std::__ndk1::allocator<MDMemoryDescriptor>::allocator()
FUNC 396c4 60 0 std::__ndk1::__vector_base<MDMemoryDescriptor, google_breakpad::PageStdAllocator<MDMemoryDescriptor> >::__vector_base(google_breakpad::PageStdAllocator<MDMemoryDescriptor> const&)
FUNC 39724 54 0 std::__ndk1::__compressed_pair<MDMemoryDescriptor*, google_breakpad::PageStdAllocator<MDMemoryDescriptor> >::__compressed_pair<decltype(nullptr), google_breakpad::PageStdAllocator<MDMemoryDescriptor> const&>(decltype(nullptr)&&, google_breakpad::PageStdAllocator<MDMemoryDescriptor> const&)
FUNC 39778 2c 0 std::__ndk1::__compressed_pair_elem<MDMemoryDescriptor*, 0, false>::__compressed_pair_elem<decltype(nullptr), void>(decltype(nullptr)&&)
FUNC 397a4 e 0 google_breakpad::PageStdAllocator<MDMemoryDescriptor> const& std::__ndk1::forward<google_breakpad::PageStdAllocator<MDMemoryDescriptor> const&>(std::__ndk1::remove_reference<google_breakpad::PageStdAllocator<MDMemoryDescriptor> const&>::type&)
FUNC 397b2 32 0 std::__ndk1::__compressed_pair_elem<google_breakpad::PageStdAllocator<MDMemoryDescriptor>, 1, false>::__compressed_pair_elem<google_breakpad::PageStdAllocator<MDMemoryDescriptor> const&, void>(google_breakpad::PageStdAllocator<MDMemoryDescriptor> const&)
FUNC 397e4 16 0 std::__ndk1::vector<MDMemoryDescriptor, google_breakpad::PageStdAllocator<MDMemoryDescriptor> >::capacity() const
FUNC 397fa 18 0 std::__ndk1::__vector_base<MDMemoryDescriptor, google_breakpad::PageStdAllocator<MDMemoryDescriptor> >::__alloc()
FUNC 39812 16 0 std::__ndk1::vector<MDMemoryDescriptor, google_breakpad::PageStdAllocator<MDMemoryDescriptor> >::size() const
FUNC 39828 b8 0 std::__ndk1::__split_buffer<MDMemoryDescriptor, google_breakpad::PageStdAllocator<MDMemoryDescriptor>&>::__split_buffer(unsigned int, unsigned int, google_breakpad::PageStdAllocator<MDMemoryDescriptor>&)
FUNC 398e0 90 0 std::__ndk1::vector<MDMemoryDescriptor, google_breakpad::PageStdAllocator<MDMemoryDescriptor> >::__swap_out_circular_buffer(std::__ndk1::__split_buffer<MDMemoryDescriptor, google_breakpad::PageStdAllocator<MDMemoryDescriptor>&>&)
FUNC 39970 54 0 std::__ndk1::__split_buffer<MDMemoryDescriptor, google_breakpad::PageStdAllocator<MDMemoryDescriptor>&>::~__split_buffer()
FUNC 399c4 26 0 std::__ndk1::__vector_base<MDMemoryDescriptor, google_breakpad::PageStdAllocator<MDMemoryDescriptor> >::capacity() const
FUNC 399ea 18 0 std::__ndk1::__vector_base<MDMemoryDescriptor, google_breakpad::PageStdAllocator<MDMemoryDescriptor> >::__end_cap() const
FUNC 39a02 16 0 std::__ndk1::__compressed_pair<MDMemoryDescriptor*, google_breakpad::PageStdAllocator<MDMemoryDescriptor> >::first() const
FUNC 39a18 e 0 std::__ndk1::__compressed_pair_elem<MDMemoryDescriptor*, 0, false>::__get() const
FUNC 39a26 18 0 std::__ndk1::__compressed_pair<MDMemoryDescriptor*, google_breakpad::PageStdAllocator<MDMemoryDescriptor> >::second()
FUNC 39a3e e 0 std::__ndk1::__compressed_pair_elem<google_breakpad::PageStdAllocator<MDMemoryDescriptor>, 1, false>::__get()
FUNC 39a4c 54 0 std::__ndk1::__compressed_pair<MDMemoryDescriptor*, google_breakpad::PageStdAllocator<MDMemoryDescriptor>&>::__compressed_pair<decltype(nullptr), google_breakpad::PageStdAllocator<MDMemoryDescriptor>&>(decltype(nullptr)&&, google_breakpad::PageStdAllocator<MDMemoryDescriptor>&)
FUNC 39aa0 24 0 std::__ndk1::allocator_traits<google_breakpad::PageStdAllocator<MDMemoryDescriptor> >::allocate(google_breakpad::PageStdAllocator<MDMemoryDescriptor>&, unsigned int)
FUNC 39ac4 18 0 std::__ndk1::__split_buffer<MDMemoryDescriptor, google_breakpad::PageStdAllocator<MDMemoryDescriptor>&>::__alloc()
FUNC 39adc 18 0 std::__ndk1::__split_buffer<MDMemoryDescriptor, google_breakpad::PageStdAllocator<MDMemoryDescriptor>&>::__end_cap()
FUNC 39af4 e 0 google_breakpad::PageStdAllocator<MDMemoryDescriptor>& std::__ndk1::forward<google_breakpad::PageStdAllocator<MDMemoryDescriptor>&>(std::__ndk1::remove_reference<google_breakpad::PageStdAllocator<MDMemoryDescriptor>&>::type&)
FUNC 39b02 28 0 std::__ndk1::__compressed_pair_elem<google_breakpad::PageStdAllocator<MDMemoryDescriptor>&, 1, false>::__compressed_pair_elem<google_breakpad::PageStdAllocator<MDMemoryDescriptor>&, void>(google_breakpad::PageStdAllocator<MDMemoryDescriptor>&)
FUNC 39b2a 4c 0 google_breakpad::PageStdAllocator<MDMemoryDescriptor>::allocate(unsigned int, void const*)
FUNC 39b76 b4 0 sys_mmap(void*, unsigned int, int, int, int, long long)
FUNC 39c2a a0 0 sys__mmap2(void*, unsigned int, int, int, int, long)
FUNC 39cca 18 0 std::__ndk1::__compressed_pair<MDMemoryDescriptor*, google_breakpad::PageStdAllocator<MDMemoryDescriptor>&>::second()
FUNC 39ce2 10 0 std::__ndk1::__compressed_pair_elem<google_breakpad::PageStdAllocator<MDMemoryDescriptor>&, 1, false>::__get()
FUNC 39cf2 16 0 std::__ndk1::__compressed_pair<MDMemoryDescriptor*, google_breakpad::PageStdAllocator<MDMemoryDescriptor>&>::first()
FUNC 39d08 e 0 std::__ndk1::__compressed_pair_elem<MDMemoryDescriptor*, 0, false>::__get()
FUNC 39d16 72 0 std::__ndk1::vector<MDMemoryDescriptor, google_breakpad::PageStdAllocator<MDMemoryDescriptor> >::__annotate_delete() const
FUNC 39d88 68 0 void std::__ndk1::allocator_traits<google_breakpad::PageStdAllocator<MDMemoryDescriptor> >::__construct_backward<MDMemoryDescriptor*>(google_breakpad::PageStdAllocator<MDMemoryDescriptor>&, MDMemoryDescriptor*, MDMemoryDescriptor*, MDMemoryDescriptor*&)
FUNC 39df0 5c 0 std::__ndk1::swap<MDMemoryDescriptor *>
FUNC 39e4c 18 0 std::__ndk1::__vector_base<MDMemoryDescriptor, google_breakpad::PageStdAllocator<MDMemoryDescriptor> >::__end_cap()
FUNC 39e64 6e 0 std::__ndk1::vector<MDMemoryDescriptor, google_breakpad::PageStdAllocator<MDMemoryDescriptor> >::__annotate_new(unsigned int) const
FUNC 39ed2 c 0 std::__ndk1::vector<MDMemoryDescriptor, google_breakpad::PageStdAllocator<MDMemoryDescriptor> >::__invalidate_all_iterators()
FUNC 39ede 34 0 std::__ndk1::vector<MDMemoryDescriptor, google_breakpad::PageStdAllocator<MDMemoryDescriptor> >::__annotate_contiguous_container(void const*, void const*, void const*, void const*) const
FUNC 39f12 18 0 std::__ndk1::vector<MDMemoryDescriptor, google_breakpad::PageStdAllocator<MDMemoryDescriptor> >::data() const
FUNC 39f2a e 0 MDMemoryDescriptor* std::__ndk1::__to_raw_pointer<MDMemoryDescriptor>(MDMemoryDescriptor*)
FUNC 39f38 3e 0 void std::__ndk1::allocator_traits<google_breakpad::PageStdAllocator<MDMemoryDescriptor> >::construct<MDMemoryDescriptor, MDMemoryDescriptor>(google_breakpad::PageStdAllocator<MDMemoryDescriptor>&, MDMemoryDescriptor*, MDMemoryDescriptor&&)
FUNC 39f76 16 0 std::__ndk1::move_if_noexcept<MDMemoryDescriptor>
FUNC 39f8c 3e 0 void std::__ndk1::allocator_traits<google_breakpad::PageStdAllocator<MDMemoryDescriptor> >::__construct<MDMemoryDescriptor, MDMemoryDescriptor>(std::__ndk1::integral_constant<bool, true>, google_breakpad::PageStdAllocator<MDMemoryDescriptor>&, MDMemoryDescriptor*, MDMemoryDescriptor&&)
FUNC 39fca e 0 MDMemoryDescriptor&& std::__ndk1::forward<MDMemoryDescriptor>(std::__ndk1::remove_reference<MDMemoryDescriptor>::type&)
FUNC 39fd8 48 0 void std::__ndk1::allocator<MDMemoryDescriptor>::construct<MDMemoryDescriptor, MDMemoryDescriptor>(MDMemoryDescriptor*, MDMemoryDescriptor&&)
FUNC 3a020 e 0 std::__ndk1::remove_reference<MDMemoryDescriptor&>::type&& std::__ndk1::move<MDMemoryDescriptor&>(MDMemoryDescriptor&)
FUNC 3a02e e 0 std::__ndk1::remove_reference<MDMemoryDescriptor*&>::type&& std::__ndk1::move<MDMemoryDescriptor*&>(MDMemoryDescriptor*&)
FUNC 3a03c 16 0 std::__ndk1::__compressed_pair<MDMemoryDescriptor*, google_breakpad::PageStdAllocator<MDMemoryDescriptor> >::first()
FUNC 3a052 1a 0 std::__ndk1::__split_buffer<MDMemoryDescriptor, google_breakpad::PageStdAllocator<MDMemoryDescriptor>&>::clear()
FUNC 3a06c 32 0 std::__ndk1::allocator_traits<google_breakpad::PageStdAllocator<MDMemoryDescriptor> >::deallocate(google_breakpad::PageStdAllocator<MDMemoryDescriptor>&, MDMemoryDescriptor*, unsigned int)
FUNC 3a09e 26 0 std::__ndk1::__split_buffer<MDMemoryDescriptor, google_breakpad::PageStdAllocator<MDMemoryDescriptor>&>::capacity() const
FUNC 3a0c4 1e 0 std::__ndk1::__split_buffer<MDMemoryDescriptor, google_breakpad::PageStdAllocator<MDMemoryDescriptor>&>::__destruct_at_end(MDMemoryDescriptor*)
FUNC 3a0e2 5a 0 std::__ndk1::__split_buffer<MDMemoryDescriptor, google_breakpad::PageStdAllocator<MDMemoryDescriptor>&>::__destruct_at_end(MDMemoryDescriptor*, std::__ndk1::integral_constant<bool, false>)
FUNC 3a13c 1e 0 void std::__ndk1::allocator_traits<google_breakpad::PageStdAllocator<MDMemoryDescriptor> >::destroy<MDMemoryDescriptor>(google_breakpad::PageStdAllocator<MDMemoryDescriptor>&, MDMemoryDescriptor*)
FUNC 3a15a 1e 0 void std::__ndk1::allocator_traits<google_breakpad::PageStdAllocator<MDMemoryDescriptor> >::__destroy<MDMemoryDescriptor>(std::__ndk1::integral_constant<bool, true>, google_breakpad::PageStdAllocator<MDMemoryDescriptor>&, MDMemoryDescriptor*)
FUNC 3a178 12 0 std::__ndk1::allocator<MDMemoryDescriptor>::destroy(MDMemoryDescriptor*)
FUNC 3a18a 20 0 google_breakpad::PageStdAllocator<MDMemoryDescriptor>::deallocate(MDMemoryDescriptor*, unsigned int)
FUNC 3a1aa 18 0 std::__ndk1::__split_buffer<MDMemoryDescriptor, google_breakpad::PageStdAllocator<MDMemoryDescriptor>&>::__end_cap() const
FUNC 3a1c2 16 0 std::__ndk1::__compressed_pair<MDMemoryDescriptor*, google_breakpad::PageStdAllocator<MDMemoryDescriptor>&>::first() const
FUNC 3a1d8 4e 0 std::__ndk1::__vector_base<MDMemoryDescriptor, google_breakpad::PageStdAllocator<MDMemoryDescriptor> >::~__vector_base()
FUNC 3a226 1a 0 std::__ndk1::__vector_base<MDMemoryDescriptor, google_breakpad::PageStdAllocator<MDMemoryDescriptor> >::clear()
FUNC 3a240 62 0 std::__ndk1::__vector_base<MDMemoryDescriptor, google_breakpad::PageStdAllocator<MDMemoryDescriptor> >::__destruct_at_end(MDMemoryDescriptor*)
FUNC 3a2a4 128 0 (anonymous namespace)::MinidumpWriter::CrashingThreadReferencesPrincipalMapping()
FUNC 3a3cc 24 0 (anonymous namespace)::MinidumpWriter::Alloc(unsigned int)
FUNC 3a3f0 18 0 (anonymous namespace)::MinidumpWriter::GetCrashThread() const
FUNC 3a408 2e 0 google_breakpad::TypedMDRVA<MDRawDirectory>::TypedMDRVA(google_breakpad::MinidumpFileWriter*)
FUNC 3a436 38 0 google_breakpad::TypedMDRVA<MDRawHeader>::TypedMDRVA(google_breakpad::MinidumpFileWriter*)
FUNC 3a46e 28 0 google_breakpad::TypedMDRVA<MDRawHeader>::Allocate()
FUNC 3a498 58 0 google_breakpad::TypedMDRVA<MDRawDirectory>::AllocateArray(unsigned int)
FUNC 3a4f0 10 0 google_breakpad::TypedMDRVA<MDRawHeader>::get()
FUNC 3a500 10 0 google_breakpad::UntypedMDRVA::position() const
FUNC 3a510 32 0 google_breakpad::TypedMDRVA<MDRawHeader>::~TypedMDRVA()
FUNC 3a544 5f0 0 (anonymous namespace)::MinidumpWriter::WriteThreadListStream(MDRawDirectory*)
FUNC 3ab34 84 0 google_breakpad::TypedMDRVA<MDRawDirectory>::CopyIndex(unsigned int, MDRawDirectory*)
FUNC 3abb8 2cc 0 (anonymous namespace)::MinidumpWriter::WriteMappings(MDRawDirectory*)
FUNC 3ae84 158 0 (anonymous namespace)::MinidumpWriter::WriteAppMemory()
FUNC 3afdc 164 0 (anonymous namespace)::MinidumpWriter::WriteMemoryListStream(MDRawDirectory*)
FUNC 3b140 180 0 (anonymous namespace)::MinidumpWriter::WriteExceptionStream(MDRawDirectory*)
FUNC 3b2c0 fc 0 (anonymous namespace)::MinidumpWriter::WriteSystemInfoStream(MDRawDirectory*)
FUNC 3b3bc 1f0 0 (anonymous namespace)::MinidumpWriter::WriteFile(MDLocationDescriptor*, char const*)
FUNC 3b5ac 20 0 (anonymous namespace)::MinidumpWriter::NullifyDirectoryEntry(MDRawDirectory*)
FUNC 3b5cc 98 0 (anonymous namespace)::MinidumpWriter::WriteProcFile(MDLocationDescriptor*, int, char const*)
FUNC 3b664 55c 0 (anonymous namespace)::MinidumpWriter::WriteDSODebugStream(MDRawDirectory*)
FUNC 3bbc0 32 0 google_breakpad::TypedMDRVA<MDRawDirectory>::~TypedMDRVA()
FUNC 3bbf2 10 0 google_breakpad::MinidumpFileWriter::position() const
FUNC 3bc02 4 0 google_breakpad::minidump_size<MDRawHeader>::size()
FUNC 3bc06 4 0 google_breakpad::minidump_size<MDRawDirectory>::size()
FUNC 3bc0a 32 0 google_breakpad::TypedMDRVA<MDRawHeader>::Flush()
FUNC 3bc3c 10 0 google_breakpad::LinuxDumper::threads()
FUNC 3bc4c 2a 0 google_breakpad::TypedMDRVA<unsigned int>::TypedMDRVA(google_breakpad::MinidumpFileWriter*)
FUNC 3bc78 70 0 google_breakpad::TypedMDRVA<unsigned int>::AllocateObjectAndArray(unsigned int, unsigned int)
FUNC 3bce8 1e 0 google_breakpad::UntypedMDRVA::location() const
FUNC 3bd06 10 0 google_breakpad::TypedMDRVA<unsigned int>::get()
FUNC 3bd18 238 0 (anonymous namespace)::MinidumpWriter::FillThreadStack(MDRawThread*, unsigned int, unsigned int, int, unsigned char**)
FUNC 3bf50 30 0 google_breakpad::UntypedMDRVA::UntypedMDRVA(google_breakpad::MinidumpFileWriter*)
FUNC 3bf80 2e 0 google_breakpad::UntypedMDRVA::Copy(void const*, unsigned int)
FUNC 3bfb0 98 0 std::__ndk1::vector<MDMemoryDescriptor, google_breakpad::PageStdAllocator<MDMemoryDescriptor> >::push_back(MDMemoryDescriptor const&)
FUNC 3c048 36 0 google_breakpad::TypedMDRVA<MDRawContextARM>::TypedMDRVA(google_breakpad::MinidumpFileWriter*)
FUNC 3c07e 2a 0 google_breakpad::TypedMDRVA<MDRawContextARM>::Allocate()
FUNC 3c0a8 10 0 google_breakpad::TypedMDRVA<MDRawContextARM>::get()
FUNC 3c0b8 34 0 google_breakpad::TypedMDRVA<MDRawContextARM>::~TypedMDRVA()
FUNC 3c0ec 84 0 google_breakpad::TypedMDRVA<unsigned int>::CopyIndexAfterObject(unsigned int, void const*, unsigned int)
FUNC 3c170 32 0 google_breakpad::TypedMDRVA<unsigned int>::~TypedMDRVA()
FUNC 3c1a2 4 0 google_breakpad::minidump_size<unsigned int>::size()
FUNC 3c1a6 22 0 std::__ndk1::vector<MDMemoryDescriptor, google_breakpad::PageStdAllocator<MDMemoryDescriptor> >::__RAII_IncreaseAnnotator::__RAII_IncreaseAnnotator(std::__ndk1::vector<MDMemoryDescriptor, google_breakpad::PageStdAllocator<MDMemoryDescriptor> > const&, unsigned int)
FUNC 3c1c8 3e 0 void std::__ndk1::allocator_traits<google_breakpad::PageStdAllocator<MDMemoryDescriptor> >::construct<MDMemoryDescriptor, MDMemoryDescriptor const&>(google_breakpad::PageStdAllocator<MDMemoryDescriptor>&, MDMemoryDescriptor*, MDMemoryDescriptor const&)
FUNC 3c206 c 0 std::__ndk1::vector<MDMemoryDescriptor, google_breakpad::PageStdAllocator<MDMemoryDescriptor> >::__RAII_IncreaseAnnotator::__done()
FUNC 3c214 c0 0 void std::__ndk1::vector<MDMemoryDescriptor, google_breakpad::PageStdAllocator<MDMemoryDescriptor> >::__push_back_slow_path<MDMemoryDescriptor const&>(MDMemoryDescriptor const&)
FUNC 3c2d4 3e 0 void std::__ndk1::allocator_traits<google_breakpad::PageStdAllocator<MDMemoryDescriptor> >::__construct<MDMemoryDescriptor, MDMemoryDescriptor const&>(std::__ndk1::integral_constant<bool, true>, google_breakpad::PageStdAllocator<MDMemoryDescriptor>&, MDMemoryDescriptor*, MDMemoryDescriptor const&)
FUNC 3c312 e 0 MDMemoryDescriptor const& std::__ndk1::forward<MDMemoryDescriptor const&>(std::__ndk1::remove_reference<MDMemoryDescriptor const&>::type&)
FUNC 3c320 48 0 void std::__ndk1::allocator<MDMemoryDescriptor>::construct<MDMemoryDescriptor, MDMemoryDescriptor const&>(MDMemoryDescriptor*, MDMemoryDescriptor const&)
FUNC 3c368 8c 0 std::__ndk1::vector<MDMemoryDescriptor, google_breakpad::PageStdAllocator<MDMemoryDescriptor> >::__recommend(unsigned int) const
FUNC 3c3f4 64 0 std::__ndk1::vector<MDMemoryDescriptor, google_breakpad::PageStdAllocator<MDMemoryDescriptor> >::max_size() const
FUNC 3c458 16 0 std::__ndk1::allocator_traits<google_breakpad::PageStdAllocator<MDMemoryDescriptor> >::max_size(google_breakpad::PageStdAllocator<MDMemoryDescriptor> const&)
FUNC 3c46e 18 0 std::__ndk1::__vector_base<MDMemoryDescriptor, google_breakpad::PageStdAllocator<MDMemoryDescriptor> >::__alloc() const
FUNC 3c486 16 0 std::__ndk1::allocator_traits<google_breakpad::PageStdAllocator<MDMemoryDescriptor> >::__max_size(std::__ndk1::integral_constant<bool, true>, google_breakpad::PageStdAllocator<MDMemoryDescriptor> const&)
FUNC 3c49c 10 0 std::__ndk1::allocator<MDMemoryDescriptor>::max_size() const
FUNC 3c4ac 18 0 std::__ndk1::__compressed_pair<MDMemoryDescriptor*, google_breakpad::PageStdAllocator<MDMemoryDescriptor> >::second() const
FUNC 3c4c4 e 0 std::__ndk1::__compressed_pair_elem<google_breakpad::PageStdAllocator<MDMemoryDescriptor>, 1, false>::__get() const
FUNC 3c4d2 6 0 google_breakpad::minidump_size<MDRawContextARM>::size()
FUNC 3c4d8 32 0 google_breakpad::TypedMDRVA<MDRawContextARM>::Flush()
FUNC 3c50a 32 0 google_breakpad::TypedMDRVA<unsigned int>::Flush()
FUNC 3c53c 18 0 std::__ndk1::list<google_breakpad::MappingEntry, std::__ndk1::allocator<google_breakpad::MappingEntry> >::size() const
FUNC 3c554 4e 0 (anonymous namespace)::MinidumpWriter::ShouldIncludeMapping(google_breakpad::MappingInfo const&)
FUNC 3c5a4 d4 0 (anonymous namespace)::MinidumpWriter::HaveMappingInfo(google_breakpad::MappingInfo const&)
FUNC 3c678 28 0 google_breakpad::TypedMDRVA<unsigned int>::Allocate()
FUNC 3c6a0 244 0 (anonymous namespace)::MinidumpWriter::FillRawModule(google_breakpad::MappingInfo const&, bool, unsigned int, MDRawModule*, unsigned char const*)
FUNC 3c8e4 1a 0 std::__ndk1::vector<unsigned char, google_breakpad::PageStdAllocator<unsigned char> >::empty() const
FUNC 3c8fe 1a 0 std::__ndk1::list<google_breakpad::AppMemory, std::__ndk1::allocator<google_breakpad::AppMemory> >::begin() const
FUNC 3c918 22 0 std::__ndk1::operator!=(std::__ndk1::__list_const_iterator<google_breakpad::AppMemory, void*> const&, std::__ndk1::__list_const_iterator<google_breakpad::AppMemory, void*> const&)
FUNC 3c93a 1a 0 std::__ndk1::list<google_breakpad::AppMemory, std::__ndk1::allocator<google_breakpad::AppMemory> >::end() const
FUNC 3c954 1e 0 std::__ndk1::__list_const_iterator<google_breakpad::AppMemory, void*>::operator->() const
FUNC 3c972 14 0 std::__ndk1::__list_const_iterator<google_breakpad::AppMemory, void*>::operator++()
FUNC 3c988 48 0 std::__ndk1::__list_imp<google_breakpad::AppMemory, std::__ndk1::allocator<google_breakpad::AppMemory> >::begin() const
FUNC 3c9d0 18 0 std::__ndk1::__list_const_iterator<google_breakpad::AppMemory, void*>::__list_const_iterator(std::__ndk1::__list_node_base<google_breakpad::AppMemory, void*>*)
FUNC 3c9e8 22 0 std::__ndk1::operator==(std::__ndk1::__list_const_iterator<google_breakpad::AppMemory, void*> const&, std::__ndk1::__list_const_iterator<google_breakpad::AppMemory, void*> const&)
FUNC 3ca0c 48 0 std::__ndk1::__list_imp<google_breakpad::AppMemory, std::__ndk1::allocator<google_breakpad::AppMemory> >::end() const
FUNC 3ca54 16 0 std::__ndk1::pointer_traits<google_breakpad::AppMemory const*>::pointer_to(google_breakpad::AppMemory const&)
FUNC 3ca6a e 0 google_breakpad::AppMemory const* std::__ndk1::addressof<google_breakpad::AppMemory const>(google_breakpad::AppMemory const&)
FUNC 3ca78 1c 0 std::__ndk1::vector<MDMemoryDescriptor, google_breakpad::PageStdAllocator<MDMemoryDescriptor> >::operator[](unsigned int)
FUNC 3ca94 34 0 google_breakpad::TypedMDRVA<MDRawExceptionStream>::TypedMDRVA(google_breakpad::MinidumpFileWriter*)
FUNC 3cac8 2a 0 google_breakpad::TypedMDRVA<MDRawExceptionStream>::Allocate()
FUNC 3caf2 10 0 google_breakpad::TypedMDRVA<MDRawExceptionStream>::get()
FUNC 3cb02 10 0 google_breakpad::LinuxDumper::crash_signal_code() const
FUNC 3cb12 10 0 google_breakpad::LinuxDumper::crash_exception_info() const
FUNC 3cb24 9c 0 std::__ndk1::vector<unsigned long long, std::__ndk1::allocator<unsigned long long> >::vector(std::__ndk1::vector<unsigned long long, std::__ndk1::allocator<unsigned long long> > const&)
FUNC 3cbc0 34 0 google_breakpad::TypedMDRVA<MDRawExceptionStream>::~TypedMDRVA()
FUNC 3cbf4 4 0 google_breakpad::minidump_size<MDRawExceptionStream>::size()
FUNC 3cbf8 16 0 std::__ndk1::allocator_traits<std::__ndk1::allocator<unsigned long long> >::select_on_container_copy_construction(std::__ndk1::allocator<unsigned long long> const&)
FUNC 3cc0e 18 0 std::__ndk1::__vector_base<unsigned long long, std::__ndk1::allocator<unsigned long long> >::__alloc() const
FUNC 3cc28 74 0 std::__ndk1::__vector_base<unsigned long long, std::__ndk1::allocator<unsigned long long> >::__vector_base(std::__ndk1::allocator<unsigned long long>&&)
FUNC 3cc9c 60 0 std::__ndk1::vector<unsigned long long, std::__ndk1::allocator<unsigned long long> >::__vallocate(unsigned int)
FUNC 3ccfc 7c 0 std::__ndk1::vector<unsigned long long, std::__ndk1::allocator<unsigned long long> >::__construct_at_end<unsigned long long *>
FUNC 3cd78 c 0 std::__ndk1::allocator_traits<std::__ndk1::allocator<unsigned long long> >::__select_on_container_copy_construction(std::__ndk1::integral_constant<bool, false>, std::__ndk1::allocator<unsigned long long> const&)
FUNC 3cd84 16 0 std::__ndk1::__compressed_pair<unsigned long long*, std::__ndk1::allocator<unsigned long long> >::second() const
FUNC 3cd9a e 0 std::__ndk1::__compressed_pair_elem<std::__ndk1::allocator<unsigned long long>, 1, true>::__get() const
FUNC 3cda8 e 0 std::__ndk1::remove_reference<std::__ndk1::allocator<unsigned long long>&>::type&& std::__ndk1::move<std::__ndk1::allocator<unsigned long long>&>(std::__ndk1::allocator<unsigned long long>&)
FUNC 3cdb6 4c 0 std::__ndk1::__compressed_pair<unsigned long long*, std::__ndk1::allocator<unsigned long long> >::__compressed_pair<decltype(nullptr), std::__ndk1::allocator<unsigned long long> >(decltype(nullptr)&&, std::__ndk1::allocator<unsigned long long>&&)
FUNC 3ce02 e 0 std::__ndk1::allocator<unsigned long long>&& std::__ndk1::forward<std::__ndk1::allocator<unsigned long long> >(std::__ndk1::remove_reference<std::__ndk1::allocator<unsigned long long> >::type&)
FUNC 3ce10 28 0 std::__ndk1::__compressed_pair_elem<std::__ndk1::allocator<unsigned long long>, 1, true>::__compressed_pair_elem<std::__ndk1::allocator<unsigned long long>, void>(std::__ndk1::allocator<unsigned long long>&&)
FUNC 3ce38 64 0 std::__ndk1::vector<unsigned long long, std::__ndk1::allocator<unsigned long long> >::max_size() const
FUNC 3ce9c 24 0 std::__ndk1::allocator_traits<std::__ndk1::allocator<unsigned long long> >::allocate(std::__ndk1::allocator<unsigned long long>&, unsigned int)
FUNC 3cec0 18 0 std::__ndk1::__vector_base<unsigned long long, std::__ndk1::allocator<unsigned long long> >::__end_cap()
FUNC 3ced8 6e 0 std::__ndk1::vector<unsigned long long, std::__ndk1::allocator<unsigned long long> >::__annotate_new(unsigned int) const
FUNC 3cf46 16 0 std::__ndk1::allocator_traits<std::__ndk1::allocator<unsigned long long> >::max_size(std::__ndk1::allocator<unsigned long long> const&)
FUNC 3cf5c 16 0 std::__ndk1::allocator_traits<std::__ndk1::allocator<unsigned long long> >::__max_size(std::__ndk1::integral_constant<bool, true>, std::__ndk1::allocator<unsigned long long> const&)
FUNC 3cf72 10 0 std::__ndk1::allocator<unsigned long long>::max_size() const
FUNC 3cf84 48 0 std::__ndk1::allocator<unsigned long long>::allocate(unsigned int, void const*)
FUNC 3cfcc 16 0 std::__ndk1::__compressed_pair<unsigned long long*, std::__ndk1::allocator<unsigned long long> >::first()
FUNC 3cfe2 e 0 std::__ndk1::__compressed_pair_elem<unsigned long long*, 0, false>::__get()
FUNC 3cff0 22 0 std::__ndk1::vector<unsigned long long, std::__ndk1::allocator<unsigned long long> >::__RAII_IncreaseAnnotator::__RAII_IncreaseAnnotator(std::__ndk1::vector<unsigned long long, std::__ndk1::allocator<unsigned long long> > const&, unsigned int)
FUNC 3d012 54 0 std::__ndk1::allocator_traits<std::__ndk1::allocator<unsigned long long> >::__construct_range_forward<unsigned long long, unsigned long long, unsigned long long, unsigned long long>
FUNC 3d066 c 0 std::__ndk1::vector<unsigned long long, std::__ndk1::allocator<unsigned long long> >::__RAII_IncreaseAnnotator::__done()
FUNC 3d072 32 0 google_breakpad::TypedMDRVA<MDRawExceptionStream>::Flush()
FUNC 3d0a4 32 0 google_breakpad::TypedMDRVA<MDRawSystemInfo>::TypedMDRVA(google_breakpad::MinidumpFileWriter*)
FUNC 3d0d6 28 0 google_breakpad::TypedMDRVA<MDRawSystemInfo>::Allocate()
FUNC 3d0fe 10 0 google_breakpad::TypedMDRVA<MDRawSystemInfo>::get()
FUNC 3d110 470 0 (anonymous namespace)::MinidumpWriter::WriteCPUInformation(MDRawSystemInfo*)
FUNC 3d580 174 0 (anonymous namespace)::MinidumpWriter::WriteOSInformation(MDRawSystemInfo*)
FUNC 3d6f4 32 0 google_breakpad::TypedMDRVA<MDRawSystemInfo>::~TypedMDRVA()
FUNC 3d726 4 0 google_breakpad::minidump_size<MDRawSystemInfo>::size()
FUNC 3d72a 22 0 google_breakpad::CpuSet::CpuSet()
FUNC 3d74c 6a 0 sys_open(char const*, int, int)
FUNC 3d7b8 198 0 google_breakpad::CpuSet::ParseSysFile(int)
FUNC 3d950 4e 0 sys_close(int)
FUNC 3d99e 42 0 google_breakpad::CpuSet::IntersectWith(google_breakpad::CpuSet const&)
FUNC 3d9e0 62 0 google_breakpad::CpuSet::GetCount()
FUNC 3da42 2c 0 google_breakpad::ProcCpuInfoReader::ProcCpuInfoReader(int)
FUNC 3da70 150 0 google_breakpad::ProcCpuInfoReader::GetNextField(char const**)
FUNC 3dbc0 44 0 google_breakpad::ProcCpuInfoReader::GetValue()
FUNC 3dc04 54 0 google_breakpad::ProcCpuInfoReader::GetValueAndLen(unsigned int*)
FUNC 3dc58 6a 0 sys_read(int, void*, unsigned int)
FUNC 3dcc2 44 0 google_breakpad::CpuSet::SetBit(unsigned int)
FUNC 3dd06 5a 0 sys_munmap(void*, unsigned int)
FUNC 3dd60 32 0 google_breakpad::TypedMDRVA<MDRawSystemInfo>::Flush()
FUNC 3dd92 10 0 google_breakpad::LinuxDumper::auxv()
FUNC 3dda2 1c 0 std::__ndk1::vector<unsigned int, google_breakpad::PageStdAllocator<unsigned int> >::operator[](unsigned int) const
FUNC 3ddbe 2e 0 google_breakpad::TypedMDRVA<MDRawLinkMap32>::TypedMDRVA(google_breakpad::MinidumpFileWriter*)
FUNC 3ddec 58 0 google_breakpad::TypedMDRVA<MDRawLinkMap32>::AllocateArray(unsigned int)
FUNC 3de44 84 0 google_breakpad::TypedMDRVA<MDRawLinkMap32>::CopyIndex(unsigned int, MDRawLinkMap32*)
FUNC 3dec8 32 0 google_breakpad::TypedMDRVA<MDRawLinkMap32>::~TypedMDRVA()
FUNC 3defa 34 0 google_breakpad::TypedMDRVA<MDRawDebug32>::TypedMDRVA(google_breakpad::MinidumpFileWriter*)
FUNC 3df30 70 0 google_breakpad::TypedMDRVA<MDRawDebug32>::AllocateObjectAndArray(unsigned int, unsigned int)
FUNC 3dfa0 10 0 google_breakpad::TypedMDRVA<MDRawDebug32>::get()
FUNC 3dfb0 7c 0 google_breakpad::wasteful_vector<char>::wasteful_vector(google_breakpad::PageAllocator*, unsigned int)
FUNC 3e02c 52 0 std::__ndk1::vector<char, google_breakpad::PageStdAllocator<char> >::resize(unsigned int)
FUNC 3e07e 1a 0 std::__ndk1::vector<char, google_breakpad::PageStdAllocator<char> >::operator[](unsigned int)
FUNC 3e098 84 0 google_breakpad::TypedMDRVA<MDRawDebug32>::CopyIndexAfterObject(unsigned int, void const*, unsigned int)
FUNC 3e11c 1a 0 google_breakpad::wasteful_vector<char>::~wasteful_vector()
FUNC 3e136 32 0 google_breakpad::TypedMDRVA<MDRawDebug32>::~TypedMDRVA()
FUNC 3e168 4 0 google_breakpad::minidump_size<MDRawLinkMap32>::size()
FUNC 3e16c 32 0 google_breakpad::TypedMDRVA<MDRawLinkMap32>::Flush()
FUNC 3e19e 4 0 google_breakpad::minidump_size<MDRawDebug32>::size()
FUNC 3e1a2 2c 0 google_breakpad::PageStdAllocator<char>::PageStdAllocator(google_breakpad::PageAllocator&)
FUNC 3e1ce 2a 0 std::__ndk1::vector<char, google_breakpad::PageStdAllocator<char> >::vector(google_breakpad::PageStdAllocator<char> const&)
FUNC 3e1f8 9c 0 std::__ndk1::vector<char, google_breakpad::PageStdAllocator<char> >::reserve(unsigned int)
FUNC 3e294 34 0 std::__ndk1::vector<char, google_breakpad::PageStdAllocator<char> >::~vector()
FUNC 3e2c8 60 0 std::__ndk1::__vector_base<char, google_breakpad::PageStdAllocator<char> >::__vector_base(google_breakpad::PageStdAllocator<char> const&)
FUNC 3e328 54 0 std::__ndk1::__compressed_pair<char*, google_breakpad::PageStdAllocator<char> >::__compressed_pair<decltype(nullptr), google_breakpad::PageStdAllocator<char> const&>(decltype(nullptr)&&, google_breakpad::PageStdAllocator<char> const&)
FUNC 3e37c 2c 0 std::__ndk1::__compressed_pair_elem<char*, 0, false>::__compressed_pair_elem<decltype(nullptr), void>(decltype(nullptr)&&)
FUNC 3e3a8 e 0 google_breakpad::PageStdAllocator<char> const& std::__ndk1::forward<google_breakpad::PageStdAllocator<char> const&>(std::__ndk1::remove_reference<google_breakpad::PageStdAllocator<char> const&>::type&)
FUNC 3e3b6 32 0 std::__ndk1::__compressed_pair_elem<google_breakpad::PageStdAllocator<char>, 1, false>::__compressed_pair_elem<google_breakpad::PageStdAllocator<char> const&, void>(google_breakpad::PageStdAllocator<char> const&)
FUNC 3e3e8 16 0 std::__ndk1::vector<char, google_breakpad::PageStdAllocator<char> >::capacity() const
FUNC 3e3fe 18 0 std::__ndk1::__vector_base<char, google_breakpad::PageStdAllocator<char> >::__alloc()
FUNC 3e416 14 0 std::__ndk1::vector<char, google_breakpad::PageStdAllocator<char> >::size() const
FUNC 3e42c b4 0 std::__ndk1::__split_buffer<char, google_breakpad::PageStdAllocator<char>&>::__split_buffer(unsigned int, unsigned int, google_breakpad::PageStdAllocator<char>&)
FUNC 3e4e0 90 0 std::__ndk1::vector<char, google_breakpad::PageStdAllocator<char> >::__swap_out_circular_buffer(std::__ndk1::__split_buffer<char, google_breakpad::PageStdAllocator<char>&>&)
FUNC 3e570 54 0 std::__ndk1::__split_buffer<char, google_breakpad::PageStdAllocator<char>&>::~__split_buffer()
FUNC 3e5c4 24 0 std::__ndk1::__vector_base<char, google_breakpad::PageStdAllocator<char> >::capacity() const
FUNC 3e5e8 18 0 std::__ndk1::__vector_base<char, google_breakpad::PageStdAllocator<char> >::__end_cap() const
FUNC 3e600 16 0 std::__ndk1::__compressed_pair<char*, google_breakpad::PageStdAllocator<char> >::first() const
FUNC 3e616 e 0 std::__ndk1::__compressed_pair_elem<char*, 0, false>::__get() const
FUNC 3e624 18 0 std::__ndk1::__compressed_pair<char*, google_breakpad::PageStdAllocator<char> >::second()
FUNC 3e63c e 0 std::__ndk1::__compressed_pair_elem<google_breakpad::PageStdAllocator<char>, 1, false>::__get()
FUNC 3e64a 54 0 std::__ndk1::__compressed_pair<char*, google_breakpad::PageStdAllocator<char>&>::__compressed_pair<decltype(nullptr), google_breakpad::PageStdAllocator<char>&>(decltype(nullptr)&&, google_breakpad::PageStdAllocator<char>&)
FUNC 3e69e 24 0 std::__ndk1::allocator_traits<google_breakpad::PageStdAllocator<char> >::allocate(google_breakpad::PageStdAllocator<char>&, unsigned int)
FUNC 3e6c2 18 0 std::__ndk1::__split_buffer<char, google_breakpad::PageStdAllocator<char>&>::__alloc()
FUNC 3e6da 18 0 std::__ndk1::__split_buffer<char, google_breakpad::PageStdAllocator<char>&>::__end_cap()
FUNC 3e6f2 e 0 google_breakpad::PageStdAllocator<char>& std::__ndk1::forward<google_breakpad::PageStdAllocator<char>&>(std::__ndk1::remove_reference<google_breakpad::PageStdAllocator<char>&>::type&)
FUNC 3e700 28 0 std::__ndk1::__compressed_pair_elem<google_breakpad::PageStdAllocator<char>&, 1, false>::__compressed_pair_elem<google_breakpad::PageStdAllocator<char>&, void>(google_breakpad::PageStdAllocator<char>&)
FUNC 3e728 4a 0 google_breakpad::PageStdAllocator<char>::allocate(unsigned int, void const*)
FUNC 3e772 18 0 std::__ndk1::__compressed_pair<char*, google_breakpad::PageStdAllocator<char>&>::second()
FUNC 3e78a 10 0 std::__ndk1::__compressed_pair_elem<google_breakpad::PageStdAllocator<char>&, 1, false>::__get()
FUNC 3e79a 16 0 std::__ndk1::__compressed_pair<char*, google_breakpad::PageStdAllocator<char>&>::first()
FUNC 3e7b0 e 0 std::__ndk1::__compressed_pair_elem<char*, 0, false>::__get()
FUNC 3e7be 6c 0 std::__ndk1::vector<char, google_breakpad::PageStdAllocator<char> >::__annotate_delete() const
FUNC 3e82a 68 0 void std::__ndk1::allocator_traits<google_breakpad::PageStdAllocator<char> >::__construct_backward<char*>(google_breakpad::PageStdAllocator<char>&, char*, char*, char*&)
FUNC 3e894 5c 0 std::__ndk1::swap<char *>
FUNC 3e8f0 18 0 std::__ndk1::__vector_base<char, google_breakpad::PageStdAllocator<char> >::__end_cap()
FUNC 3e908 68 0 std::__ndk1::vector<char, google_breakpad::PageStdAllocator<char> >::__annotate_new(unsigned int) const
FUNC 3e970 c 0 std::__ndk1::vector<char, google_breakpad::PageStdAllocator<char> >::__invalidate_all_iterators()
FUNC 3e97c 34 0 std::__ndk1::vector<char, google_breakpad::PageStdAllocator<char> >::__annotate_contiguous_container(void const*, void const*, void const*, void const*) const
FUNC 3e9b0 18 0 std::__ndk1::vector<char, google_breakpad::PageStdAllocator<char> >::data() const
FUNC 3e9c8 3e 0 void std::__ndk1::allocator_traits<google_breakpad::PageStdAllocator<char> >::construct<char, char>(google_breakpad::PageStdAllocator<char>&, char*, char&&)
FUNC 3ea06 16 0 std::__ndk1::move_if_noexcept<char>
FUNC 3ea1c 3e 0 void std::__ndk1::allocator_traits<google_breakpad::PageStdAllocator<char> >::__construct<char, char>(std::__ndk1::integral_constant<bool, true>, google_breakpad::PageStdAllocator<char>&, char*, char&&)
FUNC 3ea5a e 0 char&& std::__ndk1::forward<char>(std::__ndk1::remove_reference<char>::type&)
FUNC 3ea68 32 0 void std::__ndk1::allocator<char>::construct<char, char>(char*, char&&)
FUNC 3ea9a e 0 std::__ndk1::remove_reference<char&>::type&& std::__ndk1::move<char&>(char&)
FUNC 3eaa8 e 0 std::__ndk1::remove_reference<char*&>::type&& std::__ndk1::move<char*&>(char*&)
FUNC 3eab6 16 0 std::__ndk1::__compressed_pair<char*, google_breakpad::PageStdAllocator<char> >::first()
FUNC 3eacc 1a 0 std::__ndk1::__split_buffer<char, google_breakpad::PageStdAllocator<char>&>::clear()
FUNC 3eae6 32 0 std::__ndk1::allocator_traits<google_breakpad::PageStdAllocator<char> >::deallocate(google_breakpad::PageStdAllocator<char>&, char*, unsigned int)
FUNC 3eb18 24 0 std::__ndk1::__split_buffer<char, google_breakpad::PageStdAllocator<char>&>::capacity() const
FUNC 3eb3c 1e 0 std::__ndk1::__split_buffer<char, google_breakpad::PageStdAllocator<char>&>::__destruct_at_end(char*)
FUNC 3eb5a 5a 0 std::__ndk1::__split_buffer<char, google_breakpad::PageStdAllocator<char>&>::__destruct_at_end(char*, std::__ndk1::integral_constant<bool, false>)
FUNC 3ebb4 1e 0 void std::__ndk1::allocator_traits<google_breakpad::PageStdAllocator<char> >::destroy<char>(google_breakpad::PageStdAllocator<char>&, char*)
FUNC 3ebd2 1e 0 void std::__ndk1::allocator_traits<google_breakpad::PageStdAllocator<char> >::__destroy<char>(std::__ndk1::integral_constant<bool, true>, google_breakpad::PageStdAllocator<char>&, char*)
FUNC 3ebf0 12 0 std::__ndk1::allocator<char>::destroy(char*)
FUNC 3ec02 20 0 google_breakpad::PageStdAllocator<char>::deallocate(char*, unsigned int)
FUNC 3ec22 18 0 std::__ndk1::__split_buffer<char, google_breakpad::PageStdAllocator<char>&>::__end_cap() const
FUNC 3ec3a 16 0 std::__ndk1::__compressed_pair<char*, google_breakpad::PageStdAllocator<char>&>::first() const
FUNC 3ec50 4e 0 std::__ndk1::__vector_base<char, google_breakpad::PageStdAllocator<char> >::~__vector_base()
FUNC 3ec9e 1a 0 std::__ndk1::__vector_base<char, google_breakpad::PageStdAllocator<char> >::clear()
FUNC 3ecb8 62 0 std::__ndk1::__vector_base<char, google_breakpad::PageStdAllocator<char> >::__destruct_at_end(char*)
FUNC 3ed1c c8 0 std::__ndk1::vector<char, google_breakpad::PageStdAllocator<char> >::__append(unsigned int)
FUNC 3ede4 42 0 std::__ndk1::vector<char, google_breakpad::PageStdAllocator<char> >::__destruct_at_end(char*)
FUNC 3ee28 8c 0 std::__ndk1::vector<char, google_breakpad::PageStdAllocator<char> >::__construct_at_end(unsigned int)
FUNC 3eeb4 8c 0 std::__ndk1::vector<char, google_breakpad::PageStdAllocator<char> >::__recommend(unsigned int) const
FUNC 3ef40 54 0 std::__ndk1::__split_buffer<char, google_breakpad::PageStdAllocator<char>&>::__construct_at_end(unsigned int)
FUNC 3ef94 22 0 std::__ndk1::vector<char, google_breakpad::PageStdAllocator<char> >::__RAII_IncreaseAnnotator::__RAII_IncreaseAnnotator(std::__ndk1::vector<char, google_breakpad::PageStdAllocator<char> > const&, unsigned int)
FUNC 3efb6 1e 0 void std::__ndk1::allocator_traits<google_breakpad::PageStdAllocator<char> >::construct<char>(google_breakpad::PageStdAllocator<char>&, char*)
FUNC 3efd4 c 0 std::__ndk1::vector<char, google_breakpad::PageStdAllocator<char> >::__RAII_IncreaseAnnotator::__done()
FUNC 3efe0 1e 0 void std::__ndk1::allocator_traits<google_breakpad::PageStdAllocator<char> >::__construct<char>(std::__ndk1::integral_constant<bool, true>, google_breakpad::PageStdAllocator<char>&, char*)
FUNC 3effe 18 0 void std::__ndk1::allocator<char>::construct<char>(char*)
FUNC 3f018 64 0 std::__ndk1::vector<char, google_breakpad::PageStdAllocator<char> >::max_size() const
FUNC 3f07c 16 0 std::__ndk1::allocator_traits<google_breakpad::PageStdAllocator<char> >::max_size(google_breakpad::PageStdAllocator<char> const&)
FUNC 3f092 18 0 std::__ndk1::__vector_base<char, google_breakpad::PageStdAllocator<char> >::__alloc() const
FUNC 3f0aa 16 0 std::__ndk1::allocator_traits<google_breakpad::PageStdAllocator<char> >::__max_size(std::__ndk1::integral_constant<bool, true>, google_breakpad::PageStdAllocator<char> const&)
FUNC 3f0c0 18 0 std::__ndk1::__compressed_pair<char*, google_breakpad::PageStdAllocator<char> >::second() const
FUNC 3f0d8 e 0 std::__ndk1::__compressed_pair_elem<google_breakpad::PageStdAllocator<char>, 1, false>::__get() const
FUNC 3f0e6 12 0 std::__ndk1::vector<char, google_breakpad::PageStdAllocator<char> >::__invalidate_iterators_past(char*)
FUNC 3f0f8 68 0 std::__ndk1::vector<char, google_breakpad::PageStdAllocator<char> >::__annotate_shrink(unsigned int) const
FUNC 3f160 32 0 google_breakpad::TypedMDRVA<MDRawDebug32>::Flush()
FUNC 3f192 32 0 google_breakpad::TypedMDRVA<MDRawDirectory>::Flush()
FUNC 3f1c4 1e 0 google_breakpad::MinidumpFileWriter::MinidumpFileWriter()
FUNC 3f1e2 34 0 google_breakpad::MinidumpFileWriter::~MinidumpFileWriter()
FUNC 3f216 7a 0 google_breakpad::MinidumpFileWriter::Close()
FUNC 3f290 60 0 google_breakpad::MinidumpFileWriter::Open(char const*)
FUNC 3f2f0 6a 0 sys_open(char const*, int, int)
FUNC 3f35c 54 0 google_breakpad::MinidumpFileWriter::SetFile(int)
FUNC 3f3b0 78 0 (anonymous namespace)::CheckNeedsFTruncateWorkAround(int)
FUNC 3f428 10 0 (anonymous namespace)::NeedsFTruncateWorkAround()
FUNC 3f438 4e 0 sys_close(int)
FUNC 3f488 f0 0 google_breakpad::MinidumpFileWriter::CopyStringToMDString(wchar_t const*, unsigned int, google_breakpad::TypedMDRVA<MDString>*)
FUNC 3f578 84 0 google_breakpad::TypedMDRVA<MDString>::CopyIndexAfterObject(unsigned int, void const*, unsigned int)
FUNC 3f5fc f4 0 google_breakpad::MinidumpFileWriter::CopyStringToMDString(char const*, unsigned int, google_breakpad::TypedMDRVA<MDString>*)
FUNC 3f6f0 32 0 google_breakpad::MinidumpFileWriter::WriteString(wchar_t const*, unsigned int, MDLocationDescriptor*)
FUNC 3f724 1e0 0 bool google_breakpad::MinidumpFileWriter::WriteStringCore<wchar_t>(wchar_t const*, unsigned int, MDLocationDescriptor*)
FUNC 3f904 32 0 google_breakpad::MinidumpFileWriter::WriteString(char const*, unsigned int, MDLocationDescriptor*)
FUNC 3f938 1dc 0 bool google_breakpad::MinidumpFileWriter::WriteStringCore<char>(char const*, unsigned int, MDLocationDescriptor*)
FUNC 3fb14 124 0 google_breakpad::MinidumpFileWriter::WriteMemory(void const*, unsigned int, MDMemoryDescriptor*)
FUNC 3fc38 60 0 google_breakpad::UntypedMDRVA::Allocate(unsigned int)
FUNC 3fc98 10 0 google_breakpad::UntypedMDRVA::size() const
FUNC 3fca8 10c 0 google_breakpad::MinidumpFileWriter::Allocate(unsigned int)
FUNC 3fdb4 104 0 google_breakpad::MinidumpFileWriter::Copy(unsigned int, void const*, int)
FUNC 3feb8 6a 0 sys_lseek(int, long, int)
FUNC 3ff22 6a 0 sys_write(int, void const*, unsigned int)
FUNC 3ff8c c4 0 google_breakpad::UntypedMDRVA::Copy(unsigned int, void const*, unsigned int)
FUNC 40050 4 0 google_breakpad::minidump_size<MDString>::size()
FUNC 40054 2c 0 google_breakpad::TypedMDRVA<MDString>::TypedMDRVA(google_breakpad::MinidumpFileWriter*)
FUNC 40080 70 0 google_breakpad::TypedMDRVA<MDString>::AllocateObjectAndArray(unsigned int, unsigned int)
FUNC 400f0 10 0 google_breakpad::TypedMDRVA<MDString>::get()
FUNC 40100 32 0 google_breakpad::TypedMDRVA<MDString>::~TypedMDRVA()
FUNC 40132 32 0 google_breakpad::TypedMDRVA<MDString>::Flush()
FUNC 40164 f4 0 google_breakpad::UTF8ToUTF16(char const*, std::__ndk1::vector<unsigned short, std::__ndk1::allocator<unsigned short> >*)
FUNC 40258 38 0 std::__ndk1::vector<unsigned short, std::__ndk1::allocator<unsigned short> >::clear()
FUNC 40290 1d4 0 std::__ndk1::vector<unsigned short, std::__ndk1::allocator<unsigned short> >::insert(std::__ndk1::__wrap_iter<unsigned short const*>, unsigned int, unsigned short const&)
FUNC 40464 1e 0 std::__ndk1::vector<unsigned short, std::__ndk1::allocator<unsigned short> >::begin()
FUNC 40482 32 0 std::__ndk1::__wrap_iter<const unsigned short *>::__wrap_iter<unsigned short *>
FUNC 404b4 1c 0 std::__ndk1::vector<unsigned short, std::__ndk1::allocator<unsigned short> >::operator[](unsigned int)
FUNC 404d0 16 0 std::__ndk1::vector<unsigned short, std::__ndk1::allocator<unsigned short> >::capacity() const
FUNC 404e6 54 0 std::__ndk1::vector<unsigned short, std::__ndk1::allocator<unsigned short> >::resize(unsigned int)
FUNC 4053c b4 0 google_breakpad::UTF8ToUTF16Char(char const*, int, unsigned short*)
FUNC 405f0 f4 0 google_breakpad::UTF32ToUTF16(wchar_t const*, std::__ndk1::vector<unsigned short, std::__ndk1::allocator<unsigned short> >*)
FUNC 406e4 90 0 google_breakpad::UTF32ToUTF16Char(wchar_t, unsigned short*)
FUNC 40774 1d4 0 google_breakpad::UTF16ToUTF8(std::__ndk1::vector<unsigned short, std::__ndk1::allocator<unsigned short> > const&, bool)
FUNC 40948 1c 0 std::__ndk1::vector<unsigned short, std::__ndk1::allocator<unsigned short> >::operator[](unsigned int) const
FUNC 40964 18 0 google_breakpad::scoped_array<unsigned short>::scoped_array(unsigned short*)
FUNC 4097c 42 0 google_breakpad::scoped_array<unsigned short>::reset(unsigned short*)
FUNC 409be 16 0 std::__ndk1::vector<unsigned short, std::__ndk1::allocator<unsigned short> >::size() const
FUNC 409d4 10 0 google_breakpad::scoped_array<unsigned short>::get() const
FUNC 409e4 1e 0 std::__ndk1::vector<unsigned short, std::__ndk1::allocator<unsigned short> >::begin() const
FUNC 40a02 22 0 bool std::__ndk1::operator!=<unsigned short const*>(std::__ndk1::__wrap_iter<unsigned short const*> const&, std::__ndk1::__wrap_iter<unsigned short const*> const&)
FUNC 40a24 1e 0 std::__ndk1::vector<unsigned short, std::__ndk1::allocator<unsigned short> >::end() const
FUNC 40a42 14 0 google_breakpad::Swap(unsigned short)
FUNC 40a56 10 0 std::__ndk1::__wrap_iter<unsigned short const*>::operator*() const
FUNC 40a66 14 0 std::__ndk1::__wrap_iter<unsigned short const*>::operator++()
FUNC 40a7a 18 0 google_breakpad::scoped_array<unsigned char>::scoped_array(unsigned char*)
FUNC 40a92 10 0 google_breakpad::scoped_array<unsigned char>::get() const
FUNC 40aa2 28 0 google_breakpad::scoped_array<unsigned char>::~scoped_array()
FUNC 40aca 28 0 google_breakpad::scoped_array<unsigned short>::~scoped_array()
FUNC 40af2 10 0 std::__ndk1::__wrap_iter<unsigned short*>::base() const
FUNC 40b02 30 0 bool std::__ndk1::operator==<unsigned short const*, unsigned short const*>(std::__ndk1::__wrap_iter<unsigned short const*> const&, std::__ndk1::__wrap_iter<unsigned short const*> const&)
FUNC 40b32 10 0 std::__ndk1::__wrap_iter<unsigned short const*>::base() const
FUNC 40b42 1a 0 std::__ndk1::__vector_base<unsigned short, std::__ndk1::allocator<unsigned short> >::clear()
FUNC 40b5c 6e 0 std::__ndk1::vector<unsigned short, std::__ndk1::allocator<unsigned short> >::__annotate_shrink(unsigned int) const
FUNC 40bca c 0 std::__ndk1::vector<unsigned short, std::__ndk1::allocator<unsigned short> >::__invalidate_all_iterators()
FUNC 40bd6 62 0 std::__ndk1::__vector_base<unsigned short, std::__ndk1::allocator<unsigned short> >::__destruct_at_end(unsigned short*)
FUNC 40c38 1e 0 void std::__ndk1::allocator_traits<std::__ndk1::allocator<unsigned short> >::destroy<unsigned short>(std::__ndk1::allocator<unsigned short>&, unsigned short*)
FUNC 40c56 18 0 std::__ndk1::__vector_base<unsigned short, std::__ndk1::allocator<unsigned short> >::__alloc()
FUNC 40c6e e 0 unsigned short* std::__ndk1::__to_raw_pointer<unsigned short>(unsigned short*)
FUNC 40c7c 1e 0 void std::__ndk1::allocator_traits<std::__ndk1::allocator<unsigned short> >::__destroy<unsigned short>(std::__ndk1::integral_constant<bool, true>, std::__ndk1::allocator<unsigned short>&, unsigned short*)
FUNC 40c9a 12 0 std::__ndk1::allocator<unsigned short>::destroy(unsigned short*)
FUNC 40cac 16 0 std::__ndk1::__compressed_pair<unsigned short*, std::__ndk1::allocator<unsigned short> >::second()
FUNC 40cc2 e 0 std::__ndk1::__compressed_pair_elem<std::__ndk1::allocator<unsigned short>, 1, true>::__get()
FUNC 40cd0 34 0 std::__ndk1::vector<unsigned short, std::__ndk1::allocator<unsigned short> >::__annotate_contiguous_container(void const*, void const*, void const*, void const*) const
FUNC 40d04 18 0 std::__ndk1::vector<unsigned short, std::__ndk1::allocator<unsigned short> >::data() const
FUNC 40d1c 48 0 std::__ndk1::vector<unsigned short, std::__ndk1::allocator<unsigned short> >::__make_iter(unsigned short*)
FUNC 40d64 18 0 std::__ndk1::__wrap_iter<unsigned short*>::__wrap_iter(unsigned short*)
FUNC 40d7c 2c 0 decltype ((({parm#1}.base)())-(({parm#2}.base)())) std::__ndk1::operator-<unsigned short const*, unsigned short*>(std::__ndk1::__wrap_iter<unsigned short const*> const&, std::__ndk1::__wrap_iter<unsigned short*> const&)
FUNC 40da8 18 0 std::__ndk1::__vector_base<unsigned short, std::__ndk1::allocator<unsigned short> >::__end_cap()
FUNC 40dc0 98 0 std::__ndk1::vector<unsigned short, std::__ndk1::allocator<unsigned short> >::__construct_at_end(unsigned int, unsigned short const&)
FUNC 40e58 22 0 std::__ndk1::vector<unsigned short, std::__ndk1::allocator<unsigned short> >::__RAII_IncreaseAnnotator::__RAII_IncreaseAnnotator(std::__ndk1::vector<unsigned short, std::__ndk1::allocator<unsigned short> > const&, unsigned int)
FUNC 40e7a 9e 0 std::__ndk1::vector<unsigned short, std::__ndk1::allocator<unsigned short> >::__move_range(unsigned short*, unsigned short*, unsigned short*)
FUNC 40f18 c 0 std::__ndk1::vector<unsigned short, std::__ndk1::allocator<unsigned short> >::__RAII_IncreaseAnnotator::__done()
FUNC 40f24 16 0 std::__ndk1::pointer_traits<unsigned short const*>::pointer_to(unsigned short const&)
FUNC 40f3a 3a 0 unsigned short* std::__ndk1::fill_n<unsigned short*, unsigned int, unsigned short>(unsigned short*, unsigned int, unsigned short const&)
FUNC 40f74 8c 0 std::__ndk1::vector<unsigned short, std::__ndk1::allocator<unsigned short> >::__recommend(unsigned int) const
FUNC 41000 b8 0 std::__ndk1::__split_buffer<unsigned short, std::__ndk1::allocator<unsigned short>&>::__split_buffer(unsigned int, unsigned int, std::__ndk1::allocator<unsigned short>&)
FUNC 410b8 60 0 std::__ndk1::__split_buffer<unsigned short, std::__ndk1::allocator<unsigned short>&>::__construct_at_end(unsigned int, unsigned short const&)
FUNC 41118 b4 0 std::__ndk1::vector<unsigned short, std::__ndk1::allocator<unsigned short> >::__swap_out_circular_buffer(std::__ndk1::__split_buffer<unsigned short, std::__ndk1::allocator<unsigned short>&>&, unsigned short*)
FUNC 411cc 54 0 std::__ndk1::__split_buffer<unsigned short, std::__ndk1::allocator<unsigned short>&>::~__split_buffer()
FUNC 41220 16 0 std::__ndk1::__compressed_pair<unsigned short*, std::__ndk1::allocator<unsigned short> >::first()
FUNC 41236 e 0 std::__ndk1::__compressed_pair_elem<unsigned short*, 0, false>::__get()
FUNC 41244 3e 0 void std::__ndk1::allocator_traits<std::__ndk1::allocator<unsigned short> >::construct<unsigned short, unsigned short const&>(std::__ndk1::allocator<unsigned short>&, unsigned short*, unsigned short const&)
FUNC 41282 3e 0 void std::__ndk1::allocator_traits<std::__ndk1::allocator<unsigned short> >::__construct<unsigned short, unsigned short const&>(std::__ndk1::integral_constant<bool, true>, std::__ndk1::allocator<unsigned short>&, unsigned short*, unsigned short const&)
FUNC 412c0 e 0 unsigned short const& std::__ndk1::forward<unsigned short const&>(std::__ndk1::remove_reference<unsigned short const&>::type&)
FUNC 412ce 32 0 void std::__ndk1::allocator<unsigned short>::construct<unsigned short, unsigned short const&>(unsigned short*, unsigned short const&)
FUNC 41300 3e 0 void std::__ndk1::allocator_traits<std::__ndk1::allocator<unsigned short> >::construct<unsigned short, unsigned short>(std::__ndk1::allocator<unsigned short>&, unsigned short*, unsigned short&&)
FUNC 4133e e 0 std::__ndk1::remove_reference<unsigned short&>::type&& std::__ndk1::move<unsigned short&>(unsigned short&)
FUNC 4134c 48 0 unsigned short* std::__ndk1::move_backward<unsigned short*, unsigned short*>(unsigned short*, unsigned short*, unsigned short*)
FUNC 41394 3e 0 void std::__ndk1::allocator_traits<std::__ndk1::allocator<unsigned short> >::__construct<unsigned short, unsigned short>(std::__ndk1::integral_constant<bool, true>, std::__ndk1::allocator<unsigned short>&, unsigned short*, unsigned short&&)
FUNC 413d2 e 0 unsigned short&& std::__ndk1::forward<unsigned short>(std::__ndk1::remove_reference<unsigned short>::type&)
FUNC 413e0 32 0 void std::__ndk1::allocator<unsigned short>::construct<unsigned short, unsigned short>(unsigned short*, unsigned short&&)
FUNC 41412 4c 0 std::__ndk1::__move_backward<unsigned short, unsigned short>
FUNC 4145e e 0 unsigned short* std::__ndk1::__unwrap_iter<unsigned short*>(unsigned short*)
FUNC 4146c e 0 unsigned short const* std::__ndk1::addressof<unsigned short const>(unsigned short const&)
FUNC 4147a 44 0 unsigned short* std::__ndk1::__fill_n<unsigned short*, unsigned int, unsigned short>(unsigned short*, unsigned int, unsigned short const&)
FUNC 414be e 0 std::__ndk1::__convert_to_integral(unsigned int)
FUNC 414cc 64 0 std::__ndk1::vector<unsigned short, std::__ndk1::allocator<unsigned short> >::max_size() const
FUNC 41530 16 0 std::__ndk1::allocator_traits<std::__ndk1::allocator<unsigned short> >::max_size(std::__ndk1::allocator<unsigned short> const&)
FUNC 41546 18 0 std::__ndk1::__vector_base<unsigned short, std::__ndk1::allocator<unsigned short> >::__alloc() const
FUNC 4155e 16 0 std::__ndk1::allocator_traits<std::__ndk1::allocator<unsigned short> >::__max_size(std::__ndk1::integral_constant<bool, true>, std::__ndk1::allocator<unsigned short> const&)
FUNC 41574 10 0 std::__ndk1::allocator<unsigned short>::max_size() const
FUNC 41584 16 0 std::__ndk1::__compressed_pair<unsigned short*, std::__ndk1::allocator<unsigned short> >::second() const
FUNC 4159a e 0 std::__ndk1::__compressed_pair_elem<std::__ndk1::allocator<unsigned short>, 1, true>::__get() const
FUNC 415a8 54 0 std::__ndk1::__compressed_pair<unsigned short*, std::__ndk1::allocator<unsigned short>&>::__compressed_pair<decltype(nullptr), std::__ndk1::allocator<unsigned short>&>(decltype(nullptr)&&, std::__ndk1::allocator<unsigned short>&)
FUNC 415fc 24 0 std::__ndk1::allocator_traits<std::__ndk1::allocator<unsigned short> >::allocate(std::__ndk1::allocator<unsigned short>&, unsigned int)
FUNC 41620 18 0 std::__ndk1::__split_buffer<unsigned short, std::__ndk1::allocator<unsigned short>&>::__alloc()
FUNC 41638 18 0 std::__ndk1::__split_buffer<unsigned short, std::__ndk1::allocator<unsigned short>&>::__end_cap()
FUNC 41650 2c 0 std::__ndk1::__compressed_pair_elem<unsigned short*, 0, false>::__compressed_pair_elem<decltype(nullptr), void>(decltype(nullptr)&&)
FUNC 4167c e 0 std::__ndk1::allocator<unsigned short>& std::__ndk1::forward<std::__ndk1::allocator<unsigned short>&>(std::__ndk1::remove_reference<std::__ndk1::allocator<unsigned short>&>::type&)
FUNC 4168a 28 0 std::__ndk1::__compressed_pair_elem<std::__ndk1::allocator<unsigned short>&, 1, false>::__compressed_pair_elem<std::__ndk1::allocator<unsigned short>&, void>(std::__ndk1::allocator<unsigned short>&)
FUNC 416b4 48 0 std::__ndk1::allocator<unsigned short>::allocate(unsigned int, void const*)
FUNC 416fc 18 0 std::__ndk1::__compressed_pair<unsigned short*, std::__ndk1::allocator<unsigned short>&>::second()
FUNC 41714 10 0 std::__ndk1::__compressed_pair_elem<std::__ndk1::allocator<unsigned short>&, 1, false>::__get()
FUNC 41724 16 0 std::__ndk1::__compressed_pair<unsigned short*, std::__ndk1::allocator<unsigned short>&>::first()
FUNC 4173a 72 0 std::__ndk1::vector<unsigned short, std::__ndk1::allocator<unsigned short> >::__annotate_delete() const
FUNC 417ac 56 0 std::__ndk1::allocator_traits<std::__ndk1::allocator<unsigned short> >::__construct_backward<unsigned short>
FUNC 41802 58 0 std::__ndk1::allocator_traits<std::__ndk1::allocator<unsigned short> >::__construct_forward<unsigned short>
FUNC 4185c 5c 0 std::__ndk1::swap<unsigned short *>
FUNC 418b8 6e 0 std::__ndk1::vector<unsigned short, std::__ndk1::allocator<unsigned short> >::__annotate_new(unsigned int) const
FUNC 41926 e 0 std::__ndk1::remove_reference<unsigned short*&>::type&& std::__ndk1::move<unsigned short*&>(unsigned short*&)
FUNC 41934 1a 0 std::__ndk1::__split_buffer<unsigned short, std::__ndk1::allocator<unsigned short>&>::clear()
FUNC 4194e 2a 0 std::__ndk1::allocator_traits<std::__ndk1::allocator<unsigned short> >::deallocate(std::__ndk1::allocator<unsigned short>&, unsigned short*, unsigned int)
FUNC 41978 26 0 std::__ndk1::__split_buffer<unsigned short, std::__ndk1::allocator<unsigned short>&>::capacity() const
FUNC 4199e 1e 0 std::__ndk1::__split_buffer<unsigned short, std::__ndk1::allocator<unsigned short>&>::__destruct_at_end(unsigned short*)
FUNC 419bc 5a 0 std::__ndk1::__split_buffer<unsigned short, std::__ndk1::allocator<unsigned short>&>::__destruct_at_end(unsigned short*, std::__ndk1::integral_constant<bool, false>)
FUNC 41a16 34 0 std::__ndk1::allocator<unsigned short>::deallocate(unsigned short*, unsigned int)
FUNC 41a4a 18 0 std::__ndk1::__split_buffer<unsigned short, std::__ndk1::allocator<unsigned short>&>::__end_cap() const
FUNC 41a62 16 0 std::__ndk1::__compressed_pair<unsigned short*, std::__ndk1::allocator<unsigned short>&>::first() const
FUNC 41a78 e 0 std::__ndk1::__compressed_pair_elem<unsigned short*, 0, false>::__get() const
FUNC 41a86 26 0 std::__ndk1::__vector_base<unsigned short, std::__ndk1::allocator<unsigned short> >::capacity() const
FUNC 41aac 18 0 std::__ndk1::__vector_base<unsigned short, std::__ndk1::allocator<unsigned short> >::__end_cap() const
FUNC 41ac4 16 0 std::__ndk1::__compressed_pair<unsigned short*, std::__ndk1::allocator<unsigned short> >::first() const
FUNC 41adc cc 0 std::__ndk1::vector<unsigned short, std::__ndk1::allocator<unsigned short> >::__append(unsigned int)
FUNC 41ba8 42 0 std::__ndk1::vector<unsigned short, std::__ndk1::allocator<unsigned short> >::__destruct_at_end(unsigned short*)
FUNC 41bec 8c 0 std::__ndk1::vector<unsigned short, std::__ndk1::allocator<unsigned short> >::__construct_at_end(unsigned int)
FUNC 41c78 54 0 std::__ndk1::__split_buffer<unsigned short, std::__ndk1::allocator<unsigned short>&>::__construct_at_end(unsigned int)
FUNC 41ccc 90 0 std::__ndk1::vector<unsigned short, std::__ndk1::allocator<unsigned short> >::__swap_out_circular_buffer(std::__ndk1::__split_buffer<unsigned short, std::__ndk1::allocator<unsigned short>&>&)
FUNC 41d5c 1e 0 void std::__ndk1::allocator_traits<std::__ndk1::allocator<unsigned short> >::construct<unsigned short>(std::__ndk1::allocator<unsigned short>&, unsigned short*)
FUNC 41d7a 1e 0 void std::__ndk1::allocator_traits<std::__ndk1::allocator<unsigned short> >::__construct<unsigned short>(std::__ndk1::integral_constant<bool, true>, std::__ndk1::allocator<unsigned short>&, unsigned short*)
FUNC 41d98 18 0 void std::__ndk1::allocator<unsigned short>::construct<unsigned short>(unsigned short*)
FUNC 41db0 12 0 std::__ndk1::vector<unsigned short, std::__ndk1::allocator<unsigned short> >::__invalidate_iterators_past(unsigned short*)
FUNC 41dc4 48 0 std::__ndk1::vector<unsigned short, std::__ndk1::allocator<unsigned short> >::__make_iter(unsigned short const*) const
FUNC 41e0c 18 0 std::__ndk1::__wrap_iter<unsigned short const*>::__wrap_iter(unsigned short const*)
FUNC 41e24 2c 0 google_breakpad::IsValidElf(void const*)
FUNC 41e50 14 0 google_breakpad::ElfClass(void const*)
FUNC 41e64 140 0 google_breakpad::FindElfSection(void const*, char const*, unsigned int, void const**, unsigned int*)
FUNC 41fa4 18c 0 void google_breakpad::(anonymous namespace)::FindElfClassSection<google_breakpad::ElfClass32>(char const*, char const*, google_breakpad::ElfClass32::Word, void const**, unsigned int*)
FUNC 42130 198 0 void google_breakpad::(anonymous namespace)::FindElfClassSection<google_breakpad::ElfClass64>(char const*, char const*, google_breakpad::ElfClass64::Word, void const**, unsigned int*)
FUNC 422c8 d4 0 google_breakpad::FindElfSegments(void const*, unsigned int, google_breakpad::wasteful_vector<google_breakpad::ElfSegment>*)
FUNC 4239c 15c 0 void google_breakpad::(anonymous namespace)::FindElfClassSegment<google_breakpad::ElfClass32>(char const*, google_breakpad::ElfClass32::Word, google_breakpad::wasteful_vector<google_breakpad::ElfSegment>*)
FUNC 424f8 16c 0 void google_breakpad::(anonymous namespace)::FindElfClassSegment<google_breakpad::ElfClass64>(char const*, google_breakpad::ElfClass64::Word, google_breakpad::wasteful_vector<google_breakpad::ElfSegment>*)
FUNC 42664 114 0 google_breakpad::ElfFileSoNameFromMappedFile(void const*, char*, unsigned int)
FUNC 42778 e0 0 bool google_breakpad::FindElfSoNameFromDynamicSection<google_breakpad::ElfClass32>(void const*, unsigned int, void const*, unsigned int, char*, unsigned int)
FUNC 42858 f2 0 bool google_breakpad::FindElfSoNameFromDynamicSection<google_breakpad::ElfClass64>(void const*, unsigned int, void const*, unsigned int, char*, unsigned int)
FUNC 4294a 18 0 elf32_shdr const* google_breakpad::GetOffset<google_breakpad::ElfClass32, elf32_shdr>(google_breakpad::ElfClass32::Ehdr const*, google_breakpad::ElfClass32::Off)
FUNC 42962 18 0 char const* google_breakpad::GetOffset<google_breakpad::ElfClass32, char>(google_breakpad::ElfClass32::Ehdr const*, google_breakpad::ElfClass32::Off)
FUNC 4297c 144 0 google_breakpad::ElfClass32::Shdr const* google_breakpad::FindElfSectionByName<google_breakpad::ElfClass32>(char const*, google_breakpad::ElfClass32::Word, google_breakpad::ElfClass32::Shdr const*, char const*, char const*, int)
FUNC 42ac0 26 0 elf64_shdr const* google_breakpad::GetOffset<google_breakpad::ElfClass64, elf64_shdr>(google_breakpad::ElfClass64::Ehdr const*, google_breakpad::ElfClass64::Off)
FUNC 42ae6 26 0 char const* google_breakpad::GetOffset<google_breakpad::ElfClass64, char>(google_breakpad::ElfClass64::Ehdr const*, google_breakpad::ElfClass64::Off)
FUNC 42b0c 138 0 google_breakpad::ElfClass64::Shdr const* google_breakpad::FindElfSectionByName<google_breakpad::ElfClass64>(char const*, google_breakpad::ElfClass64::Word, google_breakpad::ElfClass64::Shdr const*, char const*, char const*, int)
FUNC 42c44 18 0 elf32_phdr const* google_breakpad::GetOffset<google_breakpad::ElfClass32, elf32_phdr>(google_breakpad::ElfClass32::Ehdr const*, google_breakpad::ElfClass32::Off)
FUNC 42c5c 98 0 std::__ndk1::vector<google_breakpad::ElfSegment, google_breakpad::PageStdAllocator<google_breakpad::ElfSegment> >::push_back(google_breakpad::ElfSegment const&)
FUNC 42cf4 18 0 std::__ndk1::__vector_base<google_breakpad::ElfSegment, google_breakpad::PageStdAllocator<google_breakpad::ElfSegment> >::__end_cap()
FUNC 42d0c 22 0 std::__ndk1::vector<google_breakpad::ElfSegment, google_breakpad::PageStdAllocator<google_breakpad::ElfSegment> >::__RAII_IncreaseAnnotator::__RAII_IncreaseAnnotator(std::__ndk1::vector<google_breakpad::ElfSegment, google_breakpad::PageStdAllocator<google_breakpad::ElfSegment> > const&, unsigned int)
FUNC 42d2e 3e 0 void std::__ndk1::allocator_traits<google_breakpad::PageStdAllocator<google_breakpad::ElfSegment> >::construct<google_breakpad::ElfSegment, google_breakpad::ElfSegment const&>(google_breakpad::PageStdAllocator<google_breakpad::ElfSegment>&, google_breakpad::ElfSegment*, google_breakpad::ElfSegment const&)
FUNC 42d6c 18 0 std::__ndk1::__vector_base<google_breakpad::ElfSegment, google_breakpad::PageStdAllocator<google_breakpad::ElfSegment> >::__alloc()
FUNC 42d84 e 0 google_breakpad::ElfSegment* std::__ndk1::__to_raw_pointer<google_breakpad::ElfSegment>(google_breakpad::ElfSegment*)
FUNC 42d92 c 0 std::__ndk1::vector<google_breakpad::ElfSegment, google_breakpad::PageStdAllocator<google_breakpad::ElfSegment> >::__RAII_IncreaseAnnotator::__done()
FUNC 42da0 c0 0 void std::__ndk1::vector<google_breakpad::ElfSegment, google_breakpad::PageStdAllocator<google_breakpad::ElfSegment> >::__push_back_slow_path<google_breakpad::ElfSegment const&>(google_breakpad::ElfSegment const&)
FUNC 42e60 16 0 std::__ndk1::__compressed_pair<google_breakpad::ElfSegment*, google_breakpad::PageStdAllocator<google_breakpad::ElfSegment> >::first()
FUNC 42e76 e 0 std::__ndk1::__compressed_pair_elem<google_breakpad::ElfSegment*, 0, false>::__get()
FUNC 42e84 3e 0 void std::__ndk1::allocator_traits<google_breakpad::PageStdAllocator<google_breakpad::ElfSegment> >::__construct<google_breakpad::ElfSegment, google_breakpad::ElfSegment const&>(std::__ndk1::integral_constant<bool, true>, google_breakpad::PageStdAllocator<google_breakpad::ElfSegment>&, google_breakpad::ElfSegment*, google_breakpad::ElfSegment const&)
FUNC 42ec2 e 0 google_breakpad::ElfSegment const& std::__ndk1::forward<google_breakpad::ElfSegment const&>(std::__ndk1::remove_reference<google_breakpad::ElfSegment const&>::type&)
FUNC 42ed0 36 0 void std::__ndk1::allocator<google_breakpad::ElfSegment>::construct<google_breakpad::ElfSegment, google_breakpad::ElfSegment const&>(google_breakpad::ElfSegment*, google_breakpad::ElfSegment const&)
FUNC 42f06 18 0 std::__ndk1::__compressed_pair<google_breakpad::ElfSegment*, google_breakpad::PageStdAllocator<google_breakpad::ElfSegment> >::second()
FUNC 42f1e e 0 std::__ndk1::__compressed_pair_elem<google_breakpad::PageStdAllocator<google_breakpad::ElfSegment>, 1, false>::__get()
FUNC 42f2c 8c 0 std::__ndk1::vector<google_breakpad::ElfSegment, google_breakpad::PageStdAllocator<google_breakpad::ElfSegment> >::__recommend(unsigned int) const
FUNC 42fb8 16 0 std::__ndk1::vector<google_breakpad::ElfSegment, google_breakpad::PageStdAllocator<google_breakpad::ElfSegment> >::size() const
FUNC 42fd0 b8 0 std::__ndk1::__split_buffer<google_breakpad::ElfSegment, google_breakpad::PageStdAllocator<google_breakpad::ElfSegment>&>::__split_buffer(unsigned int, unsigned int, google_breakpad::PageStdAllocator<google_breakpad::ElfSegment>&)
FUNC 43088 90 0 std::__ndk1::vector<google_breakpad::ElfSegment, google_breakpad::PageStdAllocator<google_breakpad::ElfSegment> >::__swap_out_circular_buffer(std::__ndk1::__split_buffer<google_breakpad::ElfSegment, google_breakpad::PageStdAllocator<google_breakpad::ElfSegment>&>&)
FUNC 43118 54 0 std::__ndk1::__split_buffer<google_breakpad::ElfSegment, google_breakpad::PageStdAllocator<google_breakpad::ElfSegment>&>::~__split_buffer()
FUNC 4316c 64 0 std::__ndk1::vector<google_breakpad::ElfSegment, google_breakpad::PageStdAllocator<google_breakpad::ElfSegment> >::max_size() const
FUNC 431d0 16 0 std::__ndk1::vector<google_breakpad::ElfSegment, google_breakpad::PageStdAllocator<google_breakpad::ElfSegment> >::capacity() const
FUNC 431e6 16 0 std::__ndk1::allocator_traits<google_breakpad::PageStdAllocator<google_breakpad::ElfSegment> >::max_size(google_breakpad::PageStdAllocator<google_breakpad::ElfSegment> const&)
FUNC 431fc 18 0 std::__ndk1::__vector_base<google_breakpad::ElfSegment, google_breakpad::PageStdAllocator<google_breakpad::ElfSegment> >::__alloc() const
FUNC 43214 16 0 std::__ndk1::allocator_traits<google_breakpad::PageStdAllocator<google_breakpad::ElfSegment> >::__max_size(std::__ndk1::integral_constant<bool, true>, google_breakpad::PageStdAllocator<google_breakpad::ElfSegment> const&)
FUNC 4322a 10 0 std::__ndk1::allocator<google_breakpad::ElfSegment>::max_size() const
FUNC 4323a 18 0 std::__ndk1::__compressed_pair<google_breakpad::ElfSegment*, google_breakpad::PageStdAllocator<google_breakpad::ElfSegment> >::second() const
FUNC 43252 e 0 std::__ndk1::__compressed_pair_elem<google_breakpad::PageStdAllocator<google_breakpad::ElfSegment>, 1, false>::__get() const
FUNC 43260 26 0 std::__ndk1::__vector_base<google_breakpad::ElfSegment, google_breakpad::PageStdAllocator<google_breakpad::ElfSegment> >::capacity() const
FUNC 43286 18 0 std::__ndk1::__vector_base<google_breakpad::ElfSegment, google_breakpad::PageStdAllocator<google_breakpad::ElfSegment> >::__end_cap() const
FUNC 4329e 16 0 std::__ndk1::__compressed_pair<google_breakpad::ElfSegment*, google_breakpad::PageStdAllocator<google_breakpad::ElfSegment> >::first() const
FUNC 432b4 e 0 std::__ndk1::__compressed_pair_elem<google_breakpad::ElfSegment*, 0, false>::__get() const
FUNC 432c2 54 0 std::__ndk1::__compressed_pair<google_breakpad::ElfSegment*, google_breakpad::PageStdAllocator<google_breakpad::ElfSegment>&>::__compressed_pair<decltype(nullptr), google_breakpad::PageStdAllocator<google_breakpad::ElfSegment>&>(decltype(nullptr)&&, google_breakpad::PageStdAllocator<google_breakpad::ElfSegment>&)
FUNC 43316 24 0 std::__ndk1::allocator_traits<google_breakpad::PageStdAllocator<google_breakpad::ElfSegment> >::allocate(google_breakpad::PageStdAllocator<google_breakpad::ElfSegment>&, unsigned int)
FUNC 4333a 18 0 std::__ndk1::__split_buffer<google_breakpad::ElfSegment, google_breakpad::PageStdAllocator<google_breakpad::ElfSegment>&>::__alloc()
FUNC 43352 18 0 std::__ndk1::__split_buffer<google_breakpad::ElfSegment, google_breakpad::PageStdAllocator<google_breakpad::ElfSegment>&>::__end_cap()
FUNC 4336a 2c 0 std::__ndk1::__compressed_pair_elem<google_breakpad::ElfSegment*, 0, false>::__compressed_pair_elem<decltype(nullptr), void>(decltype(nullptr)&&)
FUNC 43396 e 0 google_breakpad::PageStdAllocator<google_breakpad::ElfSegment>& std::__ndk1::forward<google_breakpad::PageStdAllocator<google_breakpad::ElfSegment>&>(std::__ndk1::remove_reference<google_breakpad::PageStdAllocator<google_breakpad::ElfSegment>&>::type&)
FUNC 433a4 28 0 std::__ndk1::__compressed_pair_elem<google_breakpad::PageStdAllocator<google_breakpad::ElfSegment>&, 1, false>::__compressed_pair_elem<google_breakpad::PageStdAllocator<google_breakpad::ElfSegment>&, void>(google_breakpad::PageStdAllocator<google_breakpad::ElfSegment>&)
FUNC 433cc 4c 0 google_breakpad::PageStdAllocator<google_breakpad::ElfSegment>::allocate(unsigned int, void const*)
FUNC 43418 b4 0 sys_mmap(void*, unsigned int, int, int, int, long long)
FUNC 434cc a0 0 sys__mmap2(void*, unsigned int, int, int, int, long)
FUNC 4356c 18 0 std::__ndk1::__compressed_pair<google_breakpad::ElfSegment*, google_breakpad::PageStdAllocator<google_breakpad::ElfSegment>&>::second()
FUNC 43584 10 0 std::__ndk1::__compressed_pair_elem<google_breakpad::PageStdAllocator<google_breakpad::ElfSegment>&, 1, false>::__get()
FUNC 43594 16 0 std::__ndk1::__compressed_pair<google_breakpad::ElfSegment*, google_breakpad::PageStdAllocator<google_breakpad::ElfSegment>&>::first()
FUNC 435aa 72 0 std::__ndk1::vector<google_breakpad::ElfSegment, google_breakpad::PageStdAllocator<google_breakpad::ElfSegment> >::__annotate_delete() const
FUNC 4361c 68 0 void std::__ndk1::allocator_traits<google_breakpad::PageStdAllocator<google_breakpad::ElfSegment> >::__construct_backward<google_breakpad::ElfSegment*>(google_breakpad::PageStdAllocator<google_breakpad::ElfSegment>&, google_breakpad::ElfSegment*, google_breakpad::ElfSegment*, google_breakpad::ElfSegment*&)
FUNC 43684 5c 0 std::__ndk1::swap<google_breakpad::ElfSegment *>
FUNC 436e0 6e 0 std::__ndk1::vector<google_breakpad::ElfSegment, google_breakpad::PageStdAllocator<google_breakpad::ElfSegment> >::__annotate_new(unsigned int) const
FUNC 4374e c 0 std::__ndk1::vector<google_breakpad::ElfSegment, google_breakpad::PageStdAllocator<google_breakpad::ElfSegment> >::__invalidate_all_iterators()
FUNC 4375a 34 0 std::__ndk1::vector<google_breakpad::ElfSegment, google_breakpad::PageStdAllocator<google_breakpad::ElfSegment> >::__annotate_contiguous_container(void const*, void const*, void const*, void const*) const
FUNC 4378e 18 0 std::__ndk1::vector<google_breakpad::ElfSegment, google_breakpad::PageStdAllocator<google_breakpad::ElfSegment> >::data() const
FUNC 437a6 3e 0 void std::__ndk1::allocator_traits<google_breakpad::PageStdAllocator<google_breakpad::ElfSegment> >::construct<google_breakpad::ElfSegment, google_breakpad::ElfSegment>(google_breakpad::PageStdAllocator<google_breakpad::ElfSegment>&, google_breakpad::ElfSegment*, google_breakpad::ElfSegment&&)
FUNC 437e4 16 0 std::__ndk1::move_if_noexcept<google_breakpad::ElfSegment>
FUNC 437fa 3e 0 void std::__ndk1::allocator_traits<google_breakpad::PageStdAllocator<google_breakpad::ElfSegment> >::__construct<google_breakpad::ElfSegment, google_breakpad::ElfSegment>(std::__ndk1::integral_constant<bool, true>, google_breakpad::PageStdAllocator<google_breakpad::ElfSegment>&, google_breakpad::ElfSegment*, google_breakpad::ElfSegment&&)
FUNC 43838 e 0 google_breakpad::ElfSegment&& std::__ndk1::forward<google_breakpad::ElfSegment>(std::__ndk1::remove_reference<google_breakpad::ElfSegment>::type&)
FUNC 43846 36 0 void std::__ndk1::allocator<google_breakpad::ElfSegment>::construct<google_breakpad::ElfSegment, google_breakpad::ElfSegment>(google_breakpad::ElfSegment*, google_breakpad::ElfSegment&&)
FUNC 4387c e 0 std::__ndk1::remove_reference<google_breakpad::ElfSegment&>::type&& std::__ndk1::move<google_breakpad::ElfSegment&>(google_breakpad::ElfSegment&)
FUNC 4388a e 0 std::__ndk1::remove_reference<google_breakpad::ElfSegment*&>::type&& std::__ndk1::move<google_breakpad::ElfSegment*&>(google_breakpad::ElfSegment*&)
FUNC 43898 1a 0 std::__ndk1::__split_buffer<google_breakpad::ElfSegment, google_breakpad::PageStdAllocator<google_breakpad::ElfSegment>&>::clear()
FUNC 438b2 32 0 std::__ndk1::allocator_traits<google_breakpad::PageStdAllocator<google_breakpad::ElfSegment> >::deallocate(google_breakpad::PageStdAllocator<google_breakpad::ElfSegment>&, google_breakpad::ElfSegment*, unsigned int)
FUNC 438e4 26 0 std::__ndk1::__split_buffer<google_breakpad::ElfSegment, google_breakpad::PageStdAllocator<google_breakpad::ElfSegment>&>::capacity() const
FUNC 4390a 1e 0 std::__ndk1::__split_buffer<google_breakpad::ElfSegment, google_breakpad::PageStdAllocator<google_breakpad::ElfSegment>&>::__destruct_at_end(google_breakpad::ElfSegment*)
FUNC 43928 5a 0 std::__ndk1::__split_buffer<google_breakpad::ElfSegment, google_breakpad::PageStdAllocator<google_breakpad::ElfSegment>&>::__destruct_at_end(google_breakpad::ElfSegment*, std::__ndk1::integral_constant<bool, false>)
FUNC 43982 1e 0 void std::__ndk1::allocator_traits<google_breakpad::PageStdAllocator<google_breakpad::ElfSegment> >::destroy<google_breakpad::ElfSegment>(google_breakpad::PageStdAllocator<google_breakpad::ElfSegment>&, google_breakpad::ElfSegment*)
FUNC 439a0 1e 0 void std::__ndk1::allocator_traits<google_breakpad::PageStdAllocator<google_breakpad::ElfSegment> >::__destroy<google_breakpad::ElfSegment>(std::__ndk1::integral_constant<bool, true>, google_breakpad::PageStdAllocator<google_breakpad::ElfSegment>&, google_breakpad::ElfSegment*)
FUNC 439be 12 0 std::__ndk1::allocator<google_breakpad::ElfSegment>::destroy(google_breakpad::ElfSegment*)
FUNC 439d0 20 0 google_breakpad::PageStdAllocator<google_breakpad::ElfSegment>::deallocate(google_breakpad::ElfSegment*, unsigned int)
FUNC 439f0 18 0 std::__ndk1::__split_buffer<google_breakpad::ElfSegment, google_breakpad::PageStdAllocator<google_breakpad::ElfSegment>&>::__end_cap() const
FUNC 43a08 16 0 std::__ndk1::__compressed_pair<google_breakpad::ElfSegment*, google_breakpad::PageStdAllocator<google_breakpad::ElfSegment>&>::first() const
FUNC 43a1e 26 0 elf64_phdr const* google_breakpad::GetOffset<google_breakpad::ElfClass64, elf64_phdr>(google_breakpad::ElfClass64::Ehdr const*, google_breakpad::ElfClass64::Off)
FUNC 43a44 22 0 google_breakpad::FileID::FileID(char const*)
FUNC 43a66 3e 0 google_breakpad::FileID::ElfFileIdentifierFromMappedFile(void const*, google_breakpad::wasteful_vector<unsigned char>&)
FUNC 43aa4 154 0 google_breakpad::FindElfBuildIDNote(void const*, google_breakpad::wasteful_vector<unsigned char>&)
FUNC 43bf8 100 0 google_breakpad::HashElfTextSection(void const*, google_breakpad::wasteful_vector<unsigned char>&)
FUNC 43cf8 c0 0 google_breakpad::FileID::ElfFileIdentifier(google_breakpad::wasteful_vector<unsigned char>&)
FUNC 43db8 b4 0 google_breakpad::FileID::ConvertIdentifierToUUIDString(google_breakpad::wasteful_vector<unsigned char> const&)
FUNC 43e6c 1a 0 std::__ndk1::vector<unsigned char, google_breakpad::PageStdAllocator<unsigned char> >::operator[](unsigned int) const
FUNC 43e88 c0 0 google_breakpad::bytes_to_hex_string(unsigned char const*, unsigned int)
FUNC 43f48 3c 0 google_breakpad::FileID::ConvertIdentifierToString(google_breakpad::wasteful_vector<unsigned char> const&)
FUNC 43f84 84 0 google_breakpad::auto_wasteful_vector<google_breakpad::ElfSegment, 2u>::auto_wasteful_vector(google_breakpad::PageAllocator*)
FUNC 44008 1e 0 std::__ndk1::vector<google_breakpad::ElfSegment, google_breakpad::PageStdAllocator<google_breakpad::ElfSegment> >::begin()
FUNC 44026 1e 0 std::__ndk1::vector<google_breakpad::ElfSegment, google_breakpad::PageStdAllocator<google_breakpad::ElfSegment> >::end()
FUNC 44044 22 0 bool std::__ndk1::operator!=<google_breakpad::ElfSegment*>(std::__ndk1::__wrap_iter<google_breakpad::ElfSegment*> const&, std::__ndk1::__wrap_iter<google_breakpad::ElfSegment*> const&)
FUNC 44066 10 0 std::__ndk1::__wrap_iter<google_breakpad::ElfSegment*>::operator*() const
FUNC 44078 f4 0 google_breakpad::ElfClassBuildIDNoteIdentifier(void const*, unsigned int, google_breakpad::wasteful_vector<unsigned char>&)
FUNC 4416c 14 0 std::__ndk1::__wrap_iter<google_breakpad::ElfSegment*>::operator++()
FUNC 44180 1a 0 google_breakpad::auto_wasteful_vector<google_breakpad::ElfSegment, 2u>::~auto_wasteful_vector()
FUNC 4419a 3e 0 google_breakpad::PageStdAllocator<google_breakpad::ElfSegment>::PageStdAllocator(google_breakpad::PageAllocator&, google_breakpad::ElfSegment*, unsigned int)
FUNC 441d8 60 0 google_breakpad::wasteful_vector<google_breakpad::ElfSegment>::wasteful_vector(google_breakpad::PageStdAllocator<google_breakpad::ElfSegment>)
FUNC 44238 9c 0 std::__ndk1::vector<google_breakpad::ElfSegment, google_breakpad::PageStdAllocator<google_breakpad::ElfSegment> >::reserve(unsigned int)
FUNC 442d4 1a 0 google_breakpad::wasteful_vector<google_breakpad::ElfSegment>::~wasteful_vector()
FUNC 442ee e 0 std::__ndk1::allocator<google_breakpad::ElfSegment>::allocator()
FUNC 442fc 2a 0 std::__ndk1::vector<google_breakpad::ElfSegment, google_breakpad::PageStdAllocator<google_breakpad::ElfSegment> >::vector(google_breakpad::PageStdAllocator<google_breakpad::ElfSegment> const&)
FUNC 44328 60 0 std::__ndk1::__vector_base<google_breakpad::ElfSegment, google_breakpad::PageStdAllocator<google_breakpad::ElfSegment> >::__vector_base(google_breakpad::PageStdAllocator<google_breakpad::ElfSegment> const&)
FUNC 44388 54 0 std::__ndk1::__compressed_pair<google_breakpad::ElfSegment*, google_breakpad::PageStdAllocator<google_breakpad::ElfSegment> >::__compressed_pair<decltype(nullptr), google_breakpad::PageStdAllocator<google_breakpad::ElfSegment> const&>(decltype(nullptr)&&, google_breakpad::PageStdAllocator<google_breakpad::ElfSegment> const&)
FUNC 443dc e 0 google_breakpad::PageStdAllocator<google_breakpad::ElfSegment> const& std::__ndk1::forward<google_breakpad::PageStdAllocator<google_breakpad::ElfSegment> const&>(std::__ndk1::remove_reference<google_breakpad::PageStdAllocator<google_breakpad::ElfSegment> const&>::type&)
FUNC 443ea 32 0 std::__ndk1::__compressed_pair_elem<google_breakpad::PageStdAllocator<google_breakpad::ElfSegment>, 1, false>::__compressed_pair_elem<google_breakpad::PageStdAllocator<google_breakpad::ElfSegment> const&, void>(google_breakpad::PageStdAllocator<google_breakpad::ElfSegment> const&)
FUNC 4441c b4 0 sys_mmap(void*, unsigned int, int, int, int, long long)
FUNC 444d0 a0 0 sys__mmap2(void*, unsigned int, int, int, int, long)
FUNC 44570 34 0 std::__ndk1::vector<google_breakpad::ElfSegment, google_breakpad::PageStdAllocator<google_breakpad::ElfSegment> >::~vector()
FUNC 445a4 4e 0 std::__ndk1::__vector_base<google_breakpad::ElfSegment, google_breakpad::PageStdAllocator<google_breakpad::ElfSegment> >::~__vector_base()
FUNC 445f2 1a 0 std::__ndk1::__vector_base<google_breakpad::ElfSegment, google_breakpad::PageStdAllocator<google_breakpad::ElfSegment> >::clear()
FUNC 4460c 62 0 std::__ndk1::__vector_base<google_breakpad::ElfSegment, google_breakpad::PageStdAllocator<google_breakpad::ElfSegment> >::__destruct_at_end(google_breakpad::ElfSegment*)
FUNC 44670 48 0 std::__ndk1::vector<google_breakpad::ElfSegment, google_breakpad::PageStdAllocator<google_breakpad::ElfSegment> >::__make_iter(google_breakpad::ElfSegment*)
FUNC 446b8 18 0 std::__ndk1::__wrap_iter<google_breakpad::ElfSegment*>::__wrap_iter(google_breakpad::ElfSegment*)
FUNC 446d0 30 0 bool std::__ndk1::operator==<google_breakpad::ElfSegment*, google_breakpad::ElfSegment*>(std::__ndk1::__wrap_iter<google_breakpad::ElfSegment*> const&, std::__ndk1::__wrap_iter<google_breakpad::ElfSegment*> const&)
FUNC 44700 10 0 std::__ndk1::__wrap_iter<google_breakpad::ElfSegment*>::base() const
FUNC 44710 5a 0 sys_munmap(void*, unsigned int)
FUNC 4476a 52 0 std::__ndk1::vector<unsigned char, google_breakpad::PageStdAllocator<unsigned char> >::resize(unsigned int)
FUNC 447bc c8 0 std::__ndk1::vector<unsigned char, google_breakpad::PageStdAllocator<unsigned char> >::__append(unsigned int)
FUNC 44884 42 0 std::__ndk1::vector<unsigned char, google_breakpad::PageStdAllocator<unsigned char> >::__destruct_at_end(unsigned char*)
FUNC 448c8 8c 0 std::__ndk1::vector<unsigned char, google_breakpad::PageStdAllocator<unsigned char> >::__construct_at_end(unsigned int)
FUNC 44954 54 0 std::__ndk1::__split_buffer<unsigned char, google_breakpad::PageStdAllocator<unsigned char>&>::__construct_at_end(unsigned int)
FUNC 449a8 1e 0 void std::__ndk1::allocator_traits<google_breakpad::PageStdAllocator<unsigned char> >::construct<unsigned char>(google_breakpad::PageStdAllocator<unsigned char>&, unsigned char*)
FUNC 449c6 1e 0 void std::__ndk1::allocator_traits<google_breakpad::PageStdAllocator<unsigned char> >::__construct<unsigned char>(std::__ndk1::integral_constant<bool, true>, google_breakpad::PageStdAllocator<unsigned char>&, unsigned char*)
FUNC 449e4 18 0 void std::__ndk1::allocator<unsigned char>::construct<unsigned char>(unsigned char*)
FUNC 449fc 12 0 std::__ndk1::vector<unsigned char, google_breakpad::PageStdAllocator<unsigned char> >::__invalidate_iterators_past(unsigned char*)
FUNC 44a0e 68 0 std::__ndk1::vector<unsigned char, google_breakpad::PageStdAllocator<unsigned char> >::__annotate_shrink(unsigned int) const
FUNC 44a78 16 0 CreateGUID(MDGUID*)
FUNC 44a8e 72 0 GUIDGenerator::CreateGUID(MDGUID*)
FUNC 44b00 c4 0 GUIDToString(MDGUID const*, char*, int)
FUNC 44bc4 10 0 GUIDGenerator::BytesToUInt32(unsigned char const*)
FUNC 44bd4 a0 0 GUIDGenerator::CreateGUIDFromDevUrandom(MDGUID*)
FUNC 44c74 3e 0 GUIDGenerator::CreateGUIDFromRand(MDGUID*)
FUNC 44cb4 24 0 GUIDGenerator::InitOnce()
FUNC 44cd8 20 0 GUIDGenerator::InitOnceImpl()
FUNC 44cf8 2a 0 my_strlen
FUNC 44d22 62 0 my_strcmp
FUNC 44d84 8c 0 my_strncmp
FUNC 44e10 9a 0 my_strtoui
FUNC 44eaa 5a 0 my_uint_len
FUNC 44f04 6e 0 my_uitos
FUNC 44f72 66 0 my_strchr
FUNC 44fd8 42 0 my_strrchr
FUNC 4501a 5c 0 my_memchr
FUNC 45076 a8 0 my_read_hex_ptr
FUNC 4511e 58 0 my_read_decimal_ptr
FUNC 45176 42 0 my_memset
FUNC 451b8 70 0 my_strlcpy
FUNC 45228 88 0 my_strlcat
FUNC 452b0 84 0 my_isspace
FUNC 45334 1a 0 google_breakpad::MemoryMappedFile::MemoryMappedFile()
FUNC 4534e 14 0 google_breakpad::MemoryRange::MemoryRange()
FUNC 45362 38 0 google_breakpad::MemoryMappedFile::MemoryMappedFile(char const*, unsigned int)
FUNC 4539c 118 0 google_breakpad::MemoryMappedFile::Map(char const*, unsigned int)
FUNC 454b4 22 0 google_breakpad::MemoryMappedFile::~MemoryMappedFile()
FUNC 454d6 52 0 google_breakpad::MemoryMappedFile::Unmap()
FUNC 45528 6a 0 sys_open(char const*, int, int)
FUNC 45592 5a 0 sys_fstat64(int, kernel_stat64*)
FUNC 455ec 4e 0 sys_close(int)
FUNC 4563a b4 0 sys_mmap(void*, unsigned int, int, int, int, long long)
FUNC 456ee 42 0 google_breakpad::MemoryRange::Set(void const*, unsigned int)
FUNC 45730 5a 0 sys_munmap(void*, unsigned int)
FUNC 4578a a0 0 sys__mmap2(void*, unsigned int, int, int, int, long)
FUNC 4582c 5a 0 google_breakpad::SafeReadLink(char const*, char*, unsigned int)
FUNC 45886 6a 0 sys_readlink(char const*, char*, unsigned int)
FUNC 4592c 54 0 google_breakpad::CrashGenerationClient::TryCreate(int)
FUNC 45980 34 0 google_breakpad::(anonymous namespace)::CrashGenerationClientImpl::CrashGenerationClientImpl(int)
FUNC 459b4 1c 0 google_breakpad::CrashGenerationClient::CrashGenerationClient()
FUNC 459d0 1a 0 google_breakpad::(anonymous namespace)::CrashGenerationClientImpl::~CrashGenerationClientImpl()
FUNC 459ea 1e 0 google_breakpad::(anonymous namespace)::CrashGenerationClientImpl::~CrashGenerationClientImpl()
FUNC 45a08 19c 0 google_breakpad::(anonymous namespace)::CrashGenerationClientImpl::RequestDump(void const*, unsigned int)
FUNC 45ba4 e 0 google_breakpad::CrashGenerationClient::~CrashGenerationClient()
FUNC 45bb2 a 0 google_breakpad::CrashGenerationClient::~CrashGenerationClient()
FUNC 45bbc 4e 0 sys_pipe(int*)
FUNC 45c0a 6a 0 sys_sendmsg(int, kernel_msghdr const*, int)
FUNC 45c74 4e 0 sys_close(int)
FUNC 45cc2 6a 0 sys_read(int, void*, unsigned int)
FUNC 45d2c 10 0 google_breakpad::ThreadInfo::GetInstructionPointer() const
FUNC 45d3c 54 0 google_breakpad::ThreadInfo::FillCPUContext(MDRawContextARM*) const
FUNC 45d90 7c 0 google_breakpad::ThreadInfo::GetGeneralPurposeRegisters(void**, unsigned int*)
FUNC 45e0c 7c 0 google_breakpad::ThreadInfo::GetFloatingPointRegisters(void**, unsigned int*)
FUNC 45e88 10 0 google_breakpad::UContextReader::GetStackPointer(ucontext const*)
FUNC 45e98 10 0 google_breakpad::UContextReader::GetInstructionPointer(ucontext const*)
FUNC 45ea8 ce 0 google_breakpad::UContextReader::FillCPUContext(MDRawContextARM*, ucontext const*)
FUNC 45f78 138 0 google_breakpad::ConvertUTF32toUTF16(unsigned long const**, unsigned long const*, unsigned short**, unsigned short*, google_breakpad::ConversionFlags)
FUNC 460b0 132 0 google_breakpad::ConvertUTF16toUTF32(unsigned short const**, unsigned short const*, unsigned long**, unsigned long*, google_breakpad::ConversionFlags)
FUNC 461e4 23c 0 google_breakpad::ConvertUTF16toUTF8(unsigned short const**, unsigned short const*, unsigned char**, unsigned char*, google_breakpad::ConversionFlags)
FUNC 46420 50 0 google_breakpad::isLegalUTF8Sequence(unsigned char const*, unsigned char const*)
FUNC 46470 170 0 google_breakpad::(anonymous namespace)::isLegalUTF8(unsigned char const*, int)
FUNC 465e0 244 0 google_breakpad::ConvertUTF8toUTF16(unsigned char const**, unsigned char const*, unsigned short**, unsigned short*, google_breakpad::ConversionFlags)
FUNC 46824 1c0 0 google_breakpad::ConvertUTF32toUTF8(unsigned long const**, unsigned long const*, unsigned char**, unsigned char*, google_breakpad::ConversionFlags)
FUNC 469e4 1d8 0 google_breakpad::ConvertUTF8toUTF32(unsigned char const**, unsigned char const*, unsigned long**, unsigned long*, google_breakpad::ConversionFlags)
FUNC 46bbc 6c 0 std::__ndk1::chrono::system_clock::now()
FUNC 46c28 18 0 std::__ndk1::chrono::system_clock::to_time_t(std::__ndk1::chrono::time_point<std::__ndk1::chrono::system_clock, std::__ndk1::chrono::duration<long long, std::__ndk1::ratio<1ll, 1000000ll> > > const&)
FUNC 46c40 10 0 std::__ndk1::chrono::system_clock::from_time_t(long)
FUNC 46c50 58 0 std::__ndk1::chrono::steady_clock::now()
FUNC 46ca8 28 0 std::__throw_bad_alloc()
FUNC 46cd0 44 0 operator new(unsigned int)
FUNC 46d14 1a 0 operator new(unsigned int, std::nothrow_t const&)
FUNC 46d2e 4 0 operator new[](unsigned int)
FUNC 46d32 1a 0 operator new[](unsigned int, std::nothrow_t const&)
FUNC 46d4c 4 0 operator delete(void*)
FUNC 46d50 4 0 operator delete(void*, std::nothrow_t const&)
FUNC 46d54 4 0 operator delete(void*, unsigned int)
FUNC 46d58 4 0 operator delete[](void*)
FUNC 46d5c 4 0 operator delete[](void*, std::nothrow_t const&)
FUNC 46d60 4 0 operator delete[](void*, unsigned int)
FUNC 46d64 80 0 operator new(unsigned int, std::align_val_t)
FUNC 46de4 1a 0 operator new(unsigned int, std::align_val_t, std::nothrow_t const&)
FUNC 46dfe 4 0 operator new[](unsigned int, std::align_val_t)
FUNC 46e02 1a 0 operator new[](unsigned int, std::align_val_t, std::nothrow_t const&)
FUNC 46e1c 4 0 operator delete(void*, std::align_val_t)
FUNC 46e20 4 0 operator delete(void*, std::align_val_t, std::nothrow_t const&)
FUNC 46e24 6 0 operator delete(void*, unsigned int, std::align_val_t)
FUNC 46e2a 4 0 operator delete[](void*, std::align_val_t)
FUNC 46e2e 4 0 operator delete[](void*, std::align_val_t, std::nothrow_t const&)
FUNC 46e32 6 0 operator delete[](void*, unsigned int, std::align_val_t)
FUNC 46e38 3c 0 std::logic_error::logic_error(std::__ndk1::basic_string<char, std::__ndk1::char_traits<char>, std::__ndk1::allocator<char> > const&)
FUNC 46e74 3a 0 std::__ndk1::__libcpp_refstring::__libcpp_refstring(char const*)
FUNC 46eb0 30 0 std::logic_error::logic_error(char const*)
FUNC 46ee0 2c 0 std::logic_error::logic_error(std::logic_error const&)
FUNC 46f0c 12 0 std::logic_error::operator=(std::logic_error const&)
FUNC 46f1e 4c 0 std::__ndk1::__libcpp_refstring::operator=(std::__ndk1::__libcpp_refstring const&)
FUNC 46f6c 3c 0 std::runtime_error::runtime_error(std::__ndk1::basic_string<char, std::__ndk1::char_traits<char>, std::__ndk1::allocator<char> > const&)
FUNC 46fa8 30 0 std::runtime_error::runtime_error(char const*)
FUNC 46fd8 2c 0 std::runtime_error::runtime_error(std::runtime_error const&)
FUNC 47004 12 0 std::runtime_error::operator=(std::runtime_error const&)
FUNC 47018 10 0 std::__ndk1::__basic_string_common<true>::__throw_out_of_range() const
FUNC 47028 3c 0 std::__ndk1::__throw_out_of_range(char const*)
FUNC 47064 2c 0 std::__ndk1::basic_string<char, std::__ndk1::char_traits<char>, std::__ndk1::allocator<char> >::basic_string(std::__ndk1::basic_string<char, std::__ndk1::char_traits<char>, std::__ndk1::allocator<char> > const&)
FUNC 47090 2c 0 std::__ndk1::basic_string<char, std::__ndk1::char_traits<char>, std::__ndk1::allocator<char> >::basic_string(std::__ndk1::basic_string<char, std::__ndk1::char_traits<char>, std::__ndk1::allocator<char> > const&, std::__ndk1::allocator<char> const&)
FUNC 470bc 46 0 std::__ndk1::basic_string<char, std::__ndk1::char_traits<char>, std::__ndk1::allocator<char> >::basic_string(std::__ndk1::basic_string<char, std::__ndk1::char_traits<char>, std::__ndk1::allocator<char> > const&, unsigned int, unsigned int, std::__ndk1::allocator<char> const&)
FUNC 47102 16 0 std::__ndk1::basic_string<char, std::__ndk1::char_traits<char>, std::__ndk1::allocator<char> >::~basic_string()
FUNC 47118 1e 0 std::__ndk1::basic_string<char, std::__ndk1::char_traits<char>, std::__ndk1::allocator<char> >::operator=(char)
FUNC 47136 1e 0 std::__ndk1::basic_string<char, std::__ndk1::char_traits<char>, std::__ndk1::allocator<char> >::resize(unsigned int, char)
FUNC 47154 78 0 std::__ndk1::basic_string<char, std::__ndk1::char_traits<char>, std::__ndk1::allocator<char> >::append(unsigned int, char)
FUNC 471cc 1c 0 std::__ndk1::basic_string<char, std::__ndk1::char_traits<char>, std::__ndk1::allocator<char> >::__erase_to_end(unsigned int)
FUNC 471e8 e4 0 std::__ndk1::basic_string<char, std::__ndk1::char_traits<char>, std::__ndk1::allocator<char> >::reserve(unsigned int)
FUNC 472cc 24 0 std::__ndk1::basic_string<char, std::__ndk1::char_traits<char>, std::__ndk1::allocator<char> >::at(unsigned int) const
FUNC 472f0 24 0 std::__ndk1::basic_string<char, std::__ndk1::char_traits<char>, std::__ndk1::allocator<char> >::at(unsigned int)
FUNC 47314 38 0 std::__ndk1::basic_string<char, std::__ndk1::char_traits<char>, std::__ndk1::allocator<char> >::append(std::__ndk1::basic_string<char, std::__ndk1::char_traits<char>, std::__ndk1::allocator<char> > const&, unsigned int, unsigned int)
FUNC 4734c a8 0 std::__ndk1::basic_string<char, std::__ndk1::char_traits<char>, std::__ndk1::allocator<char> >::__grow_by(unsigned int, unsigned int, unsigned int, unsigned int, unsigned int, unsigned int)
FUNC 473f4 6a 0 std::__ndk1::basic_string<char, std::__ndk1::char_traits<char>, std::__ndk1::allocator<char> >::push_back(char)
FUNC 4745e 38 0 std::__ndk1::basic_string<char, std::__ndk1::char_traits<char>, std::__ndk1::allocator<char> >::assign(std::__ndk1::basic_string<char, std::__ndk1::char_traits<char>, std::__ndk1::allocator<char> > const&, unsigned int, unsigned int)
FUNC 47496 72 0 std::__ndk1::basic_string<char, std::__ndk1::char_traits<char>, std::__ndk1::allocator<char> >::assign(unsigned int, char)
FUNC 47508 3e 0 std::__ndk1::basic_string<char, std::__ndk1::char_traits<char>, std::__ndk1::allocator<char> >::insert(unsigned int, std::__ndk1::basic_string<char, std::__ndk1::char_traits<char>, std::__ndk1::allocator<char> > const&, unsigned int, unsigned int)
FUNC 47546 ae 0 std::__ndk1::basic_string<char, std::__ndk1::char_traits<char>, std::__ndk1::allocator<char> >::insert(unsigned int, char const*, unsigned int)
FUNC 475f4 28 0 std::__ndk1::basic_string<char, std::__ndk1::char_traits<char>, std::__ndk1::allocator<char> >::insert(unsigned int, char const*)
FUNC 4761c 9c 0 std::__ndk1::basic_string<char, std::__ndk1::char_traits<char>, std::__ndk1::allocator<char> >::insert(unsigned int, unsigned int, char)
FUNC 476b8 8a 0 std::__ndk1::basic_string<char, std::__ndk1::char_traits<char>, std::__ndk1::allocator<char> >::insert(std::__ndk1::__wrap_iter<char const*>, char)
FUNC 47742 64 0 std::__ndk1::basic_string<char, std::__ndk1::char_traits<char>, std::__ndk1::allocator<char> >::erase(unsigned int, unsigned int)
FUNC 477a6 4a 0 std::__ndk1::basic_string<char, std::__ndk1::char_traits<char>, std::__ndk1::allocator<char> >::replace(unsigned int, unsigned int, std::__ndk1::basic_string<char, std::__ndk1::char_traits<char>, std::__ndk1::allocator<char> > const&, unsigned int, unsigned int)
FUNC 477f0 12c 0 std::__ndk1::basic_string<char, std::__ndk1::char_traits<char>, std::__ndk1::allocator<char> >::replace(unsigned int, unsigned int, char const*, unsigned int)
FUNC 4791c 2e 0 std::__ndk1::basic_string<char, std::__ndk1::char_traits<char>, std::__ndk1::allocator<char> >::replace(unsigned int, unsigned int, char const*)
FUNC 4794a be 0 std::__ndk1::basic_string<char, std::__ndk1::char_traits<char>, std::__ndk1::allocator<char> >::replace(unsigned int, unsigned int, unsigned int, char)
FUNC 47a08 3e 0 std::__ndk1::basic_string<char, std::__ndk1::char_traits<char>, std::__ndk1::allocator<char> >::copy(char*, unsigned int, unsigned int) const
FUNC 47a46 24 0 std::__ndk1::basic_string<char, std::__ndk1::char_traits<char>, std::__ndk1::allocator<char> >::find(char const*, unsigned int, unsigned int) const
FUNC 47a6a 36 0 unsigned int std::__ndk1::__str_find<char, unsigned int, std::__ndk1::char_traits<char>, 4294967295u>(char const*, unsigned int, char const*, unsigned int, unsigned int)
FUNC 47aa0 18 0 std::__ndk1::basic_string<char, std::__ndk1::char_traits<char>, std::__ndk1::allocator<char> >::find(char, unsigned int) const
FUNC 47ab8 4c 0 unsigned int std::__ndk1::__str_find<char, unsigned int, std::__ndk1::char_traits<char>, 4294967295u>(char const*, unsigned int, char, unsigned int)
FUNC 47b04 24 0 std::__ndk1::basic_string<char, std::__ndk1::char_traits<char>, std::__ndk1::allocator<char> >::rfind(char const*, unsigned int, unsigned int) const
FUNC 47b28 50 0 unsigned int std::__ndk1::__str_rfind<char, unsigned int, std::__ndk1::char_traits<char>, 4294967295u>(char const*, unsigned int, char const*, unsigned int, unsigned int)
FUNC 47b78 18 0 std::__ndk1::basic_string<char, std::__ndk1::char_traits<char>, std::__ndk1::allocator<char> >::rfind(char, unsigned int) const
FUNC 47b90 20 0 unsigned int std::__ndk1::__str_rfind<char, unsigned int, std::__ndk1::char_traits<char>, 4294967295u>(char const*, unsigned int, char, unsigned int)
FUNC 47bb0 24 0 std::__ndk1::basic_string<char, std::__ndk1::char_traits<char>, std::__ndk1::allocator<char> >::find_first_of(char const*, unsigned int, unsigned int) const
FUNC 47bd4 52 0 unsigned int std::__ndk1::__str_find_first_of<char, unsigned int, std::__ndk1::char_traits<char>, 4294967295u>(char const*, unsigned int, char const*, unsigned int, unsigned int)
FUNC 47c26 24 0 std::__ndk1::basic_string<char, std::__ndk1::char_traits<char>, std::__ndk1::allocator<char> >::find_last_of(char const*, unsigned int, unsigned int) const
FUNC 47c4a 40 0 unsigned int std::__ndk1::__str_find_last_of<char, unsigned int, std::__ndk1::char_traits<char>, 4294967295u>(char const*, unsigned int, char const*, unsigned int, unsigned int)
FUNC 47c8a 24 0 std::__ndk1::basic_string<char, std::__ndk1::char_traits<char>, std::__ndk1::allocator<char> >::find_first_not_of(char const*, unsigned int, unsigned int) const
FUNC 47cae 38 0 unsigned int std::__ndk1::__str_find_first_not_of<char, unsigned int, std::__ndk1::char_traits<char>, 4294967295u>(char const*, unsigned int, char const*, unsigned int, unsigned int)
FUNC 47ce6 24 0 std::__ndk1::basic_string<char, std::__ndk1::char_traits<char>, std::__ndk1::allocator<char> >::find_last_not_of(char const*, unsigned int, unsigned int) const
FUNC 47d0a 3a 0 unsigned int std::__ndk1::__str_find_last_not_of<char, unsigned int, std::__ndk1::char_traits<char>, 4294967295u>(char const*, unsigned int, char const*, unsigned int, unsigned int)
FUNC 47d44 58 0 std::__ndk1::basic_string<char, std::__ndk1::char_traits<char>, std::__ndk1::allocator<char> >::compare(unsigned int, unsigned int, std::__ndk1::basic_string<char, std::__ndk1::char_traits<char>, std::__ndk1::allocator<char> > const&, unsigned int, unsigned int) const
FUNC 47d9c 70 0 std::__ndk1::basic_string<char, std::__ndk1::char_traits<char>, std::__ndk1::allocator<char> >::compare<std::__ndk1::basic_string_view<char, std::__ndk1::char_traits<char> > >
FUNC 47e0c 26 0 std::__ndk1::basic_string<char, std::__ndk1::char_traits<char>, std::__ndk1::allocator<char> >::compare(char const*) const
FUNC 47e32 5c 0 std::__ndk1::basic_string<char, std::__ndk1::char_traits<char>, std::__ndk1::allocator<char> >::compare(unsigned int, unsigned int, char const*, unsigned int) const
FUNC 47e8e 2e 0 std::__ndk1::basic_string<char, std::__ndk1::char_traits<char>, std::__ndk1::allocator<char> >::compare(unsigned int, unsigned int, char const*) const
FUNC 47ebc a 0 std::__ndk1::char_traits<char>::compare(char const*, char const*, unsigned int)
FUNC 47ec6 56 0 std::__ndk1::basic_string<char, std::__ndk1::char_traits<char>, std::__ndk1::allocator<char> >::__init(unsigned int, char)
FUNC 47f1c 2c 0 std::__ndk1::basic_string<wchar_t, std::__ndk1::char_traits<wchar_t>, std::__ndk1::allocator<wchar_t> >::basic_string(std::__ndk1::basic_string<wchar_t, std::__ndk1::char_traits<wchar_t>, std::__ndk1::allocator<wchar_t> > const&)
FUNC 47f48 58 0 std::__ndk1::basic_string<wchar_t, std::__ndk1::char_traits<wchar_t>, std::__ndk1::allocator<wchar_t> >::__init(wchar_t const*, unsigned int)
FUNC 47fa0 2c 0 std::__ndk1::basic_string<wchar_t, std::__ndk1::char_traits<wchar_t>, std::__ndk1::allocator<wchar_t> >::basic_string(std::__ndk1::basic_string<wchar_t, std::__ndk1::char_traits<wchar_t>, std::__ndk1::allocator<wchar_t> > const&, std::__ndk1::allocator<wchar_t> const&)
FUNC 47fcc 4c 0 std::__ndk1::basic_string<wchar_t, std::__ndk1::char_traits<wchar_t>, std::__ndk1::allocator<wchar_t> >::basic_string(std::__ndk1::basic_string<wchar_t, std::__ndk1::char_traits<wchar_t>, std::__ndk1::allocator<wchar_t> > const&, unsigned int, unsigned int, std::__ndk1::allocator<wchar_t> const&)
FUNC 48018 16 0 std::__ndk1::basic_string<wchar_t, std::__ndk1::char_traits<wchar_t>, std::__ndk1::allocator<wchar_t> >::~basic_string()
FUNC 4802e 28 0 std::__ndk1::basic_string<wchar_t, std::__ndk1::char_traits<wchar_t>, std::__ndk1::allocator<wchar_t> >::operator=(std::__ndk1::basic_string<wchar_t, std::__ndk1::char_traits<wchar_t>, std::__ndk1::allocator<wchar_t> > const&)
FUNC 48056 70 0 std::__ndk1::basic_string<wchar_t, std::__ndk1::char_traits<wchar_t>, std::__ndk1::allocator<wchar_t> >::assign(wchar_t const*, unsigned int)
FUNC 480c6 1e 0 std::__ndk1::basic_string<wchar_t, std::__ndk1::char_traits<wchar_t>, std::__ndk1::allocator<wchar_t> >::operator=(wchar_t)
FUNC 480e4 1e 0 std::__ndk1::basic_string<wchar_t, std::__ndk1::char_traits<wchar_t>, std::__ndk1::allocator<wchar_t> >::resize(unsigned int, wchar_t)
FUNC 48102 78 0 std::__ndk1::basic_string<wchar_t, std::__ndk1::char_traits<wchar_t>, std::__ndk1::allocator<wchar_t> >::append(unsigned int, wchar_t)
FUNC 4817a 20 0 std::__ndk1::basic_string<wchar_t, std::__ndk1::char_traits<wchar_t>, std::__ndk1::allocator<wchar_t> >::__erase_to_end(unsigned int)
FUNC 4819c e4 0 std::__ndk1::basic_string<wchar_t, std::__ndk1::char_traits<wchar_t>, std::__ndk1::allocator<wchar_t> >::reserve(unsigned int)
FUNC 48280 6 0 std::__ndk1::allocator_traits<std::__ndk1::allocator<wchar_t> >::allocate(std::__ndk1::allocator<wchar_t>&, unsigned int)
FUNC 48286 10 0 std::__ndk1::char_traits<wchar_t>::copy(wchar_t*, wchar_t const*, unsigned int)
FUNC 48296 26 0 std::__ndk1::basic_string<wchar_t, std::__ndk1::char_traits<wchar_t>, std::__ndk1::allocator<wchar_t> >::at(unsigned int) const
FUNC 482bc 26 0 std::__ndk1::basic_string<wchar_t, std::__ndk1::char_traits<wchar_t>, std::__ndk1::allocator<wchar_t> >::at(unsigned int)
FUNC 482e2 3c 0 std::__ndk1::basic_string<wchar_t, std::__ndk1::char_traits<wchar_t>, std::__ndk1::allocator<wchar_t> >::append(std::__ndk1::basic_string<wchar_t, std::__ndk1::char_traits<wchar_t>, std::__ndk1::allocator<wchar_t> > const&, unsigned int, unsigned int)
FUNC 4831e 7c 0 std::__ndk1::basic_string<wchar_t, std::__ndk1::char_traits<wchar_t>, std::__ndk1::allocator<wchar_t> >::append(wchar_t const*, unsigned int)
FUNC 4839c d0 0 std::__ndk1::basic_string<wchar_t, std::__ndk1::char_traits<wchar_t>, std::__ndk1::allocator<wchar_t> >::__grow_by_and_replace(unsigned int, unsigned int, unsigned int, unsigned int, unsigned int, unsigned int, wchar_t const*)
FUNC 4846c 1c 0 std::__ndk1::basic_string<wchar_t, std::__ndk1::char_traits<wchar_t>, std::__ndk1::allocator<wchar_t> >::append(wchar_t const*)
FUNC 48488 a8 0 std::__ndk1::basic_string<wchar_t, std::__ndk1::char_traits<wchar_t>, std::__ndk1::allocator<wchar_t> >::__grow_by(unsigned int, unsigned int, unsigned int, unsigned int, unsigned int, unsigned int)
FUNC 48530 16 0 std::__ndk1::char_traits<wchar_t>::assign(wchar_t*, unsigned int, wchar_t)
FUNC 48546 6e 0 std::__ndk1::basic_string<wchar_t, std::__ndk1::char_traits<wchar_t>, std::__ndk1::allocator<wchar_t> >::push_back(wchar_t)
FUNC 485b4 3c 0 std::__ndk1::basic_string<wchar_t, std::__ndk1::char_traits<wchar_t>, std::__ndk1::allocator<wchar_t> >::assign(std::__ndk1::basic_string<wchar_t, std::__ndk1::char_traits<wchar_t>, std::__ndk1::allocator<wchar_t> > const&, unsigned int, unsigned int)
FUNC 485f0 10 0 std::__ndk1::char_traits<wchar_t>::move(wchar_t*, wchar_t const*, unsigned int)
FUNC 48600 1c 0 std::__ndk1::basic_string<wchar_t, std::__ndk1::char_traits<wchar_t>, std::__ndk1::allocator<wchar_t> >::assign(wchar_t const*)
FUNC 4861c 72 0 std::__ndk1::basic_string<wchar_t, std::__ndk1::char_traits<wchar_t>, std::__ndk1::allocator<wchar_t> >::assign(unsigned int, wchar_t)
FUNC 4868e 4a 0 std::__ndk1::basic_string<wchar_t, std::__ndk1::char_traits<wchar_t>, std::__ndk1::allocator<wchar_t> >::insert(unsigned int, std::__ndk1::basic_string<wchar_t, std::__ndk1::char_traits<wchar_t>, std::__ndk1::allocator<wchar_t> > const&, unsigned int, unsigned int)
FUNC 486d8 b0 0 std::__ndk1::basic_string<wchar_t, std::__ndk1::char_traits<wchar_t>, std::__ndk1::allocator<wchar_t> >::insert(unsigned int, wchar_t const*, unsigned int)
FUNC 48788 28 0 std::__ndk1::basic_string<wchar_t, std::__ndk1::char_traits<wchar_t>, std::__ndk1::allocator<wchar_t> >::insert(unsigned int, wchar_t const*)
FUNC 487b0 9e 0 std::__ndk1::basic_string<wchar_t, std::__ndk1::char_traits<wchar_t>, std::__ndk1::allocator<wchar_t> >::insert(unsigned int, unsigned int, wchar_t)
FUNC 4884e 90 0 std::__ndk1::basic_string<wchar_t, std::__ndk1::char_traits<wchar_t>, std::__ndk1::allocator<wchar_t> >::insert(std::__ndk1::__wrap_iter<wchar_t const*>, wchar_t)
FUNC 488de 66 0 std::__ndk1::basic_string<wchar_t, std::__ndk1::char_traits<wchar_t>, std::__ndk1::allocator<wchar_t> >::erase(unsigned int, unsigned int)
FUNC 48944 4c 0 std::__ndk1::basic_string<wchar_t, std::__ndk1::char_traits<wchar_t>, std::__ndk1::allocator<wchar_t> >::replace(unsigned int, unsigned int, std::__ndk1::basic_string<wchar_t, std::__ndk1::char_traits<wchar_t>, std::__ndk1::allocator<wchar_t> > const&, unsigned int, unsigned int)
FUNC 48990 116 0 std::__ndk1::basic_string<wchar_t, std::__ndk1::char_traits<wchar_t>, std::__ndk1::allocator<wchar_t> >::replace(unsigned int, unsigned int, wchar_t const*, unsigned int)
FUNC 48aa6 2e 0 std::__ndk1::basic_string<wchar_t, std::__ndk1::char_traits<wchar_t>, std::__ndk1::allocator<wchar_t> >::replace(unsigned int, unsigned int, wchar_t const*)
FUNC 48ad4 bc 0 std::__ndk1::basic_string<wchar_t, std::__ndk1::char_traits<wchar_t>, std::__ndk1::allocator<wchar_t> >::replace(unsigned int, unsigned int, unsigned int, wchar_t)
FUNC 48b90 3c 0 std::__ndk1::basic_string<wchar_t, std::__ndk1::char_traits<wchar_t>, std::__ndk1::allocator<wchar_t> >::copy(wchar_t*, unsigned int, unsigned int) const
FUNC 48bcc 24 0 std::__ndk1::basic_string<wchar_t, std::__ndk1::char_traits<wchar_t>, std::__ndk1::allocator<wchar_t> >::find(wchar_t const*, unsigned int, unsigned int) const
FUNC 48bf0 3e 0 unsigned int std::__ndk1::__str_find<wchar_t, unsigned int, std::__ndk1::char_traits<wchar_t>, 4294967295u>(wchar_t const*, unsigned int, wchar_t const*, unsigned int, unsigned int)
FUNC 48c2e 18 0 std::__ndk1::basic_string<wchar_t, std::__ndk1::char_traits<wchar_t>, std::__ndk1::allocator<wchar_t> >::find(wchar_t, unsigned int) const
FUNC 48c48 4c 0 unsigned int std::__ndk1::__str_find<wchar_t, unsigned int, std::__ndk1::char_traits<wchar_t>, 4294967295u>(wchar_t const*, unsigned int, wchar_t, unsigned int)
FUNC 48c94 24 0 std::__ndk1::basic_string<wchar_t, std::__ndk1::char_traits<wchar_t>, std::__ndk1::allocator<wchar_t> >::rfind(wchar_t const*, unsigned int, unsigned int) const
FUNC 48cb8 58 0 unsigned int std::__ndk1::__str_rfind<wchar_t, unsigned int, std::__ndk1::char_traits<wchar_t>, 4294967295u>(wchar_t const*, unsigned int, wchar_t const*, unsigned int, unsigned int)
FUNC 48d10 18 0 std::__ndk1::basic_string<wchar_t, std::__ndk1::char_traits<wchar_t>, std::__ndk1::allocator<wchar_t> >::rfind(wchar_t, unsigned int) const
FUNC 48d28 26 0 unsigned int std::__ndk1::__str_rfind<wchar_t, unsigned int, std::__ndk1::char_traits<wchar_t>, 4294967295u>(wchar_t const*, unsigned int, wchar_t, unsigned int)
FUNC 48d4e 24 0 std::__ndk1::basic_string<wchar_t, std::__ndk1::char_traits<wchar_t>, std::__ndk1::allocator<wchar_t> >::find_first_of(wchar_t const*, unsigned int, unsigned int) const
FUNC 48d72 52 0 unsigned int std::__ndk1::__str_find_first_of<wchar_t, unsigned int, std::__ndk1::char_traits<wchar_t>, 4294967295u>(wchar_t const*, unsigned int, wchar_t const*, unsigned int, unsigned int)
FUNC 48dc4 24 0 std::__ndk1::basic_string<wchar_t, std::__ndk1::char_traits<wchar_t>, std::__ndk1::allocator<wchar_t> >::find_last_of(wchar_t const*, unsigned int, unsigned int) const
FUNC 48de8 3e 0 unsigned int std::__ndk1::__str_find_last_of<wchar_t, unsigned int, std::__ndk1::char_traits<wchar_t>, 4294967295u>(wchar_t const*, unsigned int, wchar_t const*, unsigned int, unsigned int)
FUNC 48e26 24 0 std::__ndk1::basic_string<wchar_t, std::__ndk1::char_traits<wchar_t>, std::__ndk1::allocator<wchar_t> >::find_first_not_of(wchar_t const*, unsigned int, unsigned int) const
FUNC 48e4a 3a 0 unsigned int std::__ndk1::__str_find_first_not_of<wchar_t, unsigned int, std::__ndk1::char_traits<wchar_t>, 4294967295u>(wchar_t const*, unsigned int, wchar_t const*, unsigned int, unsigned int)
FUNC 48e84 24 0 std::__ndk1::basic_string<wchar_t, std::__ndk1::char_traits<wchar_t>, std::__ndk1::allocator<wchar_t> >::find_last_not_of(wchar_t const*, unsigned int, unsigned int) const
FUNC 48ea8 38 0 unsigned int std::__ndk1::__str_find_last_not_of<wchar_t, unsigned int, std::__ndk1::char_traits<wchar_t>, 4294967295u>(wchar_t const*, unsigned int, wchar_t const*, unsigned int, unsigned int)
FUNC 48ee0 60 0 std::__ndk1::basic_string<wchar_t, std::__ndk1::char_traits<wchar_t>, std::__ndk1::allocator<wchar_t> >::compare(unsigned int, unsigned int, std::__ndk1::basic_string<wchar_t, std::__ndk1::char_traits<wchar_t>, std::__ndk1::allocator<wchar_t> > const&, unsigned int, unsigned int) const
FUNC 48f40 70 0 std::__ndk1::basic_string<wchar_t, std::__ndk1::char_traits<wchar_t>, std::__ndk1::allocator<wchar_t> >::compare<std::__ndk1::basic_string_view<wchar_t, std::__ndk1::char_traits<wchar_t> > >
FUNC 48fb0 26 0 std::__ndk1::basic_string<wchar_t, std::__ndk1::char_traits<wchar_t>, std::__ndk1::allocator<wchar_t> >::compare(wchar_t const*) const
FUNC 48fd6 5e 0 std::__ndk1::basic_string<wchar_t, std::__ndk1::char_traits<wchar_t>, std::__ndk1::allocator<wchar_t> >::compare(unsigned int, unsigned int, wchar_t const*, unsigned int) const
FUNC 49034 2e 0 std::__ndk1::basic_string<wchar_t, std::__ndk1::char_traits<wchar_t>, std::__ndk1::allocator<wchar_t> >::compare(unsigned int, unsigned int, wchar_t const*) const
FUNC 49062 a 0 std::__ndk1::char_traits<wchar_t>::compare(wchar_t const*, wchar_t const*, unsigned int)
FUNC 4906c 58 0 std::__ndk1::basic_string<wchar_t, std::__ndk1::char_traits<wchar_t>, std::__ndk1::allocator<wchar_t> >::__init(wchar_t const*, unsigned int, unsigned int)
FUNC 490c4 58 0 std::__ndk1::basic_string<wchar_t, std::__ndk1::char_traits<wchar_t>, std::__ndk1::allocator<wchar_t> >::__init(unsigned int, wchar_t)
FUNC 4911c 5e 0 std::__ndk1::basic_string<char, std::__ndk1::char_traits<char>, std::__ndk1::allocator<char> > std::__ndk1::operator+<char, std::__ndk1::char_traits<char>, std::__ndk1::allocator<char> >(char const*, std::__ndk1::basic_string<char, std::__ndk1::char_traits<char>, std::__ndk1::allocator<char> > const&)
FUNC 4917c 64 0 std::__ndk1::stoi(std::__ndk1::basic_string<char, std::__ndk1::char_traits<char>, std::__ndk1::allocator<char> > const&, unsigned int*, int)
FUNC 491e0 24 0 std::__ndk1::basic_string<char, std::__ndk1::char_traits<char>, std::__ndk1::allocator<char> >::basic_string<decltype(nullptr)>(char const*)
FUNC 49204 64 0 std::__ndk1::stoi(std::__ndk1::basic_string<wchar_t, std::__ndk1::char_traits<wchar_t>, std::__ndk1::allocator<wchar_t> > const&, unsigned int*, int)
FUNC 49268 64 0 std::__ndk1::stol(std::__ndk1::basic_string<char, std::__ndk1::char_traits<char>, std::__ndk1::allocator<char> > const&, unsigned int*, int)
FUNC 492cc 64 0 std::__ndk1::stol(std::__ndk1::basic_string<wchar_t, std::__ndk1::char_traits<wchar_t>, std::__ndk1::allocator<wchar_t> > const&, unsigned int*, int)
FUNC 49330 ac 0 std::__ndk1::stoul(std::__ndk1::basic_string<char, std::__ndk1::char_traits<char>, std::__ndk1::allocator<char> > const&, unsigned int*, int)
FUNC 493dc b0 0 std::__ndk1::stoul(std::__ndk1::basic_string<wchar_t, std::__ndk1::char_traits<wchar_t>, std::__ndk1::allocator<wchar_t> > const&, unsigned int*, int)
FUNC 4948c b4 0 std::__ndk1::stoll(std::__ndk1::basic_string<char, std::__ndk1::char_traits<char>, std::__ndk1::allocator<char> > const&, unsigned int*, int)
FUNC 49540 b8 0 std::__ndk1::stoll(std::__ndk1::basic_string<wchar_t, std::__ndk1::char_traits<wchar_t>, std::__ndk1::allocator<wchar_t> > const&, unsigned int*, int)
FUNC 495f8 b4 0 std::__ndk1::stoull(std::__ndk1::basic_string<char, std::__ndk1::char_traits<char>, std::__ndk1::allocator<char> > const&, unsigned int*, int)
FUNC 496ac b8 0 std::__ndk1::stoull(std::__ndk1::basic_string<wchar_t, std::__ndk1::char_traits<wchar_t>, std::__ndk1::allocator<wchar_t> > const&, unsigned int*, int)
FUNC 49768 100 0 std::__ndk1::stof(std::__ndk1::basic_string<char, std::__ndk1::char_traits<char>, std::__ndk1::allocator<char> > const&, unsigned int*)
FUNC 49868 b0 0 std::__ndk1::stof(std::__ndk1::basic_string<wchar_t, std::__ndk1::char_traits<wchar_t>, std::__ndk1::allocator<wchar_t> > const&, unsigned int*)
FUNC 49918 b0 0 std::__ndk1::stod(std::__ndk1::basic_string<char, std::__ndk1::char_traits<char>, std::__ndk1::allocator<char> > const&, unsigned int*)
FUNC 499c8 b4 0 std::__ndk1::stod(std::__ndk1::basic_string<wchar_t, std::__ndk1::char_traits<wchar_t>, std::__ndk1::allocator<wchar_t> > const&, unsigned int*)
FUNC 49a7c b0 0 std::__ndk1::stold(std::__ndk1::basic_string<char, std::__ndk1::char_traits<char>, std::__ndk1::allocator<char> > const&, unsigned int*)
FUNC 49b2c b4 0 std::__ndk1::stold(std::__ndk1::basic_string<wchar_t, std::__ndk1::char_traits<wchar_t>, std::__ndk1::allocator<wchar_t> > const&, unsigned int*)
FUNC 49be0 cc 0 std::__ndk1::to_string(int)
FUNC 49cac cc 0 std::__ndk1::to_string(unsigned int)
FUNC 49d78 cc 0 std::__ndk1::to_string(long)
FUNC 49e44 cc 0 std::__ndk1::to_string(unsigned long)
FUNC 49f10 d4 0 std::__ndk1::to_string(long long)
FUNC 49fe4 d4 0 std::__ndk1::to_string(unsigned long long)
FUNC 4a0b8 e0 0 std::__ndk1::to_string(float)
FUNC 4a198 dc 0 std::__ndk1::to_string(double)
FUNC 4a274 dc 0 std::__ndk1::to_string(long double)
FUNC 4a350 d0 0 std::__ndk1::to_wstring(int)
FUNC 4a420 d0 0 std::__ndk1::to_wstring(unsigned int)
FUNC 4a4f0 d0 0 std::__ndk1::to_wstring(long)
FUNC 4a5c0 d0 0 std::__ndk1::to_wstring(unsigned long)
FUNC 4a690 d8 0 std::__ndk1::to_wstring(long long)
FUNC 4a768 d8 0 std::__ndk1::to_wstring(unsigned long long)
FUNC 4a840 e4 0 std::__ndk1::to_wstring(float)
FUNC 4a924 e0 0 std::__ndk1::to_wstring(double)
FUNC 4aa04 e0 0 std::__ndk1::to_wstring(long double)
FUNC 4aae4 18 0 std::out_of_range::out_of_range(char const*)
FUNC 4aafc 78 0 char const* std::__ndk1::__search_substring<char, std::__ndk1::char_traits<char> >(char const*, char const*, char const*, char const*)
FUNC 4ab74 10 0 std::__ndk1::char_traits<char>::find(char const*, unsigned int, char const&)
FUNC 4ab84 78 0 char const* std::__ndk1::__find_end<bool (*)(char, char) noexcept, char const*, char const*>(char const*, char const*, char const*, char const*, bool (*)(char, char) noexcept, std::__ndk1::random_access_iterator_tag, std::__ndk1::random_access_iterator_tag)
FUNC 4abfc a 0 std::__ndk1::char_traits<char>::eq(char, char)
FUNC 4ac08 7c 0 wchar_t const* std::__ndk1::__search_substring<wchar_t, std::__ndk1::char_traits<wchar_t> >(wchar_t const*, wchar_t const*, wchar_t const*, wchar_t const*)
FUNC 4ac84 10 0 std::__ndk1::char_traits<wchar_t>::find(wchar_t const*, unsigned int, wchar_t const&)
FUNC 4ac94 62 0 wchar_t const* std::__ndk1::__find_end<bool (*)(wchar_t, wchar_t) noexcept, wchar_t const*, wchar_t const*>(wchar_t const*, wchar_t const*, wchar_t const*, wchar_t const*, bool (*)(wchar_t, wchar_t) noexcept, std::__ndk1::random_access_iterator_tag, std::__ndk1::random_access_iterator_tag)
FUNC 4acf6 a 0 std::__ndk1::char_traits<wchar_t>::eq(wchar_t, wchar_t)
FUNC 4ad00 8c 0 long std::__ndk1::(anonymous namespace)::as_integer_helper<long, std::__ndk1::basic_string<char, std::__ndk1::char_traits<char>, std::__ndk1::allocator<char> >, long (*)(char const*, char**, int)>(std::__ndk1::basic_string<char, std::__ndk1::char_traits<char>, std::__ndk1::allocator<char> > const&, std::__ndk1::basic_string<char, std::__ndk1::char_traits<char>, std::__ndk1::allocator<char> > const&, unsigned int*, int, long (*)(char const*, char**, int))
FUNC 4ad8c 58 0 std::__ndk1::(anonymous namespace)::throw_from_string_out_of_range(std::__ndk1::basic_string<char, std::__ndk1::char_traits<char>, std::__ndk1::allocator<char> > const&)
FUNC 4ade4 58 0 std::__ndk1::(anonymous namespace)::throw_from_string_invalid_arg(std::__ndk1::basic_string<char, std::__ndk1::char_traits<char>, std::__ndk1::allocator<char> > const&)
FUNC 4ae3c 18 0 std::invalid_argument::invalid_argument(std::__ndk1::basic_string<char, std::__ndk1::char_traits<char>, std::__ndk1::allocator<char> > const&)
FUNC 4ae54 18 0 std::out_of_range::out_of_range(std::__ndk1::basic_string<char, std::__ndk1::char_traits<char>, std::__ndk1::allocator<char> > const&)
FUNC 4ae6c 90 0 long std::__ndk1::(anonymous namespace)::as_integer_helper<long, std::__ndk1::basic_string<wchar_t, std::__ndk1::char_traits<wchar_t>, std::__ndk1::allocator<wchar_t> >, long (*)(wchar_t const*, wchar_t**, int)>(std::__ndk1::basic_string<char, std::__ndk1::char_traits<char>, std::__ndk1::allocator<char> > const&, std::__ndk1::basic_string<wchar_t, std::__ndk1::char_traits<wchar_t>, std::__ndk1::allocator<wchar_t> > const&, unsigned int*, int, long (*)(wchar_t const*, wchar_t**, int))
FUNC 4aefc 2c 0 std::__ndk1::basic_string_view<char, std::__ndk1::char_traits<char> >::substr(unsigned int, unsigned int) const
FUNC 4af28 30 0 std::__ndk1::basic_string_view<char, std::__ndk1::char_traits<char> >::compare(std::__ndk1::basic_string_view<char, std::__ndk1::char_traits<char> >) const
FUNC 4af58 1c 0 std::__ndk1::allocator<wchar_t>::allocate(unsigned int, void const*)
FUNC 4af74 30 0 std::__ndk1::basic_string_view<wchar_t, std::__ndk1::char_traits<wchar_t> >::substr(unsigned int, unsigned int) const
FUNC 4afa4 30 0 std::__ndk1::basic_string_view<wchar_t, std::__ndk1::char_traits<wchar_t> >::compare(std::__ndk1::basic_string_view<wchar_t, std::__ndk1::char_traits<wchar_t> >) const
FUNC 4afd4 6 0 std::__ndk1::basic_string<char, std::__ndk1::char_traits<char>, std::__ndk1::allocator<char> >::resize(unsigned int)
FUNC 4afda 18 0 std::__ndk1::basic_string<wchar_t, std::__ndk1::char_traits<wchar_t>, std::__ndk1::allocator<wchar_t> >::basic_string(unsigned int, wchar_t)
FUNC 4aff2 6 0 std::__ndk1::basic_string<wchar_t, std::__ndk1::char_traits<wchar_t>, std::__ndk1::allocator<wchar_t> >::resize(unsigned int)
FUNC 4aff8 12 0 std::__ndk1::basic_string<wchar_t, std::__ndk1::char_traits<wchar_t>, std::__ndk1::allocator<wchar_t> >::__zero()
FUNC 4b00c 10 0 std::__ndk1::error_category::error_category()
FUNC 4b01c 2 0 std::__ndk1::error_category::~error_category()
FUNC 4b01e 6 0 std::__ndk1::error_category::default_error_condition(int) const
FUNC 4b024 48 0 std::__ndk1::error_category::equivalent(int, std::__ndk1::error_condition const&) const
FUNC 4b06c 12 0 std::__ndk1::error_category::equivalent(std::__ndk1::error_code const&, int) const
FUNC 4b080 90 0 std::__ndk1::__do_message::message(int) const
FUNC 4b110 c 0 std::__ndk1::__generic_error_category::name() const
FUNC 4b11c 20 0 std::__ndk1::__generic_error_category::message(int) const
FUNC 4b13c 40 0 std::__ndk1::generic_category()
FUNC 4b17c c 0 std::__ndk1::__system_error_category::name() const
FUNC 4b188 20 0 std::__ndk1::__system_error_category::message(int) const
FUNC 4b1a8 30 0 std::__ndk1::__system_error_category::default_error_condition(int) const
FUNC 4b1d8 40 0 std::__ndk1::system_category()
FUNC 4b218 10 0 std::__ndk1::error_condition::message() const
FUNC 4b228 10 0 <name omitted>
FUNC 4b238 8c 0 std::__ndk1::system_error::__init(std::__ndk1::error_code const&, std::__ndk1::basic_string<char, std::__ndk1::char_traits<char>, std::__ndk1::allocator<char> >)
FUNC 4b2c4 8c 0 std::__ndk1::system_error::system_error(std::__ndk1::error_code, std::__ndk1::basic_string<char, std::__ndk1::char_traits<char>, std::__ndk1::allocator<char> > const&)
FUNC 4b350 8c 0 std::__ndk1::system_error::system_error(std::__ndk1::error_code, char const*)
FUNC 4b3dc 94 0 std::__ndk1::system_error::system_error(std::__ndk1::error_code)
FUNC 4b470 90 0 std::__ndk1::system_error::system_error(int, std::__ndk1::error_category const&, std::__ndk1::basic_string<char, std::__ndk1::char_traits<char>, std::__ndk1::allocator<char> > const&)
FUNC 4b500 90 0 std::__ndk1::system_error::system_error(int, std::__ndk1::error_category const&, char const*)
FUNC 4b590 98 0 std::__ndk1::system_error::system_error(int, std::__ndk1::error_category const&)
FUNC 4b628 4 0 <name omitted>
FUNC 4b62c 10 0 std::__ndk1::system_error::~system_error()
FUNC 4b63c 58 0 std::__ndk1::__throw_system_error(int, char const*)
FUNC 4b694 2 0 std::__ndk1::error_category::~error_category()
FUNC 4b696 2 0 std::__ndk1::__do_message::~__do_message()
FUNC 4b698 4 0 std::__ndk1::__generic_error_category::~__generic_error_category()
FUNC 4b69c 4 0 std::__ndk1::__system_error_category::~__system_error_category()
FUNC 4b6a0 e 0 std::__ndk1::thread::~thread()
FUNC 4b6b0 28 0 std::__ndk1::thread::join()
FUNC 4b6d8 8 0 std::__ndk1::__libcpp_thread_join(long*)
FUNC 4b6e0 28 0 std::__ndk1::thread::detach()
FUNC 4b708 6 0 std::__ndk1::__libcpp_thread_detach(long*)
FUNC 4b70e 14 0 std::__ndk1::thread::hardware_concurrency()
FUNC 4b722 12 0 std::__ndk1::this_thread::sleep_for(std::__ndk1::chrono::duration<long long, std::__ndk1::ratio<1ll, 1000000000ll> > const&)
FUNC 4b734 98 0 std::__ndk1::__libcpp_thread_sleep_for(std::__ndk1::chrono::duration<long long, std::__ndk1::ratio<1ll, 1000000000ll> > const&)
FUNC 4b7cc 50 0 std::__ndk1::__thread_local_data()
FUNC 4b81c 24 0 std::__ndk1::__thread_specific_ptr<std::__ndk1::__thread_struct>::__thread_specific_ptr()
FUNC 4b840 68 0 std::__ndk1::__thread_struct_imp::~__thread_struct_imp()
FUNC 4b8a8 4 0 std::__ndk1::vector<std::__ndk1::pair<std::__ndk1::condition_variable*, std::__ndk1::mutex*>, std::__ndk1::__hidden_allocator<std::__ndk1::pair<std::__ndk1::condition_variable*, std::__ndk1::mutex*> > >::~vector()
FUNC 4b8ac 4 0 std::__ndk1::vector<std::__ndk1::__assoc_sub_state*, std::__ndk1::__hidden_allocator<std::__ndk1::__assoc_sub_state*> >::~vector()
FUNC 4b8b0 2c 0 std::__ndk1::__thread_struct_imp::notify_all_at_thread_exit(std::__ndk1::condition_variable*, std::__ndk1::mutex*)
FUNC 4b8dc 1c 0 std::__ndk1::vector<std::__ndk1::pair<std::__ndk1::condition_variable*, std::__ndk1::mutex*>, std::__ndk1::__hidden_allocator<std::__ndk1::pair<std::__ndk1::condition_variable*, std::__ndk1::mutex*> > >::push_back(std::__ndk1::pair<std::__ndk1::condition_variable*, std::__ndk1::mutex*>&&)
FUNC 4b8f8 30 0 std::__ndk1::__thread_struct_imp::__make_ready_at_thread_exit(std::__ndk1::__assoc_sub_state*)
FUNC 4b928 18 0 std::__ndk1::vector<std::__ndk1::__assoc_sub_state*, std::__ndk1::__hidden_allocator<std::__ndk1::__assoc_sub_state*> >::push_back(std::__ndk1::__assoc_sub_state* const&)
FUNC 4b940 1a 0 std::__ndk1::__thread_struct::__thread_struct()
FUNC 4b95a 16 0 std::__ndk1::__thread_struct::~__thread_struct()
FUNC 4b970 6 0 std::__ndk1::__thread_struct::notify_all_at_thread_exit(std::__ndk1::condition_variable*, std::__ndk1::mutex*)
FUNC 4b976 6 0 std::__ndk1::__thread_struct::__make_ready_at_thread_exit(std::__ndk1::__assoc_sub_state*)
FUNC 4b97c 14 0 std::__ndk1::__thread_specific_ptr<std::__ndk1::__thread_struct>::__at_thread_exit(void*)
FUNC 4b990 14 0 std::__ndk1::__vector_base<std::__ndk1::__assoc_sub_state*, std::__ndk1::__hidden_allocator<std::__ndk1::__assoc_sub_state*> >::~__vector_base()
FUNC 4b9a4 14 0 std::__ndk1::__vector_base<std::__ndk1::pair<std::__ndk1::condition_variable*, std::__ndk1::mutex*>, std::__ndk1::__hidden_allocator<std::__ndk1::pair<std::__ndk1::condition_variable*, std::__ndk1::mutex*> > >::~__vector_base()
FUNC 4b9b8 84 0 void std::__ndk1::vector<std::__ndk1::pair<std::__ndk1::condition_variable*, std::__ndk1::mutex*>, std::__ndk1::__hidden_allocator<std::__ndk1::pair<std::__ndk1::condition_variable*, std::__ndk1::mutex*> > >::__push_back_slow_path<std::__ndk1::pair<std::__ndk1::condition_variable*, std::__ndk1::mutex*> >(std::__ndk1::pair<std::__ndk1::condition_variable*, std::__ndk1::mutex*>&&)
FUNC 4ba3c 34 0 std::__ndk1::vector<std::__ndk1::pair<std::__ndk1::condition_variable*, std::__ndk1::mutex*>, std::__ndk1::__hidden_allocator<std::__ndk1::pair<std::__ndk1::condition_variable*, std::__ndk1::mutex*> > >::__recommend(unsigned int) const
FUNC 4ba70 36 0 std::__ndk1::__split_buffer<std::__ndk1::pair<std::__ndk1::condition_variable*, std::__ndk1::mutex*>, std::__ndk1::__hidden_allocator<std::__ndk1::pair<std::__ndk1::condition_variable*, std::__ndk1::mutex*> >&>::__split_buffer(unsigned int, unsigned int, std::__ndk1::__hidden_allocator<std::__ndk1::pair<std::__ndk1::condition_variable*, std::__ndk1::mutex*> >&)
FUNC 4baa6 3a 0 std::__ndk1::vector<std::__ndk1::pair<std::__ndk1::condition_variable*, std::__ndk1::mutex*>, std::__ndk1::__hidden_allocator<std::__ndk1::pair<std::__ndk1::condition_variable*, std::__ndk1::mutex*> > >::__swap_out_circular_buffer(std::__ndk1::__split_buffer<std::__ndk1::pair<std::__ndk1::condition_variable*, std::__ndk1::mutex*>, std::__ndk1::__hidden_allocator<std::__ndk1::pair<std::__ndk1::condition_variable*, std::__ndk1::mutex*> >&>&)
FUNC 4bae0 16 0 std::__ndk1::__split_buffer<std::__ndk1::pair<std::__ndk1::condition_variable*, std::__ndk1::mutex*>, std::__ndk1::__hidden_allocator<std::__ndk1::pair<std::__ndk1::condition_variable*, std::__ndk1::mutex*> >&>::~__split_buffer()
FUNC 4baf6 6 0 std::__ndk1::__split_buffer<std::__ndk1::pair<std::__ndk1::condition_variable*, std::__ndk1::mutex*>, std::__ndk1::__hidden_allocator<std::__ndk1::pair<std::__ndk1::condition_variable*, std::__ndk1::mutex*> >&>::clear()
FUNC 4bafc e 0 std::__ndk1::__split_buffer<std::__ndk1::pair<std::__ndk1::condition_variable*, std::__ndk1::mutex*>, std::__ndk1::__hidden_allocator<std::__ndk1::pair<std::__ndk1::condition_variable*, std::__ndk1::mutex*> >&>::__destruct_at_end(std::__ndk1::pair<std::__ndk1::condition_variable*, std::__ndk1::mutex*>*, std::__ndk1::integral_constant<bool, false>)
FUNC 4bb0c 98 0 void std::__ndk1::vector<std::__ndk1::__assoc_sub_state*, std::__ndk1::__hidden_allocator<std::__ndk1::__assoc_sub_state*> >::__push_back_slow_path<std::__ndk1::__assoc_sub_state* const&>(std::__ndk1::__assoc_sub_state* const&)
FUNC 4bba4 34 0 std::__ndk1::vector<std::__ndk1::__assoc_sub_state*, std::__ndk1::__hidden_allocator<std::__ndk1::__assoc_sub_state*> >::__recommend(unsigned int) const
FUNC 4bbd8 3a 0 std::__ndk1::vector<std::__ndk1::__assoc_sub_state*, std::__ndk1::__hidden_allocator<std::__ndk1::__assoc_sub_state*> >::__swap_out_circular_buffer(std::__ndk1::__split_buffer<std::__ndk1::__assoc_sub_state*, std::__ndk1::__hidden_allocator<std::__ndk1::__assoc_sub_state*>&>&)
FUNC 4bc12 16 0 std::__ndk1::__split_buffer<std::__ndk1::__assoc_sub_state*, std::__ndk1::__hidden_allocator<std::__ndk1::__assoc_sub_state*>&>::~__split_buffer()
FUNC 4bc28 6 0 std::__ndk1::__split_buffer<std::__ndk1::__assoc_sub_state*, std::__ndk1::__hidden_allocator<std::__ndk1::__assoc_sub_state*>&>::clear()
FUNC 4bc2e e 0 std::__ndk1::__split_buffer<std::__ndk1::__assoc_sub_state*, std::__ndk1::__hidden_allocator<std::__ndk1::__assoc_sub_state*>&>::__destruct_at_end(std::__ndk1::__assoc_sub_state**, std::__ndk1::integral_constant<bool, false>)
FUNC 4bc3c 12 0 std::__ndk1::condition_variable::~condition_variable()
FUNC 4bc4e e 0 std::__ndk1::condition_variable::notify_one()
FUNC 4bc5c e 0 std::__ndk1::condition_variable::notify_all()
FUNC 4bc6c 34 0 std::__ndk1::condition_variable::wait(std::__ndk1::unique_lock<std::__ndk1::mutex>&)
FUNC 4bca0 c0 0 std::__ndk1::condition_variable::__do_timed_wait(std::__ndk1::unique_lock<std::__ndk1::mutex>&, std::__ndk1::chrono::time_point<std::__ndk1::chrono::system_clock, std::__ndk1::chrono::duration<long long, std::__ndk1::ratio<1ll, 1000000000ll> > >)
FUNC 4bd60 58 0 std::__ndk1::notify_all_at_thread_exit(std::__ndk1::condition_variable&, std::__ndk1::unique_lock<std::__ndk1::mutex>)
FUNC 4bdb8 6 0 std::__ndk1::__thread_specific_ptr<std::__ndk1::__thread_struct>::get() const
FUNC 4bdc0 c 0 std::__ndk1::__future_error_category::name() const
FUNC 4bdcc 58 0 std::__ndk1::__future_error_category::message(int) const
FUNC 4be24 54 0 std::__ndk1::future_category()
FUNC 4be78 18 0 std::__ndk1::__future_error_category::__future_error_category()
FUNC 4be90 70 0 std::__ndk1::future_error::future_error(std::__ndk1::error_code)
FUNC 4bf00 4 0 <name omitted>
FUNC 4bf04 10 0 std::__ndk1::future_error::~future_error()
FUNC 4bf14 a 0 std::__ndk1::__assoc_sub_state::__on_zero_shared()
FUNC 4bf20 64 0 std::__ndk1::__assoc_sub_state::set_value()
FUNC 4bf84 40 0 std::__ndk1::__assoc_sub_state::__has_value() const
FUNC 4bfc4 4c 0 std::__ndk1::__throw_future_error(std::__ndk1::future_errc)
FUNC 4c010 14 0 std::__ndk1::unique_lock<std::__ndk1::mutex>::~unique_lock()
FUNC 4c024 6c 0 std::__ndk1::__assoc_sub_state::set_value_at_thread_exit()
FUNC 4c090 7c 0 std::__ndk1::__assoc_sub_state::set_exception(std::exception_ptr)
FUNC 4c10c 7c 0 std::__ndk1::__assoc_sub_state::set_exception_at_thread_exit(std::exception_ptr)
FUNC 4c188 48 0 std::__ndk1::__assoc_sub_state::__make_ready()
FUNC 4c1d0 80 0 std::__ndk1::__assoc_sub_state::copy()
FUNC 4c250 4c 0 std::__ndk1::__assoc_sub_state::__sub_wait(std::__ndk1::unique_lock<std::__ndk1::mutex>&)
FUNC 4c29c 50 0 std::__ndk1::__assoc_sub_state::wait()
FUNC 4c2ec 24 0 std::__ndk1::unique_lock<std::__ndk1::mutex>::unlock()
FUNC 4c310 a 0 std::__ndk1::__assoc_sub_state::__execute()
FUNC 4c31a 12 0 <name omitted>
FUNC 4c32c 42 0 std::__ndk1::__assoc_sub_state::__attach_future()
FUNC 4c36e 12 0 std::__ndk1::future<void>::~future()
FUNC 4c380 44 0 std::__ndk1::future<void>::get()
FUNC 4c3c4 10 0 std::__ndk1::unique_ptr<std::__ndk1::__shared_count, std::__ndk1::__release_shared_count>::~unique_ptr()
FUNC 4c3d4 2c 0 std::__ndk1::promise<void>::promise()
FUNC 4c400 94 0 std::__ndk1::promise<void>::~promise()
FUNC 4c494 40 0 std::exception_ptr std::make_exception_ptr<std::__ndk1::future_error>(std::__ndk1::future_error)
FUNC 4c4d4 18 0 std::__ndk1::promise<void>::get_future()
FUNC 4c4ec 12 0 std::__ndk1::promise<void>::set_value()
FUNC 4c500 5c 0 std::__ndk1::promise<void>::set_exception(std::exception_ptr)
FUNC 4c55c 12 0 std::__ndk1::promise<void>::set_value_at_thread_exit()
FUNC 4c570 5c 0 std::__ndk1::promise<void>::set_exception_at_thread_exit(std::exception_ptr)
FUNC 4c5cc 12 0 std::__ndk1::shared_future<void>::~shared_future()
FUNC 4c5de 20 0 std::__ndk1::shared_future<void>::operator=(std::__ndk1::shared_future<void> const&)
FUNC 4c600 38 0 std::__ndk1::__assoc_sub_state::~__assoc_sub_state()
FUNC 4c638 10 0 std::__ndk1::__assoc_sub_state::~__assoc_sub_state()
FUNC 4c648 10 0 std::__ndk1::__future_error_category::~__future_error_category()
FUNC 4c658 18 0 std::__ndk1::__do_message::__do_message()
FUNC 4c670 16 0 std::__ndk1::unique_ptr<std::__ndk1::__shared_count, std::__ndk1::__release_shared_count>::reset(std::__ndk1::__shared_count*)
FUNC 4c688 24 0 std::__ndk1::future_error::future_error(std::__ndk1::future_error const&)
FUNC 4c6ac 4 0 <name omitted>
FUNC 4c6b0 10 0 std::__ndk1::bad_weak_ptr::~bad_weak_ptr()
FUNC 4c6c0 c 0 std::__ndk1::bad_weak_ptr::what() const
FUNC 4c6cc 2 0 std::__ndk1::__shared_count::~__shared_count()
FUNC 4c6ce 2 0 std::__ndk1::__shared_count::~__shared_count()
FUNC 4c6d0 2 0 std::__ndk1::__shared_weak_count::~__shared_weak_count()
FUNC 4c6d2 12 0 <name omitted>
FUNC 4c6e4 30 0 <name omitted>
FUNC 4c714 12 0 std::__ndk1::__shared_weak_count::__add_shared()
FUNC 4c726 12 0 std::__ndk1::__shared_weak_count::__add_weak()
FUNC 4c738 36 0 std::__ndk1::__shared_weak_count::__release_shared()
FUNC 4c76e 2e 0 std::__ndk1::__shared_weak_count::__release_weak()
FUNC 4c79c 38 0 std::__ndk1::__shared_weak_count::lock()
FUNC 4c7d4 4 0 std::__ndk1::__shared_weak_count::__get_deleter(std::type_info const&) const
FUNC 4c7d8 30 0 std::__ndk1::__sp_mut::lock()
FUNC 4c808 10 0 std::__ndk1::__libcpp_mutex_trylock(pthread_mutex_t*)
FUNC 4c818 e 0 std::__ndk1::this_thread::yield()
FUNC 4c826 10 0 std::__ndk1::__sp_mut::unlock()
FUNC 4c838 3c 0 std::__ndk1::__get_sp_mut(void const*)
FUNC 4c874 34 0 std::__ndk1::hash<void const*>::operator()(void const*) const
FUNC 4c8a8 2 0 std::__ndk1::declare_reachable(void*)
FUNC 4c8aa 2 0 std::__ndk1::declare_no_pointers(char*, unsigned int)
FUNC 4c8ac 2 0 std::__ndk1::undeclare_no_pointers(char*, unsigned int)
FUNC 4c8ae 4 0 std::__ndk1::get_pointer_safety()
FUNC 4c8b2 2 0 std::__ndk1::__undeclare_reachable(void*)
FUNC 4c8b4 38 0 std::__ndk1::align(unsigned int, unsigned int, void*&, unsigned int&)
FUNC 4c8ec 74 0 std::__ndk1::__murmur2_or_cityhash<unsigned int, 32u>::operator()(void const*, unsigned int)
FUNC 4c960 12 0 std::__ndk1::mutex::~mutex()
FUNC 4c974 18 0 std::__ndk1::mutex::lock()
FUNC 4c98c e 0 std::__ndk1::mutex::try_lock()
FUNC 4c99a e 0 std::__ndk1::mutex::unlock()
FUNC 4c9a8 1c 0 std::__ndk1::recursive_mutex::recursive_mutex()
FUNC 4c9c4 74 0 std::__ndk1::__libcpp_recursive_mutex_init(pthread_mutex_t*)
FUNC 4ca38 12 0 std::__ndk1::recursive_mutex::~recursive_mutex()
FUNC 4ca4c 18 0 std::__ndk1::recursive_mutex::lock()
FUNC 4ca64 e 0 std::__ndk1::recursive_mutex::unlock()
FUNC 4ca72 e 0 std::__ndk1::recursive_mutex::try_lock()
FUNC 4ca80 10 0 std::__ndk1::__libcpp_recursive_mutex_trylock(pthread_mutex_t*)
FUNC 4ca90 a 0 std::__ndk1::timed_mutex::timed_mutex()
FUNC 4ca9a 34 0 std::__ndk1::timed_mutex::~timed_mutex()
FUNC 4cad0 60 0 std::__ndk1::timed_mutex::lock()
FUNC 4cb30 54 0 std::__ndk1::timed_mutex::try_lock()
FUNC 4cb84 22 0 std::__ndk1::timed_mutex::unlock()
FUNC 4cba6 c 0 std::__ndk1::recursive_timed_mutex::recursive_timed_mutex()
FUNC 4cbb2 34 0 std::__ndk1::recursive_timed_mutex::~recursive_timed_mutex()
FUNC 4cbe8 94 0 std::__ndk1::recursive_timed_mutex::lock()
FUNC 4cc7c 10 0 std::__ndk1::__libcpp_thread_id_equal(long, long)
FUNC 4cc8c 7c 0 std::__ndk1::recursive_timed_mutex::try_lock()
FUNC 4cd08 60 0 std::__ndk1::recursive_timed_mutex::unlock()
FUNC 4cd68 c4 0 std::__ndk1::__call_once(unsigned long volatile&, void*, void (*)(void*))
FUNC 4ce2c 14 0 std::uncaught_exception()
FUNC 4ce40 4 0 std::uncaught_exceptions()
FUNC 4ce44 10 0 <name omitted>
FUNC 4ce54 12 0 <name omitted>
FUNC 4ce66 22 0 std::exception_ptr::operator=(std::exception_ptr const&)
FUNC 4ce88 20 0 std::nested_exception::nested_exception()
FUNC 4cea8 e 0 std::current_exception()
FUNC 4ceb8 20 0 std::nested_exception::~nested_exception()
FUNC 4ced8 10 0 std::nested_exception::~nested_exception()
FUNC 4cee8 32 0 std::nested_exception::rethrow_nested() const
FUNC 4cf1a e 0 std::rethrow_exception(std::exception_ptr)
FUNC 4cf38 6 0 <name omitted>
FUNC 4cf3e 6 0 <name omitted>
FUNC 4cf44 28 0 <name omitted>
FUNC 4cf6c 2a 0 __cxa_allocate_exception
FUNC 4cf96 10 0 __cxa_free_exception
FUNC 4cfa6 1c 0 __cxa_allocate_dependent_exception
FUNC 4cfc2 4 0 <name omitted>
FUNC 4cfc8 5c 0 __cxa_throw
FUNC 4d024 18 0 __cxxabiv1::exception_cleanup_func(_Unwind_Reason_Code, _Unwind_Control_Block*)
FUNC 4d03c 12 0 __cxxabiv1::failed_throw(__cxxabiv1::__cxa_exception*)
FUNC 4d04e 4 0 __cxa_get_exception_ptr
FUNC 4d054 58 0 __cxa_begin_cleanup
FUNC 4d0ac 5c 0 __cxxabiv1::__cxa_end_cleanup_impl()
FUNC 4d108 70 0 __cxa_begin_catch
FUNC 4d178 84 0 __cxa_end_catch
FUNC 4d1fc 3e 0 __cxa_decrement_exception_refcount
FUNC 4d23c 38 0 __cxa_current_exception_type
FUNC 4d274 60 0 __cxa_rethrow
FUNC 4d2d4 1c 0 <name omitted>
FUNC 4d2f0 60 0 __cxa_current_primary_exception
FUNC 4d350 78 0 __cxa_rethrow_primary_exception
FUNC 4d3c8 24 0 __cxxabiv1::dependent_exception_cleanup(_Unwind_Reason_Code, _Unwind_Control_Block*)
FUNC 4d3ec 10 0 __cxa_uncaught_exception
FUNC 4d3fc 16 0 __cxa_uncaught_exceptions
FUNC 4d414 48 0 __cxa_get_globals
FUNC 4d45c 34 0 __cxa_get_globals_fast
FUNC 4d490 28 0 __cxxabiv1::(anonymous namespace)::construct_()
FUNC 4d4b8 28 0 __cxxabiv1::(anonymous namespace)::destruct_(void*)
FUNC 4d4e0 74 0 __cxa_guard_acquire
FUNC 4d554 58 0 __cxa_guard_release
FUNC 4d5ac 58 0 __cxa_guard_abort
FUNC 4d604 14 0 <name omitted>
FUNC 4d618 40 0 std::terminate()
FUNC 4d658 14 0 std::__unexpected(void (*)())
FUNC 4d66c 18 0 std::unexpected()
FUNC 4d684 14 0 std::get_terminate()
FUNC 4d698 34 0 std::__terminate(void (*)())
FUNC 4d6cc 24 0 std::set_new_handler(void (*)())
FUNC 4d6f0 14 0 std::get_new_handler()
FUNC 4d704 11c 0 __gxx_personality_v0
FUNC 4d820 14 0 __cxxabiv1::continue_unwind(_Unwind_Control_Block*, _Unwind_Context*)
FUNC 4d834 2d8 0 __cxxabiv1::scan_eh_tab(__cxxabiv1::(anonymous namespace)::scan_results&, _Unwind_Action, bool, _Unwind_Control_Block*, _Unwind_Context*)
FUNC 4db0c 38 0 _Unwind_GetGR(_Unwind_Context*, int)
FUNC 4db44 1c 0 __cxxabiv1::call_terminate(bool, _Unwind_Control_Block*)
FUNC 4db60 48 0 __cxxabiv1::set_registers(_Unwind_Control_Block*, _Unwind_Context*, __cxxabiv1::(anonymous namespace)::scan_results const&)
FUNC 4dba8 16c 0 __cxa_call_unexpected
FUNC 4dd14 a4 0 __cxxabiv1::readEncodedPointer(unsigned char const**, unsigned char)
FUNC 4ddb8 28 0 __cxxabiv1::readULEB128(unsigned char const**)
FUNC 4dde0 6c 0 __cxxabiv1::exception_spec_can_catch(long long, unsigned char const*, unsigned char, __cxxabiv1::__shim_type_info const*, void*, _Unwind_Control_Block*)
FUNC 4de4c 3e 0 __cxxabiv1::readSLEB128(unsigned char const**)
FUNC 4de8c 28 0 __cxxabiv1::get_thrown_object_ptr(_Unwind_Control_Block*)
FUNC 4deb4 34 0 _Unwind_SetGR(_Unwind_Context*, int, unsigned int)
FUNC 4dee8 10 0 __cxa_pure_virtual
FUNC 4def8 10 0 __cxa_deleted_virtual
FUNC 4df08 44 0 __cxxabiv1::__aligned_malloc_with_fallback(unsigned int)
FUNC 4df4c c0 0 (anonymous namespace)::fallback_malloc(unsigned int)
FUNC 4e00c 32 0 __cxxabiv1::__calloc_with_fallback(unsigned int, unsigned int)
FUNC 4e040 20 0 __cxxabiv1::__aligned_free_with_fallback(void*)
FUNC 4e060 c0 0 (anonymous namespace)::fallback_free(void*)
FUNC 4e120 20 0 __cxxabiv1::__free_with_fallback(void*)
FUNC 4e140 14 0 (anonymous namespace)::mutexor::~mutexor()
FUNC 4e154 4 0 <name omitted>
FUNC 4e158 2 0 __cxxabiv1::__shim_type_info::~__shim_type_info()
FUNC 4e15a 2 0 __cxxabiv1::__shim_type_info::noop1() const
FUNC 4e15c 2 0 __cxxabiv1::__shim_type_info::noop2() const
FUNC 4e15e 10 0 __cxxabiv1::__fundamental_type_info::~__fundamental_type_info()
FUNC 4e16e 10 0 __cxxabiv1::__array_type_info::~__array_type_info()
FUNC 4e17e 10 0 __cxxabiv1::__function_type_info::~__function_type_info()
FUNC 4e18e 10 0 __cxxabiv1::__enum_type_info::~__enum_type_info()
FUNC 4e19e 10 0 __cxxabiv1::__class_type_info::~__class_type_info()
FUNC 4e1ae 10 0 __cxxabiv1::__si_class_type_info::~__si_class_type_info()
FUNC 4e1be 10 0 __cxxabiv1::__vmi_class_type_info::~__vmi_class_type_info()
FUNC 4e1ce 10 0 __cxxabiv1::__pbase_type_info::~__pbase_type_info()
FUNC 4e1de 10 0 __cxxabiv1::__pointer_type_info::~__pointer_type_info()
FUNC 4e1ee 10 0 __cxxabiv1::__pointer_to_member_type_info::~__pointer_to_member_type_info()
FUNC 4e1fe a 0 __cxxabiv1::__fundamental_type_info::can_catch(__cxxabiv1::__shim_type_info const*, void*&) const
FUNC 4e208 20 0 is_equal(std::type_info const*, std::type_info const*, bool)
FUNC 4e228 4 0 __cxxabiv1::__array_type_info::can_catch(__cxxabiv1::__shim_type_info const*, void*&) const
FUNC 4e22c 4 0 __cxxabiv1::__function_type_info::can_catch(__cxxabiv1::__shim_type_info const*, void*&) const
FUNC 4e230 a 0 __cxxabiv1::__enum_type_info::can_catch(__cxxabiv1::__shim_type_info const*, void*&) const
FUNC 4e23c a0 0 __cxxabiv1::__class_type_info::can_catch(__cxxabiv1::__shim_type_info const*, void*&) const
FUNC 4e2dc 2e 0 __cxxabiv1::__class_type_info::process_found_base_class(__cxxabiv1::__dynamic_cast_info*, void*, int) const
FUNC 4e30a e 0 __cxxabiv1::__class_type_info::has_unambiguous_public_base(__cxxabiv1::__dynamic_cast_info*, void*, int) const
FUNC 4e318 18 0 __cxxabiv1::__si_class_type_info::has_unambiguous_public_base(__cxxabiv1::__dynamic_cast_info*, void*, int) const
FUNC 4e330 38 0 __cxxabiv1::__base_class_type_info::has_unambiguous_public_base(__cxxabiv1::__dynamic_cast_info*, void*, int) const
FUNC 4e368 62 0 __cxxabiv1::__vmi_class_type_info::has_unambiguous_public_base(__cxxabiv1::__dynamic_cast_info*, void*, int) const
FUNC 4e3cc 50 0 __cxxabiv1::__pbase_type_info::can_catch(__cxxabiv1::__shim_type_info const*, void*&) const
FUNC 4e41c 1e8 0 __cxxabiv1::__pointer_type_info::can_catch(__cxxabiv1::__shim_type_info const*, void*&) const
FUNC 4e604 a0 0 __cxxabiv1::__pointer_type_info::can_catch_nested(__cxxabiv1::__shim_type_info const*) const
FUNC 4e6a4 50 0 __cxxabiv1::__pointer_to_member_type_info::can_catch_nested(__cxxabiv1::__shim_type_info const*) const
FUNC 4e6f4 b4 0 __cxxabiv1::__pointer_to_member_type_info::can_catch(__cxxabiv1::__shim_type_info const*, void*&) const
FUNC 4e7a8 d0 0 __dynamic_cast
FUNC 4e878 6e 0 __cxxabiv1::__class_type_info::process_static_type_above_dst(__cxxabiv1::__dynamic_cast_info*, void const*, void const*, int) const
FUNC 4e8e6 12 0 <name omitted>
FUNC 4e8f8 1ae 0 __cxxabiv1::__vmi_class_type_info::search_below_dst(__cxxabiv1::__dynamic_cast_info*, void const*, int, bool) const
FUNC 4eaa6 3a 0 __cxxabiv1::__base_class_type_info::search_above_dst(__cxxabiv1::__dynamic_cast_info*, void const*, void const*, int, bool) const
FUNC 4eae0 30 0 __cxxabiv1::__base_class_type_info::search_below_dst(__cxxabiv1::__dynamic_cast_info*, void const*, int, bool) const
FUNC 4eb10 c2 0 __cxxabiv1::__si_class_type_info::search_below_dst(__cxxabiv1::__dynamic_cast_info*, void const*, int, bool) const
FUNC 4ebd2 7a 0 __cxxabiv1::__class_type_info::search_below_dst(__cxxabiv1::__dynamic_cast_info*, void const*, int, bool) const
FUNC 4ec4c 100 0 __cxxabiv1::__vmi_class_type_info::search_above_dst(__cxxabiv1::__dynamic_cast_info*, void const*, void const*, int, bool) const
FUNC 4ed4c 4a 0 __cxxabiv1::__si_class_type_info::search_above_dst(__cxxabiv1::__dynamic_cast_info*, void const*, void const*, int, bool) const
FUNC 4ed96 30 0 __cxxabiv1::__class_type_info::search_above_dst(__cxxabiv1::__dynamic_cast_info*, void const*, void const*, int, bool) const
FUNC 4edc8 2 0 std::exception::~exception()
FUNC 4edca 4 0 std::exception::~exception()
FUNC 4edd0 c 0 std::exception::what() const
FUNC 4eddc 4 0 std::bad_exception::~bad_exception()
FUNC 4ede0 c 0 std::bad_exception::what() const
FUNC 4edec 10 0 std::bad_alloc::bad_alloc()
FUNC 4edfc 4 0 std::bad_alloc::~bad_alloc()
FUNC 4ee00 c 0 std::bad_alloc::what() const
FUNC 4ee0c 10 0 std::bad_array_new_length::bad_array_new_length()
FUNC 4ee1c 4 0 std::bad_array_new_length::~bad_array_new_length()
FUNC 4ee20 c 0 std::bad_array_new_length::what() const
FUNC 4ee2c 28 0 std::logic_error::~logic_error()
FUNC 4ee54 30 0 std::__ndk1::__libcpp_refstring::~__libcpp_refstring()
FUNC 4ee84 10 0 std::logic_error::~logic_error()
FUNC 4ee94 4 0 std::logic_error::what() const
FUNC 4ee98 28 0 std::runtime_error::~runtime_error()
FUNC 4eec0 10 0 std::runtime_error::~runtime_error()
FUNC 4eed0 4 0 std::runtime_error::what() const
FUNC 4eed4 10 0 std::domain_error::~domain_error()
FUNC 4eee4 10 0 std::invalid_argument::~invalid_argument()
FUNC 4eef4 10 0 std::length_error::~length_error()
FUNC 4ef04 10 0 std::out_of_range::~out_of_range()
FUNC 4ef14 10 0 std::range_error::~range_error()
FUNC 4ef24 10 0 std::overflow_error::~overflow_error()
FUNC 4ef34 10 0 std::underflow_error::~underflow_error()
FUNC 4ef44 2 0 std::type_info::~type_info()
FUNC 4ef46 4 0 std::type_info::~type_info()
FUNC 4ef4c 10 0 std::bad_cast::bad_cast()
FUNC 4ef5c 4 0 <name omitted>
FUNC 4ef60 10 0 std::bad_cast::~bad_cast()
FUNC 4ef70 c 0 std::bad_cast::what() const
FUNC 4ef7c 10 0 std::bad_typeid::bad_typeid()
FUNC 4ef8c 4 0 <name omitted>
FUNC 4ef90 10 0 std::bad_typeid::~bad_typeid()
FUNC 4efa0 c 0 std::bad_typeid::what() const
FUNC 4efac 60 0 abort_message
FUNC 4f00c 30 0 std::set_unexpected(void (*)())
FUNC 4f03c 30 0 std::set_terminate(void (*)())
FUNC 4f06c dc 0 demangling_terminate_handler()
FUNC 4f148 1c 0 demangling_unexpected_handler()
FUNC 4f164 240 0 __cxa_demangle
FUNC 4f3a4 26 0 (anonymous namespace)::itanium_demangle::Node::print((anonymous namespace)::OutputStream&) const
FUNC 4f3ca 1a 0 (anonymous namespace)::OutputStream::operator+=(char)
FUNC 4f3e4 60 0 (anonymous namespace)::itanium_demangle::AbstractManglingParser<(anonymous namespace)::itanium_demangle::ManglingParser<(anonymous namespace)::DefaultAllocator>, (anonymous namespace)::DefaultAllocator>::~AbstractManglingParser()
FUNC 4f444 18 0 (anonymous namespace)::itanium_demangle::PODSmallVector<(anonymous namespace)::itanium_demangle::Node*, 8u>::~PODSmallVector()
FUNC 4f45c 18 0 (anonymous namespace)::itanium_demangle::PODSmallVector<(anonymous namespace)::itanium_demangle::Node*, 32u>::~PODSmallVector()
FUNC 4f474 2e 0 (anonymous namespace)::OutputStream::grow(unsigned int)
FUNC 4f4a4 58 0 (anonymous namespace)::itanium_demangle::AbstractManglingParser<(anonymous namespace)::itanium_demangle::ManglingParser<(anonymous namespace)::DefaultAllocator>, (anonymous namespace)::DefaultAllocator>::consumeIf((anonymous namespace)::StringView)
FUNC 4f4fc 18 0 <name omitted>
FUNC 4f514 598 0 (anonymous namespace)::itanium_demangle::AbstractManglingParser<(anonymous namespace)::itanium_demangle::ManglingParser<(anonymous namespace)::DefaultAllocator>, (anonymous namespace)::DefaultAllocator>::parseEncoding()
FUNC 4faac 5c 0 (anonymous namespace)::itanium_demangle::AbstractManglingParser<(anonymous namespace)::itanium_demangle::ManglingParser<(anonymous namespace)::DefaultAllocator>, (anonymous namespace)::DefaultAllocator>::parseNumber(bool)
FUNC 4fb08 32 0 (anonymous namespace)::itanium_demangle::Node* (anonymous namespace)::itanium_demangle::AbstractManglingParser<(anonymous namespace)::itanium_demangle::ManglingParser<(anonymous namespace)::DefaultAllocator>, (anonymous namespace)::DefaultAllocator>::make<(anonymous namespace)::itanium_demangle::SpecialName, char const (&) [34], (anonymous namespace)::itanium_demangle::Node*&>(char const (&) [34], (anonymous namespace)::itanium_demangle::Node*&)
FUNC 4fb3c 7dc 0 (anonymous namespace)::itanium_demangle::AbstractManglingParser<(anonymous namespace)::itanium_demangle::ManglingParser<(anonymous namespace)::DefaultAllocator>, (anonymous namespace)::DefaultAllocator>::parseType()
FUNC 50318 1c 0 (anonymous namespace)::StringView::startsWith((anonymous namespace)::StringView) const
FUNC 50334 1c 0 bool std::__ndk1::equal<char const*, char const*, std::__ndk1::__equal_to<char, char> >(char const*, char const*, char const*, std::__ndk1::__equal_to<char, char>)
FUNC 50350 3ac 0 (anonymous namespace)::itanium_demangle::AbstractManglingParser<(anonymous namespace)::itanium_demangle::ManglingParser<(anonymous namespace)::DefaultAllocator>, (anonymous namespace)::DefaultAllocator>::parseName((anonymous namespace)::itanium_demangle::AbstractManglingParser<(anonymous namespace)::itanium_demangle::ManglingParser<(anonymous namespace)::DefaultAllocator>, (anonymous namespace)::DefaultAllocator>::NameState*)
FUNC 506fc 24 0 (anonymous namespace)::itanium_demangle::AbstractManglingParser<(anonymous namespace)::itanium_demangle::ManglingParser<(anonymous namespace)::DefaultAllocator>, (anonymous namespace)::DefaultAllocator>::parseEncoding()::{lambda()#1}::operator()() const
FUNC 50720 12c 0 (anonymous namespace)::itanium_demangle::AbstractManglingParser<(anonymous namespace)::itanium_demangle::ManglingParser<(anonymous namespace)::DefaultAllocator>, (anonymous namespace)::DefaultAllocator>::parseTemplateArg()
FUNC 5084c 7c 0 (anonymous namespace)::itanium_demangle::PODSmallVector<(anonymous namespace)::itanium_demangle::Node*, 32u>::push_back((anonymous namespace)::itanium_demangle::Node* const&)
FUNC 508c8 20 0 (anonymous namespace)::itanium_demangle::AbstractManglingParser<(anonymous namespace)::itanium_demangle::ManglingParser<(anonymous namespace)::DefaultAllocator>, (anonymous namespace)::DefaultAllocator>::popTrailingNodeArray(unsigned int)
FUNC 508e8 64 0 (anonymous namespace)::itanium_demangle::Node* (anonymous namespace)::itanium_demangle::AbstractManglingParser<(anonymous namespace)::itanium_demangle::ManglingParser<(anonymous namespace)::DefaultAllocator>, (anonymous namespace)::DefaultAllocator>::make<(anonymous namespace)::itanium_demangle::FunctionEncoding, (anonymous namespace)::itanium_demangle::Node*&, (anonymous namespace)::itanium_demangle::Node*&, (anonymous namespace)::itanium_demangle::NodeArray, (anonymous namespace)::itanium_demangle::Node*&, (anonymous namespace)::itanium_demangle::Qualifiers&, (anonymous namespace)::itanium_demangle::FunctionRefQual&>((anonymous namespace)::itanium_demangle::Node*&, (anonymous namespace)::itanium_demangle::Node*&, (anonymous namespace)::itanium_demangle::NodeArray&&, (anonymous namespace)::itanium_demangle::Node*&, (anonymous namespace)::itanium_demangle::Qualifiers&, (anonymous namespace)::itanium_demangle::FunctionRefQual&)
FUNC 5094c b0 0 (anonymous namespace)::itanium_demangle::AbstractManglingParser<(anonymous namespace)::itanium_demangle::ManglingParser<(anonymous namespace)::DefaultAllocator>, (anonymous namespace)::DefaultAllocator>::parseCallOffset()
FUNC 509fc 62 0 (anonymous namespace)::itanium_demangle::AbstractManglingParser<(anonymous namespace)::itanium_demangle::ManglingParser<(anonymous namespace)::DefaultAllocator>, (anonymous namespace)::DefaultAllocator>::parseSeqId(unsigned int*)
FUNC 50a5e 76 0 (anonymous namespace)::BumpPointerAllocator::allocate(unsigned int)
FUNC 50ad4 24 0 (anonymous namespace)::itanium_demangle::SpecialName::SpecialName((anonymous namespace)::StringView, (anonymous namespace)::itanium_demangle::Node const*)
FUNC 50af8 4 0 (anonymous namespace)::itanium_demangle::Node::hasRHSComponentSlow((anonymous namespace)::OutputStream&) const
FUNC 50afc 4 0 (anonymous namespace)::itanium_demangle::Node::hasArraySlow((anonymous namespace)::OutputStream&) const
FUNC 50b00 4 0 (anonymous namespace)::itanium_demangle::Node::hasFunctionSlow((anonymous namespace)::OutputStream&) const
FUNC 50b04 2 0 (anonymous namespace)::itanium_demangle::Node::getSyntaxNode((anonymous namespace)::OutputStream&) const
FUNC 50b06 1e 0 (anonymous namespace)::itanium_demangle::SpecialName::printLeft((anonymous namespace)::OutputStream&) const
FUNC 50b24 2 0 (anonymous namespace)::itanium_demangle::Node::printRight((anonymous namespace)::OutputStream&) const
FUNC 50b26 8 0 (anonymous namespace)::itanium_demangle::Node::getBaseName() const
FUNC 50b2e 4 0 (anonymous namespace)::itanium_demangle::SpecialName::~SpecialName()
FUNC 50b32 30 0 (anonymous namespace)::OutputStream::operator+=((anonymous namespace)::StringView)
FUNC 50b64 40 0 (anonymous namespace)::itanium_demangle::CtorVtableSpecialName::printLeft((anonymous namespace)::OutputStream&) const
FUNC 50ba4 4 0 (anonymous namespace)::itanium_demangle::CtorVtableSpecialName::~CtorVtableSpecialName()
FUNC 50ba8 138 0 (anonymous namespace)::itanium_demangle::AbstractManglingParser<(anonymous namespace)::itanium_demangle::ManglingParser<(anonymous namespace)::DefaultAllocator>, (anonymous namespace)::DefaultAllocator>::parseSubstitution()
FUNC 50ce0 2d8 0 (anonymous namespace)::itanium_demangle::AbstractManglingParser<(anonymous namespace)::itanium_demangle::ManglingParser<(anonymous namespace)::DefaultAllocator>, (anonymous namespace)::DefaultAllocator>::parseTemplateArgs(bool)
FUNC 50fb8 30 0 (anonymous namespace)::itanium_demangle::Node* (anonymous namespace)::itanium_demangle::AbstractManglingParser<(anonymous namespace)::itanium_demangle::ManglingParser<(anonymous namespace)::DefaultAllocator>, (anonymous namespace)::DefaultAllocator>::make<(anonymous namespace)::itanium_demangle::NameWithTemplateArgs, (anonymous namespace)::itanium_demangle::Node*&, (anonymous namespace)::itanium_demangle::Node*&>((anonymous namespace)::itanium_demangle::Node*&, (anonymous namespace)::itanium_demangle::Node*&)
FUNC 50fe8 48 0 (anonymous namespace)::itanium_demangle::AbstractManglingParser<(anonymous namespace)::itanium_demangle::ManglingParser<(anonymous namespace)::DefaultAllocator>, (anonymous namespace)::DefaultAllocator>::parseCVQualifiers()
FUNC 51030 26 0 (anonymous namespace)::itanium_demangle::Node* (anonymous namespace)::itanium_demangle::AbstractManglingParser<(anonymous namespace)::itanium_demangle::ManglingParser<(anonymous namespace)::DefaultAllocator>, (anonymous namespace)::DefaultAllocator>::make<(anonymous namespace)::itanium_demangle::NameType, char const (&) [4]>(char const (&) [4])
FUNC 51058 5c 0 (anonymous namespace)::itanium_demangle::AbstractManglingParser<(anonymous namespace)::itanium_demangle::ManglingParser<(anonymous namespace)::DefaultAllocator>, (anonymous namespace)::DefaultAllocator>::parseNestedName((anonymous namespace)::itanium_demangle::AbstractManglingParser<(anonymous namespace)::itanium_demangle::ManglingParser<(anonymous namespace)::DefaultAllocator>, (anonymous namespace)::DefaultAllocator>::NameState*)::{lambda((anonymous namespace)::itanium_demangle::Node*)#1}::operator()((anonymous namespace)::itanium_demangle::Node*) const
FUNC 510b4 144 0 (anonymous namespace)::itanium_demangle::AbstractManglingParser<(anonymous namespace)::itanium_demangle::ManglingParser<(anonymous namespace)::DefaultAllocator>, (anonymous namespace)::DefaultAllocator>::parseTemplateParam()
FUNC 511f8 7c 0 (anonymous namespace)::itanium_demangle::AbstractManglingParser<(anonymous namespace)::itanium_demangle::ManglingParser<(anonymous namespace)::DefaultAllocator>, (anonymous namespace)::DefaultAllocator>::parseDecltype()
FUNC 51274 120 0 (anonymous namespace)::itanium_demangle::AbstractManglingParser<(anonymous namespace)::itanium_demangle::ManglingParser<(anonymous namespace)::DefaultAllocator>, (anonymous namespace)::DefaultAllocator>::parseCtorDtorName((anonymous namespace)::itanium_demangle::Node*&, (anonymous namespace)::itanium_demangle::AbstractManglingParser<(anonymous namespace)::itanium_demangle::ManglingParser<(anonymous namespace)::DefaultAllocator>, (anonymous namespace)::DefaultAllocator>::NameState*)
FUNC 51394 94 0 (anonymous namespace)::itanium_demangle::AbstractManglingParser<(anonymous namespace)::itanium_demangle::ManglingParser<(anonymous namespace)::DefaultAllocator>, (anonymous namespace)::DefaultAllocator>::parseAbiTags((anonymous namespace)::itanium_demangle::Node*)
FUNC 51428 22c 0 (anonymous namespace)::itanium_demangle::AbstractManglingParser<(anonymous namespace)::itanium_demangle::ManglingParser<(anonymous namespace)::DefaultAllocator>, (anonymous namespace)::DefaultAllocator>::parseUnqualifiedName((anonymous namespace)::itanium_demangle::AbstractManglingParser<(anonymous namespace)::itanium_demangle::ManglingParser<(anonymous namespace)::DefaultAllocator>, (anonymous namespace)::DefaultAllocator>::NameState*)
FUNC 51654 20 0 (anonymous namespace)::itanium_demangle::NameType::NameType((anonymous namespace)::StringView)
FUNC 51674 c 0 (anonymous namespace)::itanium_demangle::NameType::printLeft((anonymous namespace)::OutputStream&) const
FUNC 51680 a 0 (anonymous namespace)::itanium_demangle::NameType::getBaseName() const
FUNC 5168a 4 0 (anonymous namespace)::itanium_demangle::NameType::~NameType()
FUNC 51690 2c 0 (anonymous namespace)::itanium_demangle::NestedName::printLeft((anonymous namespace)::OutputStream&) const
FUNC 516bc e 0 (anonymous namespace)::itanium_demangle::NestedName::getBaseName() const
FUNC 516ca 4 0 (anonymous namespace)::itanium_demangle::NestedName::~NestedName()
FUNC 516ce 60 0 (anonymous namespace)::itanium_demangle::AbstractManglingParser<(anonymous namespace)::itanium_demangle::ManglingParser<(anonymous namespace)::DefaultAllocator>, (anonymous namespace)::DefaultAllocator>::parsePositiveInteger(unsigned int*)
FUNC 5172e 26 0 (anonymous namespace)::itanium_demangle::Node* (anonymous namespace)::itanium_demangle::AbstractManglingParser<(anonymous namespace)::itanium_demangle::ManglingParser<(anonymous namespace)::DefaultAllocator>, (anonymous namespace)::DefaultAllocator>::make<(anonymous namespace)::itanium_demangle::NameType, char const (&) [5]>(char const (&) [5])
FUNC 51754 26 0 (anonymous namespace)::itanium_demangle::ForwardTemplateReference::hasRHSComponentSlow((anonymous namespace)::OutputStream&) const
FUNC 5177a 26 0 (anonymous namespace)::itanium_demangle::ForwardTemplateReference::hasArraySlow((anonymous namespace)::OutputStream&) const
FUNC 517a0 26 0 (anonymous namespace)::itanium_demangle::ForwardTemplateReference::hasFunctionSlow((anonymous namespace)::OutputStream&) const
FUNC 517c6 28 0 (anonymous namespace)::itanium_demangle::ForwardTemplateReference::getSyntaxNode((anonymous namespace)::OutputStream&) const
FUNC 517ee 26 0 (anonymous namespace)::itanium_demangle::ForwardTemplateReference::printLeft((anonymous namespace)::OutputStream&) const
FUNC 51814 26 0 (anonymous namespace)::itanium_demangle::ForwardTemplateReference::printRight((anonymous namespace)::OutputStream&) const
FUNC 5183a 4 0 (anonymous namespace)::itanium_demangle::ForwardTemplateReference::~ForwardTemplateReference()
FUNC 5183e 14 0 (anonymous namespace)::itanium_demangle::Node::hasRHSComponent((anonymous namespace)::OutputStream&) const
FUNC 51852 14 0 (anonymous namespace)::itanium_demangle::Node::hasArray((anonymous namespace)::OutputStream&) const
FUNC 51866 14 0 (anonymous namespace)::itanium_demangle::Node::hasFunction((anonymous namespace)::OutputStream&) const
FUNC 5187c 11e0 0 (anonymous namespace)::itanium_demangle::AbstractManglingParser<(anonymous namespace)::itanium_demangle::ManglingParser<(anonymous namespace)::DefaultAllocator>, (anonymous namespace)::DefaultAllocator>::parseExpr()
FUNC 52a5c 44 0 (anonymous namespace)::itanium_demangle::Node* (anonymous namespace)::itanium_demangle::AbstractManglingParser<(anonymous namespace)::itanium_demangle::ManglingParser<(anonymous namespace)::DefaultAllocator>, (anonymous namespace)::DefaultAllocator>::make<(anonymous namespace)::itanium_demangle::EnclosingExpr, char const (&) [10], (anonymous namespace)::itanium_demangle::Node*&, char const (&) [2]>(char const (&) [10], (anonymous namespace)::itanium_demangle::Node*&, char const (&) [2])
FUNC 52aa0 484 0 (anonymous namespace)::itanium_demangle::AbstractManglingParser<(anonymous namespace)::itanium_demangle::ManglingParser<(anonymous namespace)::DefaultAllocator>, (anonymous namespace)::DefaultAllocator>::parseExprPrimary()
FUNC 52f24 b0 0 (anonymous namespace)::itanium_demangle::AbstractManglingParser<(anonymous namespace)::itanium_demangle::ManglingParser<(anonymous namespace)::DefaultAllocator>, (anonymous namespace)::DefaultAllocator>::parseFunctionParam()
FUNC 52fd4 4c 0 (anonymous namespace)::itanium_demangle::AbstractManglingParser<(anonymous namespace)::itanium_demangle::ManglingParser<(anonymous namespace)::DefaultAllocator>, (anonymous namespace)::DefaultAllocator>::parseBinaryExpr((anonymous namespace)::StringView)
FUNC 53020 40 0 (anonymous namespace)::itanium_demangle::AbstractManglingParser<(anonymous namespace)::itanium_demangle::ManglingParser<(anonymous namespace)::DefaultAllocator>, (anonymous namespace)::DefaultAllocator>::parsePrefixExpr((anonymous namespace)::StringView)
FUNC 53060 3c 0 (anonymous namespace)::itanium_demangle::Node* (anonymous namespace)::itanium_demangle::AbstractManglingParser<(anonymous namespace)::itanium_demangle::ManglingParser<(anonymous namespace)::DefaultAllocator>, (anonymous namespace)::DefaultAllocator>::make<(anonymous namespace)::itanium_demangle::DeleteExpr, (anonymous namespace)::itanium_demangle::Node*&, bool&, bool>((anonymous namespace)::itanium_demangle::Node*&, bool&, bool&&)
FUNC 5309c 194 0 (anonymous namespace)::itanium_demangle::AbstractManglingParser<(anonymous namespace)::itanium_demangle::ManglingParser<(anonymous namespace)::DefaultAllocator>, (anonymous namespace)::DefaultAllocator>::parseUnresolvedName()
FUNC 53230 3e 0 (anonymous namespace)::itanium_demangle::Node* (anonymous namespace)::itanium_demangle::AbstractManglingParser<(anonymous namespace)::itanium_demangle::ManglingParser<(anonymous namespace)::DefaultAllocator>, (anonymous namespace)::DefaultAllocator>::make<(anonymous namespace)::itanium_demangle::MemberExpr, (anonymous namespace)::itanium_demangle::Node*&, char const (&) [3], (anonymous namespace)::itanium_demangle::Node*&>((anonymous namespace)::itanium_demangle::Node*&, char const (&) [3], (anonymous namespace)::itanium_demangle::Node*&)
FUNC 53270 104 0 (anonymous namespace)::itanium_demangle::AbstractManglingParser<(anonymous namespace)::itanium_demangle::ManglingParser<(anonymous namespace)::DefaultAllocator>, (anonymous namespace)::DefaultAllocator>::parseBracedExpr()
FUNC 53374 44 0 (anonymous namespace)::itanium_demangle::Node* (anonymous namespace)::itanium_demangle::AbstractManglingParser<(anonymous namespace)::itanium_demangle::ManglingParser<(anonymous namespace)::DefaultAllocator>, (anonymous namespace)::DefaultAllocator>::make<(anonymous namespace)::itanium_demangle::PostfixExpr, (anonymous namespace)::itanium_demangle::Node*&, char const (&) [3]>((anonymous namespace)::itanium_demangle::Node*&, char const (&) [3])
FUNC 533b8 28 0 (anonymous namespace)::itanium_demangle::Node* (anonymous namespace)::itanium_demangle::AbstractManglingParser<(anonymous namespace)::itanium_demangle::ManglingParser<(anonymous namespace)::DefaultAllocator>, (anonymous namespace)::DefaultAllocator>::make<(anonymous namespace)::itanium_demangle::ParameterPackExpansion, (anonymous namespace)::itanium_demangle::Node*&>((anonymous namespace)::itanium_demangle::Node*&)
FUNC 533e0 44 0 (anonymous namespace)::itanium_demangle::Node* (anonymous namespace)::itanium_demangle::AbstractManglingParser<(anonymous namespace)::itanium_demangle::ManglingParser<(anonymous namespace)::DefaultAllocator>, (anonymous namespace)::DefaultAllocator>::make<(anonymous namespace)::itanium_demangle::EnclosingExpr, char const (&) [9], (anonymous namespace)::itanium_demangle::Node*&, char const (&) [2]>(char const (&) [9], (anonymous namespace)::itanium_demangle::Node*&, char const (&) [2])
FUNC 53424 34 0 (anonymous namespace)::itanium_demangle::Node* (anonymous namespace)::itanium_demangle::AbstractManglingParser<(anonymous namespace)::itanium_demangle::ManglingParser<(anonymous namespace)::DefaultAllocator>, (anonymous namespace)::DefaultAllocator>::make<(anonymous namespace)::itanium_demangle::EnclosingExpr, char const (&) [12], (anonymous namespace)::itanium_demangle::Node*&, char const (&) [2]>(char const (&) [12], (anonymous namespace)::itanium_demangle::Node*&, char const (&) [2])
FUNC 53458 26 0 (anonymous namespace)::itanium_demangle::Node* (anonymous namespace)::itanium_demangle::AbstractManglingParser<(anonymous namespace)::itanium_demangle::ManglingParser<(anonymous namespace)::DefaultAllocator>, (anonymous namespace)::DefaultAllocator>::make<(anonymous namespace)::itanium_demangle::NameType, char const (&) [6]>(char const (&) [6])
FUNC 53480 84 0 (anonymous namespace)::itanium_demangle::AbstractManglingParser<(anonymous namespace)::itanium_demangle::ManglingParser<(anonymous namespace)::DefaultAllocator>, (anonymous namespace)::DefaultAllocator>::parseIntegerLiteral((anonymous namespace)::StringView)
FUNC 53504 30 0 (anonymous namespace)::itanium_demangle::Node* (anonymous namespace)::itanium_demangle::AbstractManglingParser<(anonymous namespace)::itanium_demangle::ManglingParser<(anonymous namespace)::DefaultAllocator>, (anonymous namespace)::DefaultAllocator>::make<(anonymous namespace)::itanium_demangle::BoolExpr, int>(int&&)
FUNC 53534 90 0 (anonymous namespace)::itanium_demangle::IntegerLiteral::printLeft((anonymous namespace)::OutputStream&) const
FUNC 535c4 4 0 (anonymous namespace)::itanium_demangle::IntegerLiteral::~IntegerLiteral()
FUNC 535c8 2c 0 (anonymous namespace)::itanium_demangle::BoolExpr::printLeft((anonymous namespace)::OutputStream&) const
FUNC 535f4 4 0 (anonymous namespace)::itanium_demangle::BoolExpr::~BoolExpr()
FUNC 535f8 b0 0 (anonymous namespace)::itanium_demangle::FloatLiteralImpl<float>::printLeft((anonymous namespace)::OutputStream&) const
FUNC 536a8 4 0 (anonymous namespace)::itanium_demangle::FloatLiteralImpl<float>::~FloatLiteralImpl()
FUNC 536ac 1c 0 void std::__ndk1::__reverse<char*>(char*, char*, std::__ndk1::random_access_iterator_tag)
FUNC 536c8 ac 0 (anonymous namespace)::itanium_demangle::FloatLiteralImpl<double>::printLeft((anonymous namespace)::OutputStream&) const
FUNC 53774 4 0 (anonymous namespace)::itanium_demangle::FloatLiteralImpl<double>::~FloatLiteralImpl()
FUNC 53778 ac 0 (anonymous namespace)::itanium_demangle::FloatLiteralImpl<long double>::printLeft((anonymous namespace)::OutputStream&) const
FUNC 53824 4 0 (anonymous namespace)::itanium_demangle::FloatLiteralImpl<long double>::~FloatLiteralImpl()
FUNC 53828 4c 0 (anonymous namespace)::itanium_demangle::IntegerCastExpr::printLeft((anonymous namespace)::OutputStream&) const
FUNC 53874 4 0 (anonymous namespace)::itanium_demangle::IntegerCastExpr::~IntegerCastExpr()
FUNC 53878 2c 0 (anonymous namespace)::itanium_demangle::Node* (anonymous namespace)::itanium_demangle::AbstractManglingParser<(anonymous namespace)::itanium_demangle::ManglingParser<(anonymous namespace)::DefaultAllocator>, (anonymous namespace)::DefaultAllocator>::make<(anonymous namespace)::itanium_demangle::FunctionParam, (anonymous namespace)::StringView&>((anonymous namespace)::StringView&)
FUNC 538a4 28 0 (anonymous namespace)::itanium_demangle::FunctionParam::printLeft((anonymous namespace)::OutputStream&) const
FUNC 538cc 2 0 (anonymous namespace)::itanium_demangle::Node::~Node()
FUNC 538ce 4 0 (anonymous namespace)::itanium_demangle::FunctionParam::~FunctionParam()
FUNC 538d4 fc 0 (anonymous namespace)::itanium_demangle::FoldExpr::printLeft((anonymous namespace)::OutputStream&) const
FUNC 539d0 4 0 (anonymous namespace)::itanium_demangle::FoldExpr::~FoldExpr()
FUNC 539d4 64 0 (anonymous namespace)::itanium_demangle::FoldExpr::printLeft((anonymous namespace)::OutputStream&) const::{lambda()#1}::operator()() const
FUNC 53a38 84 0 (anonymous namespace)::itanium_demangle::ParameterPackExpansion::printLeft((anonymous namespace)::OutputStream&) const
FUNC 53abc 4 0 (anonymous namespace)::itanium_demangle::ParameterPackExpansion::~ParameterPackExpansion()
FUNC 53ac0 fc 0 (anonymous namespace)::itanium_demangle::BinaryExpr::printLeft((anonymous namespace)::OutputStream&) const
FUNC 53bbc 4 0 (anonymous namespace)::itanium_demangle::BinaryExpr::~BinaryExpr()
FUNC 53bc0 1c 0 (anonymous namespace)::operator==((anonymous namespace)::StringView const&, (anonymous namespace)::StringView const&)
FUNC 53bdc 4c 0 (anonymous namespace)::itanium_demangle::PrefixExpr::printLeft((anonymous namespace)::OutputStream&) const
FUNC 53c28 4 0 (anonymous namespace)::itanium_demangle::PrefixExpr::~PrefixExpr()
FUNC 53c2c 64 0 (anonymous namespace)::itanium_demangle::CastExpr::printLeft((anonymous namespace)::OutputStream&) const
FUNC 53c90 4 0 (anonymous namespace)::itanium_demangle::CastExpr::~CastExpr()
FUNC 53c94 3c 0 (anonymous namespace)::itanium_demangle::CallExpr::printLeft((anonymous namespace)::OutputStream&) const
FUNC 53cd0 4 0 (anonymous namespace)::itanium_demangle::CallExpr::~CallExpr()
FUNC 53cd4 64 0 (anonymous namespace)::itanium_demangle::NodeArray::printWithComma((anonymous namespace)::OutputStream&) const
FUNC 53d38 34 0 (anonymous namespace)::itanium_demangle::NodeArray (anonymous namespace)::itanium_demangle::AbstractManglingParser<(anonymous namespace)::itanium_demangle::ManglingParser<(anonymous namespace)::DefaultAllocator>, (anonymous namespace)::DefaultAllocator>::makeNodeArray<(anonymous namespace)::itanium_demangle::Node**>((anonymous namespace)::itanium_demangle::Node**, (anonymous namespace)::itanium_demangle::Node**)
FUNC 53d6c 24 0 (anonymous namespace)::itanium_demangle::ConversionExpr::ConversionExpr((anonymous namespace)::itanium_demangle::Node const*, (anonymous namespace)::itanium_demangle::NodeArray)
FUNC 53d90 5c 0 (anonymous namespace)::itanium_demangle::ConversionExpr::printLeft((anonymous namespace)::OutputStream&) const
FUNC 53dec 4 0 (anonymous namespace)::itanium_demangle::ConversionExpr::~ConversionExpr()
FUNC 53df0 4c 0 (anonymous namespace)::itanium_demangle::DeleteExpr::printLeft((anonymous namespace)::OutputStream&) const
FUNC 53e3c 4 0 (anonymous namespace)::itanium_demangle::DeleteExpr::~DeleteExpr()
FUNC 53e40 90 0 (anonymous namespace)::itanium_demangle::AbstractManglingParser<(anonymous namespace)::itanium_demangle::ManglingParser<(anonymous namespace)::DefaultAllocator>, (anonymous namespace)::DefaultAllocator>::parseUnresolvedType()
FUNC 53ed0 6c 0 (anonymous namespace)::itanium_demangle::AbstractManglingParser<(anonymous namespace)::itanium_demangle::ManglingParser<(anonymous namespace)::DefaultAllocator>, (anonymous namespace)::DefaultAllocator>::parseSimpleId()
FUNC 53f3c 30 0 (anonymous namespace)::itanium_demangle::Node* (anonymous namespace)::itanium_demangle::AbstractManglingParser<(anonymous namespace)::itanium_demangle::ManglingParser<(anonymous namespace)::DefaultAllocator>, (anonymous namespace)::DefaultAllocator>::make<(anonymous namespace)::itanium_demangle::QualifiedName, (anonymous namespace)::itanium_demangle::Node*&, (anonymous namespace)::itanium_demangle::Node*&>((anonymous namespace)::itanium_demangle::Node*&, (anonymous namespace)::itanium_demangle::Node*&)
FUNC 53f6c 10c 0 (anonymous namespace)::itanium_demangle::AbstractManglingParser<(anonymous namespace)::itanium_demangle::ManglingParser<(anonymous namespace)::DefaultAllocator>, (anonymous namespace)::DefaultAllocator>::parseBaseUnresolvedName()
FUNC 54078 28 0 (anonymous namespace)::itanium_demangle::Node* (anonymous namespace)::itanium_demangle::AbstractManglingParser<(anonymous namespace)::itanium_demangle::ManglingParser<(anonymous namespace)::DefaultAllocator>, (anonymous namespace)::DefaultAllocator>::make<(anonymous namespace)::itanium_demangle::GlobalQualifiedName, (anonymous namespace)::itanium_demangle::Node*&>((anonymous namespace)::itanium_demangle::Node*&)
FUNC 540a0 a4 0 (anonymous namespace)::itanium_demangle::AbstractManglingParser<(anonymous namespace)::itanium_demangle::ManglingParser<(anonymous namespace)::DefaultAllocator>, (anonymous namespace)::DefaultAllocator>::parseSourceName((anonymous namespace)::itanium_demangle::AbstractManglingParser<(anonymous namespace)::itanium_demangle::ManglingParser<(anonymous namespace)::DefaultAllocator>, (anonymous namespace)::DefaultAllocator>::NameState*)
FUNC 54144 1c 0 (anonymous namespace)::itanium_demangle::Node* (anonymous namespace)::itanium_demangle::AbstractManglingParser<(anonymous namespace)::itanium_demangle::ManglingParser<(anonymous namespace)::DefaultAllocator>, (anonymous namespace)::DefaultAllocator>::make<(anonymous namespace)::itanium_demangle::NameType, (anonymous namespace)::StringView&>((anonymous namespace)::StringView&)
FUNC 54160 2c 0 (anonymous namespace)::itanium_demangle::QualifiedName::printLeft((anonymous namespace)::OutputStream&) const
FUNC 5418c e 0 (anonymous namespace)::itanium_demangle::QualifiedName::getBaseName() const
FUNC 5419a 4 0 (anonymous namespace)::itanium_demangle::QualifiedName::~QualifiedName()
FUNC 541a0 790 0 (anonymous namespace)::itanium_demangle::AbstractManglingParser<(anonymous namespace)::itanium_demangle::ManglingParser<(anonymous namespace)::DefaultAllocator>, (anonymous namespace)::DefaultAllocator>::parseOperatorName((anonymous namespace)::itanium_demangle::AbstractManglingParser<(anonymous namespace)::itanium_demangle::ManglingParser<(anonymous namespace)::DefaultAllocator>, (anonymous namespace)::DefaultAllocator>::NameState*)
FUNC 54930 28 0 (anonymous namespace)::itanium_demangle::DtorName::printLeft((anonymous namespace)::OutputStream&) const
FUNC 54958 4 0 (anonymous namespace)::itanium_demangle::DtorName::~DtorName()
FUNC 5495c 26 0 (anonymous namespace)::itanium_demangle::Node* (anonymous namespace)::itanium_demangle::AbstractManglingParser<(anonymous namespace)::itanium_demangle::ManglingParser<(anonymous namespace)::DefaultAllocator>, (anonymous namespace)::DefaultAllocator>::make<(anonymous namespace)::itanium_demangle::NameType, char const (&) [11]>(char const (&) [11])
FUNC 54982 26 0 (anonymous namespace)::itanium_demangle::Node* (anonymous namespace)::itanium_demangle::AbstractManglingParser<(anonymous namespace)::itanium_demangle::ManglingParser<(anonymous namespace)::DefaultAllocator>, (anonymous namespace)::DefaultAllocator>::make<(anonymous namespace)::itanium_demangle::NameType, char const (&) [10]>(char const (&) [10])
FUNC 549a8 28 0 (anonymous namespace)::itanium_demangle::Node* (anonymous namespace)::itanium_demangle::AbstractManglingParser<(anonymous namespace)::itanium_demangle::ManglingParser<(anonymous namespace)::DefaultAllocator>, (anonymous namespace)::DefaultAllocator>::make<(anonymous namespace)::itanium_demangle::ConversionOperatorType, (anonymous namespace)::itanium_demangle::Node*&>((anonymous namespace)::itanium_demangle::Node*&)
FUNC 549d0 26 0 (anonymous namespace)::itanium_demangle::Node* (anonymous namespace)::itanium_demangle::AbstractManglingParser<(anonymous namespace)::itanium_demangle::ManglingParser<(anonymous namespace)::DefaultAllocator>, (anonymous namespace)::DefaultAllocator>::make<(anonymous namespace)::itanium_demangle::NameType, char const (&) [18]>(char const (&) [18])
FUNC 549f6 26 0 (anonymous namespace)::itanium_demangle::Node* (anonymous namespace)::itanium_demangle::AbstractManglingParser<(anonymous namespace)::itanium_demangle::ManglingParser<(anonymous namespace)::DefaultAllocator>, (anonymous namespace)::DefaultAllocator>::make<(anonymous namespace)::itanium_demangle::NameType, char const (&) [12]>(char const (&) [12])
FUNC 54a1c 26 0 (anonymous namespace)::itanium_demangle::Node* (anonymous namespace)::itanium_demangle::AbstractManglingParser<(anonymous namespace)::itanium_demangle::ManglingParser<(anonymous namespace)::DefaultAllocator>, (anonymous namespace)::DefaultAllocator>::make<(anonymous namespace)::itanium_demangle::NameType, char const (&) [15]>(char const (&) [15])
FUNC 54a42 26 0 (anonymous namespace)::itanium_demangle::Node* (anonymous namespace)::itanium_demangle::AbstractManglingParser<(anonymous namespace)::itanium_demangle::ManglingParser<(anonymous namespace)::DefaultAllocator>, (anonymous namespace)::DefaultAllocator>::make<(anonymous namespace)::itanium_demangle::NameType, char const (&) [13]>(char const (&) [13])
FUNC 54a68 28 0 (anonymous namespace)::itanium_demangle::ConversionOperatorType::printLeft((anonymous namespace)::OutputStream&) const
FUNC 54a90 4 0 (anonymous namespace)::itanium_demangle::ConversionOperatorType::~ConversionOperatorType()
FUNC 54a94 28 0 (anonymous namespace)::itanium_demangle::LiteralOperator::printLeft((anonymous namespace)::OutputStream&) const
FUNC 54abc 4 0 (anonymous namespace)::itanium_demangle::LiteralOperator::~LiteralOperator()
FUNC 54ac0 24 0 (anonymous namespace)::itanium_demangle::GlobalQualifiedName::printLeft((anonymous namespace)::OutputStream&) const
FUNC 54ae4 e 0 (anonymous namespace)::itanium_demangle::GlobalQualifiedName::getBaseName() const
FUNC 54af2 4 0 (anonymous namespace)::itanium_demangle::GlobalQualifiedName::~GlobalQualifiedName()
FUNC 54af8 28 0 (anonymous namespace)::itanium_demangle::MemberExpr::MemberExpr((anonymous namespace)::itanium_demangle::Node const*, (anonymous namespace)::StringView, (anonymous namespace)::itanium_demangle::Node const*)
FUNC 54b20 24 0 (anonymous namespace)::itanium_demangle::MemberExpr::printLeft((anonymous namespace)::OutputStream&) const
FUNC 54b44 4 0 (anonymous namespace)::itanium_demangle::MemberExpr::~MemberExpr()
FUNC 54b48 58 0 (anonymous namespace)::itanium_demangle::ArraySubscriptExpr::printLeft((anonymous namespace)::OutputStream&) const
FUNC 54ba0 4 0 (anonymous namespace)::itanium_demangle::ArraySubscriptExpr::~ArraySubscriptExpr()
FUNC 54ba4 3c 0 (anonymous namespace)::itanium_demangle::Node* (anonymous namespace)::itanium_demangle::AbstractManglingParser<(anonymous namespace)::itanium_demangle::ManglingParser<(anonymous namespace)::DefaultAllocator>, (anonymous namespace)::DefaultAllocator>::make<(anonymous namespace)::itanium_demangle::BracedExpr, (anonymous namespace)::itanium_demangle::Node*&, (anonymous namespace)::itanium_demangle::Node*&, bool>((anonymous namespace)::itanium_demangle::Node*&, (anonymous namespace)::itanium_demangle::Node*&, bool&&)
FUNC 54be0 60 0 (anonymous namespace)::itanium_demangle::BracedExpr::printLeft((anonymous namespace)::OutputStream&) const
FUNC 54c40 4 0 (anonymous namespace)::itanium_demangle::BracedExpr::~BracedExpr()
FUNC 54c44 60 0 (anonymous namespace)::itanium_demangle::BracedRangeExpr::printLeft((anonymous namespace)::OutputStream&) const
FUNC 54ca4 4 0 (anonymous namespace)::itanium_demangle::BracedRangeExpr::~BracedRangeExpr()
FUNC 54ca8 24 0 (anonymous namespace)::itanium_demangle::InitListExpr::InitListExpr((anonymous namespace)::itanium_demangle::Node const*, (anonymous namespace)::itanium_demangle::NodeArray)
FUNC 54ccc 30 0 (anonymous namespace)::itanium_demangle::InitListExpr::printLeft((anonymous namespace)::OutputStream&) const
FUNC 54cfc 4 0 (anonymous namespace)::itanium_demangle::InitListExpr::~InitListExpr()
FUNC 54d00 4c 0 (anonymous namespace)::itanium_demangle::PostfixExpr::printLeft((anonymous namespace)::OutputStream&) const
FUNC 54d4c 4 0 (anonymous namespace)::itanium_demangle::PostfixExpr::~PostfixExpr()
FUNC 54d50 38 0 (anonymous namespace)::itanium_demangle::NewExpr::NewExpr((anonymous namespace)::itanium_demangle::NodeArray, (anonymous namespace)::itanium_demangle::Node*, (anonymous namespace)::itanium_demangle::NodeArray, bool, bool)
FUNC 54d88 b4 0 (anonymous namespace)::itanium_demangle::NewExpr::printLeft((anonymous namespace)::OutputStream&) const
FUNC 54e3c 4 0 (anonymous namespace)::itanium_demangle::NewExpr::~NewExpr()
FUNC 54e40 28 0 (anonymous namespace)::itanium_demangle::EnclosingExpr::EnclosingExpr((anonymous namespace)::StringView, (anonymous namespace)::itanium_demangle::Node*, (anonymous namespace)::StringView)
FUNC 54e68 28 0 (anonymous namespace)::itanium_demangle::EnclosingExpr::printLeft((anonymous namespace)::OutputStream&) const
FUNC 54e90 4 0 (anonymous namespace)::itanium_demangle::EnclosingExpr::~EnclosingExpr()
FUNC 54e94 78 0 (anonymous namespace)::itanium_demangle::ConditionalExpr::printLeft((anonymous namespace)::OutputStream&) const
FUNC 54f0c 4 0 (anonymous namespace)::itanium_demangle::ConditionalExpr::~ConditionalExpr()
FUNC 54f10 78 0 (anonymous namespace)::itanium_demangle::SizeofParamPackExpr::printLeft((anonymous namespace)::OutputStream&) const
FUNC 54f88 4 0 (anonymous namespace)::itanium_demangle::SizeofParamPackExpr::~SizeofParamPackExpr()
FUNC 54f8c 6 0 (anonymous namespace)::itanium_demangle::NodeArrayNode::printLeft((anonymous namespace)::OutputStream&) const
FUNC 54f92 4 0 (anonymous namespace)::itanium_demangle::NodeArrayNode::~NodeArrayNode()
FUNC 54f98 24 0 (anonymous namespace)::itanium_demangle::ThrowExpr::printLeft((anonymous namespace)::OutputStream&) const
FUNC 54fbc 4 0 (anonymous namespace)::itanium_demangle::ThrowExpr::~ThrowExpr()
FUNC 54fc0 3c 0 (anonymous namespace)::itanium_demangle::Node* (anonymous namespace)::itanium_demangle::AbstractManglingParser<(anonymous namespace)::itanium_demangle::ManglingParser<(anonymous namespace)::DefaultAllocator>, (anonymous namespace)::DefaultAllocator>::make<(anonymous namespace)::itanium_demangle::CtorDtorName, (anonymous namespace)::itanium_demangle::Node*&, bool, int&>((anonymous namespace)::itanium_demangle::Node*&, bool&&, int&)
FUNC 54ffc 68 0 (anonymous namespace)::itanium_demangle::ExpandedSpecialSubstitution::printLeft((anonymous namespace)::OutputStream&) const
FUNC 55064 5c 0 (anonymous namespace)::itanium_demangle::ExpandedSpecialSubstitution::getBaseName() const
FUNC 550c0 4 0 (anonymous namespace)::itanium_demangle::ExpandedSpecialSubstitution::~ExpandedSpecialSubstitution()
FUNC 550c4 58 0 (anonymous namespace)::itanium_demangle::CtorDtorName::printLeft((anonymous namespace)::OutputStream&) const
FUNC 5511c 4 0 (anonymous namespace)::itanium_demangle::CtorDtorName::~CtorDtorName()
FUNC 55120 5c 0 (anonymous namespace)::itanium_demangle::AbstractManglingParser<(anonymous namespace)::itanium_demangle::ManglingParser<(anonymous namespace)::DefaultAllocator>, (anonymous namespace)::DefaultAllocator>::parseBareSourceName()
FUNC 5517c 4c 0 (anonymous namespace)::itanium_demangle::AbiTagAttr::printLeft((anonymous namespace)::OutputStream&) const
FUNC 551c8 4 0 (anonymous namespace)::itanium_demangle::AbiTagAttr::~AbiTagAttr()
FUNC 551cc 44 0 (anonymous namespace)::itanium_demangle::UnnamedTypeName::printLeft((anonymous namespace)::OutputStream&) const
FUNC 55210 4 0 (anonymous namespace)::itanium_demangle::UnnamedTypeName::~UnnamedTypeName()
FUNC 55214 5c 0 (anonymous namespace)::itanium_demangle::ClosureTypeName::printLeft((anonymous namespace)::OutputStream&) const
FUNC 55270 4 0 (anonymous namespace)::itanium_demangle::ClosureTypeName::~ClosureTypeName()
FUNC 55274 26 0 (anonymous namespace)::itanium_demangle::StructuredBindingName::printLeft((anonymous namespace)::OutputStream&) const
FUNC 5529a 4 0 (anonymous namespace)::itanium_demangle::StructuredBindingName::~StructuredBindingName()
FUNC 5529e 66 0 (anonymous namespace)::itanium_demangle::parse_discriminator(char const*, char const*)
FUNC 55304 30 0 (anonymous namespace)::itanium_demangle::Node* (anonymous namespace)::itanium_demangle::AbstractManglingParser<(anonymous namespace)::itanium_demangle::ManglingParser<(anonymous namespace)::DefaultAllocator>, (anonymous namespace)::DefaultAllocator>::make<(anonymous namespace)::itanium_demangle::LocalName, (anonymous namespace)::itanium_demangle::Node*&, (anonymous namespace)::itanium_demangle::Node*&>((anonymous namespace)::itanium_demangle::Node*&, (anonymous namespace)::itanium_demangle::Node*&)
FUNC 55334 2c 0 (anonymous namespace)::itanium_demangle::LocalName::printLeft((anonymous namespace)::OutputStream&) const
FUNC 55360 4 0 (anonymous namespace)::itanium_demangle::LocalName::~LocalName()
FUNC 55364 28 0 (anonymous namespace)::itanium_demangle::Node* (anonymous namespace)::itanium_demangle::AbstractManglingParser<(anonymous namespace)::itanium_demangle::ManglingParser<(anonymous namespace)::DefaultAllocator>, (anonymous namespace)::DefaultAllocator>::make<(anonymous namespace)::itanium_demangle::SpecialSubstitution, (anonymous namespace)::itanium_demangle::SpecialSubKind>((anonymous namespace)::itanium_demangle::SpecialSubKind&&)
FUNC 5538c 68 0 (anonymous namespace)::itanium_demangle::SpecialSubstitution::printLeft((anonymous namespace)::OutputStream&) const
FUNC 553f4 6c 0 (anonymous namespace)::itanium_demangle::SpecialSubstitution::getBaseName() const
FUNC 55460 4 0 (anonymous namespace)::itanium_demangle::SpecialSubstitution::~SpecialSubstitution()
FUNC 55464 26 0 (anonymous namespace)::itanium_demangle::ParameterPack::hasRHSComponentSlow((anonymous namespace)::OutputStream&) const
FUNC 5548a 26 0 (anonymous namespace)::itanium_demangle::ParameterPack::hasArraySlow((anonymous namespace)::OutputStream&) const
FUNC 554b0 26 0 (anonymous namespace)::itanium_demangle::ParameterPack::hasFunctionSlow((anonymous namespace)::OutputStream&) const
FUNC 554d6 26 0 (anonymous namespace)::itanium_demangle::ParameterPack::getSyntaxNode((anonymous namespace)::OutputStream&) const
FUNC 554fc 26 0 (anonymous namespace)::itanium_demangle::ParameterPack::printLeft((anonymous namespace)::OutputStream&) const
FUNC 55522 26 0 (anonymous namespace)::itanium_demangle::ParameterPack::printRight((anonymous namespace)::OutputStream&) const
FUNC 55548 4 0 (anonymous namespace)::itanium_demangle::ParameterPack::~ParameterPack()
FUNC 5554c 58 0 (anonymous namespace)::itanium_demangle::TemplateArgs::printLeft((anonymous namespace)::OutputStream&) const
FUNC 555a4 4 0 (anonymous namespace)::itanium_demangle::TemplateArgs::~TemplateArgs()
FUNC 555a8 1a 0 (anonymous namespace)::itanium_demangle::NameWithTemplateArgs::printLeft((anonymous namespace)::OutputStream&) const
FUNC 555c2 e 0 (anonymous namespace)::itanium_demangle::NameWithTemplateArgs::getBaseName() const
FUNC 555d0 4 0 (anonymous namespace)::itanium_demangle::NameWithTemplateArgs::~NameWithTemplateArgs()
FUNC 555d4 24 0 (anonymous namespace)::itanium_demangle::StdQualifiedName::printLeft((anonymous namespace)::OutputStream&) const
FUNC 555f8 e 0 (anonymous namespace)::itanium_demangle::StdQualifiedName::getBaseName() const
FUNC 55606 4 0 (anonymous namespace)::itanium_demangle::StdQualifiedName::~StdQualifiedName()
FUNC 5560a 6 0 (anonymous namespace)::itanium_demangle::TemplateArgumentPack::printLeft((anonymous namespace)::OutputStream&) const
FUNC 55610 4 0 (anonymous namespace)::itanium_demangle::TemplateArgumentPack::~TemplateArgumentPack()
FUNC 55614 30 0 (anonymous namespace)::itanium_demangle::EnableIfAttr::printLeft((anonymous namespace)::OutputStream&) const
FUNC 55644 4 0 (anonymous namespace)::itanium_demangle::EnableIfAttr::~EnableIfAttr()
FUNC 55648 4 0 (anonymous namespace)::itanium_demangle::FunctionEncoding::hasRHSComponentSlow((anonymous namespace)::OutputStream&) const
FUNC 5564c 4 0 (anonymous namespace)::itanium_demangle::FunctionEncoding::hasFunctionSlow((anonymous namespace)::OutputStream&) const
FUNC 55650 3c 0 (anonymous namespace)::itanium_demangle::FunctionEncoding::printLeft((anonymous namespace)::OutputStream&) const
FUNC 5568c bc 0 (anonymous namespace)::itanium_demangle::FunctionEncoding::printRight((anonymous namespace)::OutputStream&) const
FUNC 55748 4 0 (anonymous namespace)::itanium_demangle::FunctionEncoding::~FunctionEncoding()
FUNC 5574c 48 0 (anonymous namespace)::itanium_demangle::DotSuffix::printLeft((anonymous namespace)::OutputStream&) const
FUNC 55794 4 0 (anonymous namespace)::itanium_demangle::DotSuffix::~DotSuffix()
FUNC 55798 230 0 (anonymous namespace)::itanium_demangle::AbstractManglingParser<(anonymous namespace)::itanium_demangle::ManglingParser<(anonymous namespace)::DefaultAllocator>, (anonymous namespace)::DefaultAllocator>::parseFunctionType()
FUNC 559c8 138 0 (anonymous namespace)::itanium_demangle::AbstractManglingParser<(anonymous namespace)::itanium_demangle::ManglingParser<(anonymous namespace)::DefaultAllocator>, (anonymous namespace)::DefaultAllocator>::parseQualifiedType()
FUNC 55b00 26 0 (anonymous namespace)::itanium_demangle::Node* (anonymous namespace)::itanium_demangle::AbstractManglingParser<(anonymous namespace)::itanium_demangle::ManglingParser<(anonymous namespace)::DefaultAllocator>, (anonymous namespace)::DefaultAllocator>::make<(anonymous namespace)::itanium_demangle::NameType, char const (&) [14]>(char const (&) [14])
FUNC 55b26 26 0 (anonymous namespace)::itanium_demangle::Node* (anonymous namespace)::itanium_demangle::AbstractManglingParser<(anonymous namespace)::itanium_demangle::ManglingParser<(anonymous namespace)::DefaultAllocator>, (anonymous namespace)::DefaultAllocator>::make<(anonymous namespace)::itanium_demangle::NameType, char const (&) [9]>(char const (&) [9])
FUNC 55b4c b4 0 (anonymous namespace)::itanium_demangle::AbstractManglingParser<(anonymous namespace)::itanium_demangle::ManglingParser<(anonymous namespace)::DefaultAllocator>, (anonymous namespace)::DefaultAllocator>::parseClassEnumType()
FUNC 55c00 3c 0 (anonymous namespace)::itanium_demangle::Node* (anonymous namespace)::itanium_demangle::AbstractManglingParser<(anonymous namespace)::itanium_demangle::ManglingParser<(anonymous namespace)::DefaultAllocator>, (anonymous namespace)::DefaultAllocator>::make<(anonymous namespace)::itanium_demangle::ReferenceType, (anonymous namespace)::itanium_demangle::Node*&, (anonymous namespace)::itanium_demangle::ReferenceKind>((anonymous namespace)::itanium_demangle::Node*&, (anonymous namespace)::itanium_demangle::ReferenceKind&&)
FUNC 55c3c 38 0 (anonymous namespace)::itanium_demangle::NoexceptSpec::printLeft((anonymous namespace)::OutputStream&) const
FUNC 55c74 4 0 (anonymous namespace)::itanium_demangle::NoexceptSpec::~NoexceptSpec()
FUNC 55c78 30 0 (anonymous namespace)::itanium_demangle::DynamicExceptionSpec::printLeft((anonymous namespace)::OutputStream&) const
FUNC 55ca8 4 0 (anonymous namespace)::itanium_demangle::DynamicExceptionSpec::~DynamicExceptionSpec()
FUNC 55cac 4 0 (anonymous namespace)::itanium_demangle::FunctionType::hasRHSComponentSlow((anonymous namespace)::OutputStream&) const
FUNC 55cb0 4 0 (anonymous namespace)::itanium_demangle::FunctionType::hasFunctionSlow((anonymous namespace)::OutputStream&) const
FUNC 55cb4 24 0 (anonymous namespace)::itanium_demangle::FunctionType::printLeft((anonymous namespace)::OutputStream&) const
FUNC 55cd8 c4 0 (anonymous namespace)::itanium_demangle::FunctionType::printRight((anonymous namespace)::OutputStream&) const
FUNC 55d9c 4 0 (anonymous namespace)::itanium_demangle::FunctionType::~FunctionType()
FUNC 55da0 48 0 (anonymous namespace)::itanium_demangle::ObjCProtoName::printLeft((anonymous namespace)::OutputStream&) const
FUNC 55de8 4 0 (anonymous namespace)::itanium_demangle::ObjCProtoName::~ObjCProtoName()
FUNC 55dec 2c 0 (anonymous namespace)::itanium_demangle::VendorExtQualType::printLeft((anonymous namespace)::OutputStream&) const
FUNC 55e18 4 0 (anonymous namespace)::itanium_demangle::VendorExtQualType::~VendorExtQualType()
FUNC 55e1c 6 0 (anonymous namespace)::itanium_demangle::QualType::hasRHSComponentSlow((anonymous namespace)::OutputStream&) const
FUNC 55e22 6 0 (anonymous namespace)::itanium_demangle::QualType::hasArraySlow((anonymous namespace)::OutputStream&) const
FUNC 55e28 6 0 (anonymous namespace)::itanium_demangle::QualType::hasFunctionSlow((anonymous namespace)::OutputStream&) const
FUNC 55e30 60 0 (anonymous namespace)::itanium_demangle::QualType::printLeft((anonymous namespace)::OutputStream&) const
FUNC 55e90 8 0 (anonymous namespace)::itanium_demangle::QualType::printRight((anonymous namespace)::OutputStream&) const
FUNC 55e98 4 0 (anonymous namespace)::itanium_demangle::QualType::~QualType()
FUNC 55e9c 44 0 (anonymous namespace)::itanium_demangle::PixelVectorType::printLeft((anonymous namespace)::OutputStream&) const
FUNC 55ee0 4 0 (anonymous namespace)::itanium_demangle::PixelVectorType::~PixelVectorType()
FUNC 55ee4 24 0 (anonymous namespace)::itanium_demangle::VectorType::VectorType((anonymous namespace)::itanium_demangle::Node const*, (anonymous namespace)::itanium_demangle::NodeOrString)
FUNC 55f08 4c 0 (anonymous namespace)::itanium_demangle::VectorType::printLeft((anonymous namespace)::OutputStream&) const
FUNC 55f54 4 0 (anonymous namespace)::itanium_demangle::VectorType::~VectorType()
FUNC 55f58 4 0 (anonymous namespace)::itanium_demangle::ArrayType::hasRHSComponentSlow((anonymous namespace)::OutputStream&) const
FUNC 55f5c 4 0 (anonymous namespace)::itanium_demangle::ArrayType::hasArraySlow((anonymous namespace)::OutputStream&) const
FUNC 55f60 8 0 (anonymous namespace)::itanium_demangle::ArrayType::printLeft((anonymous namespace)::OutputStream&) const
FUNC 55f68 74 0 (anonymous namespace)::itanium_demangle::ArrayType::printRight((anonymous namespace)::OutputStream&) const
FUNC 55fdc 4 0 (anonymous namespace)::itanium_demangle::ArrayType::~ArrayType()
FUNC 55fe0 6 0 (anonymous namespace)::itanium_demangle::PointerToMemberType::hasRHSComponentSlow((anonymous namespace)::OutputStream&) const
FUNC 55fe8 5c 0 (anonymous namespace)::itanium_demangle::PointerToMemberType::printLeft((anonymous namespace)::OutputStream&) const
FUNC 56044 38 0 (anonymous namespace)::itanium_demangle::PointerToMemberType::printRight((anonymous namespace)::OutputStream&) const
FUNC 5607c 4 0 (anonymous namespace)::itanium_demangle::PointerToMemberType::~PointerToMemberType()
FUNC 56080 26 0 (anonymous namespace)::itanium_demangle::ElaboratedTypeSpefType::printLeft((anonymous namespace)::OutputStream&) const
FUNC 560a6 4 0 (anonymous namespace)::itanium_demangle::ElaboratedTypeSpefType::~ElaboratedTypeSpefType()
FUNC 560aa 6 0 (anonymous namespace)::itanium_demangle::PointerType::hasRHSComponentSlow((anonymous namespace)::OutputStream&) const
FUNC 560b0 b4 0 (anonymous namespace)::itanium_demangle::PointerType::printLeft((anonymous namespace)::OutputStream&) const
FUNC 56164 4c 0 (anonymous namespace)::itanium_demangle::PointerType::printRight((anonymous namespace)::OutputStream&) const
FUNC 561b0 4 0 (anonymous namespace)::itanium_demangle::PointerType::~PointerType()
FUNC 561b4 50 0 (anonymous namespace)::itanium_demangle::ObjCProtoName::isObjCObject() const
FUNC 56204 6 0 (anonymous namespace)::itanium_demangle::ReferenceType::hasRHSComponentSlow((anonymous namespace)::OutputStream&) const
FUNC 5620c c8 0 (anonymous namespace)::itanium_demangle::ReferenceType::printLeft((anonymous namespace)::OutputStream&) const
FUNC 562d4 84 0 (anonymous namespace)::itanium_demangle::ReferenceType::printRight((anonymous namespace)::OutputStream&) const
FUNC 56358 4 0 (anonymous namespace)::itanium_demangle::ReferenceType::~ReferenceType()
FUNC 5635c 36 0 (anonymous namespace)::itanium_demangle::ReferenceType::collapse((anonymous namespace)::OutputStream&) const
FUNC 56392 20 0 (anonymous namespace)::itanium_demangle::PostfixQualifiedType::printLeft((anonymous namespace)::OutputStream&) const
FUNC 563b2 4 0 (anonymous namespace)::itanium_demangle::PostfixQualifiedType::~PostfixQualifiedType()
FUNC 563b8 50 0 decode_eht_entry
FUNC 56408 26c 0 _Unwind_VRS_Interpret
FUNC 56674 ac 0 _Unwind_VRS_Get
FUNC 56720 ac 0 _Unwind_VRS_Set
FUNC 567cc 150 0 _Unwind_VRS_Pop
FUNC 5691c 8 0 __aeabi_unwind_cpp_pr0
FUNC 56924 30 0 (anonymous namespace)::unwindOneFrame(unsigned int, _Unwind_Control_Block*, _Unwind_Context*)
FUNC 56954 8 0 __aeabi_unwind_cpp_pr1
FUNC 5695c 8 0 __aeabi_unwind_cpp_pr2
FUNC 56964 a0 0 _Unwind_RaiseException
FUNC 56a04 118 0 unwind_phase2(unw_context_t*, unw_cursor_t*, _Unwind_Control_Block*, bool)
FUNC 56b1c 2 0 _Unwind_Complete
FUNC 56b20 68 0 _Unwind_Resume
FUNC 56b88 34 0 _Unwind_GetLanguageSpecificData
FUNC 56bbc 34 0 _Unwind_GetRegionStart
FUNC 56bf0 c 0 _Unwind_DeleteException
FUNC 56bfc 12 0 __gnu_unwind_frame
FUNC 56c40 48 0 unw_init_local
FUNC 56c88 34 0 unw_get_reg
FUNC 56cbc 48 0 unw_set_reg
FUNC 56d04 38 0 unw_get_fpreg
FUNC 56d3c 3c 0 unw_set_fpreg
FUNC 56d78 6 0 unw_step
FUNC 56d7e 20 0 unw_get_proc_info
FUNC 56da0 14 0 unw_resume
FUNC 56db4 20 0 unw_get_proc_name
FUNC 56dd4 c 0 unw_is_fpreg
FUNC 56de0 6 0 unw_regname
FUNC 56de6 c 0 unw_is_signal_frame
FUNC 56df2 6 0 unw_save_vfp_as_X
FUNC 56df8 2 0 libunwind::AbstractUnwindCursor::~AbstractUnwindCursor()
FUNC 56dfa 2 0 libunwind::UnwindCursor<libunwind::LocalAddressSpace, libunwind::Registers_arm>::~UnwindCursor()
FUNC 56dfc e 0 libunwind::UnwindCursor<libunwind::LocalAddressSpace, libunwind::Registers_arm>::validReg(int)
FUNC 56e0a 6 0 libunwind::UnwindCursor<libunwind::LocalAddressSpace, libunwind::Registers_arm>::getReg(int)
FUNC 56e10 6 0 libunwind::UnwindCursor<libunwind::LocalAddressSpace, libunwind::Registers_arm>::setReg(int, unsigned int)
FUNC 56e16 10 0 libunwind::UnwindCursor<libunwind::LocalAddressSpace, libunwind::Registers_arm>::validFloatReg(int)
FUNC 56e26 6 0 libunwind::UnwindCursor<libunwind::LocalAddressSpace, libunwind::Registers_arm>::getFloatReg(int)
FUNC 56e2c 6 0 libunwind::UnwindCursor<libunwind::LocalAddressSpace, libunwind::Registers_arm>::setFloatReg(int, unsigned long long)
FUNC 56e32 54 0 libunwind::UnwindCursor<libunwind::LocalAddressSpace, libunwind::Registers_arm>::step()
FUNC 56e86 e 0 libunwind::UnwindCursor<libunwind::LocalAddressSpace, libunwind::Registers_arm>::getInfo(unw_proc_info_t*)
FUNC 56e94 6 0 libunwind::UnwindCursor<libunwind::LocalAddressSpace, libunwind::Registers_arm>::jumpto()
FUNC 56e9a 6 0 libunwind::UnwindCursor<libunwind::LocalAddressSpace, libunwind::Registers_arm>::isSignalFrame()
FUNC 56ea0 32 0 libunwind::UnwindCursor<libunwind::LocalAddressSpace, libunwind::Registers_arm>::getFunctionName(char*, unsigned int, unsigned int*)
FUNC 56ed4 64 0 libunwind::UnwindCursor<libunwind::LocalAddressSpace, libunwind::Registers_arm>::setInfoBasedOnIPRegister(bool)
FUNC 56f38 6 0 libunwind::UnwindCursor<libunwind::LocalAddressSpace, libunwind::Registers_arm>::getRegisterName(int)
FUNC 56f3e 8 0 libunwind::UnwindCursor<libunwind::LocalAddressSpace, libunwind::Registers_arm>::saveVFPAsX()
FUNC 56f48 78 0 libunwind::Registers_arm::getRegister(int)
FUNC 56fc0 74 0 libunwind::Registers_arm::setRegister(int, unsigned int)
FUNC 57034 ac 0 libunwind::Registers_arm::getFloatRegister(int)
FUNC 570e0 bc 0 libunwind::Registers_arm::setFloatRegister(int, unsigned long long)
FUNC 5719c 4c 0 libunwind::UnwindCursor<libunwind::LocalAddressSpace, libunwind::Registers_arm>::stepWithEHABI()
FUNC 571e8 14 0 libunwind::Registers_arm::jumpto()
FUNC 571fc 34 0 libunwind::Registers_arm::restoreSavedFloatRegisters()
FUNC 57230 60 0 libunwind::LocalAddressSpace::findFunctionName(unsigned int, char*, unsigned int, unsigned int*)
FUNC 57290 44 0 libunwind::LocalAddressSpace::findUnwindSections(unsigned int, libunwind::UnwindInfoSections&)
FUNC 572d4 1cc 0 libunwind::UnwindCursor<libunwind::LocalAddressSpace, libunwind::Registers_arm>::getInfoFromEHABISection(unsigned int, libunwind::UnwindInfoSections const&)
FUNC 574a0 48 0 libunwind::EHABISectionIterator<libunwind::LocalAddressSpace> std::__ndk1::upper_bound<libunwind::EHABISectionIterator<libunwind::LocalAddressSpace>, unsigned int, std::__ndk1::__less<unsigned int, unsigned int> >(libunwind::EHABISectionIterator<libunwind::LocalAddressSpace>, libunwind::EHABISectionIterator<libunwind::LocalAddressSpace>, unsigned int const&, std::__ndk1::__less<unsigned int, unsigned int>)
FUNC 574e8 52 0 libunwind::EHABISectionIterator<libunwind::LocalAddressSpace> std::__ndk1::__upper_bound<std::__ndk1::__less<unsigned int, unsigned int>&, libunwind::EHABISectionIterator<libunwind::LocalAddressSpace>, unsigned int>(libunwind::EHABISectionIterator<libunwind::LocalAddressSpace>, libunwind::EHABISectionIterator<libunwind::LocalAddressSpace>, unsigned int const&, std::__ndk1::__less<unsigned int, unsigned int>&)
FUNC 5753c 444 0 libunwind::Registers_arm::getRegisterName(int)
FUNC 57ba8 2a 0 __gnu_ldivmod_helper
FUNC 57bd2 28 0 __gnu_uldivmod_helper
FUNC 57bfa 10e 0 __divdi3
FUNC 57d08 c4 0 __udivdi3
PUBLIC 26c11 0 __cxx_global_var_init
PUBLIC 26c45 0 _GLOBAL__sub_I_java_BuglyHunter.cpp
PUBLIC 26c50 0 __on_dlclose
PUBLIC 26c60 0 __emutls_unregister_key
PUBLIC 26c64 0 __on_dlclose_late
PUBLIC 26c68 0 __atexit_handler_wrapper
PUBLIC 26c74 0 atexit
PUBLIC 26c95 0 cntl_fd(int, int)
PUBLIC 26dbd 0 child_worker()
PUBLIC 26f91 0 _JavaVM::GetEnv(void**, int)
PUBLIC 26fc5 0 _JNIEnv::FindClass(char const*)
PUBLIC 26fef 0 _JNIEnv::GetStaticMethodID(_jclass*, char const*, char const*)
PUBLIC 27037 0 _JNIEnv::NewStringUTF(char const*)
PUBLIC 27065 0 _JNIEnv::CallStaticVoidMethod(_jclass*, _jmethodID*, ...)
PUBLIC 270dd 0 _JavaVM::AttachCurrentThread(_JNIEnv**, void*)
PUBLIC 27111 0 _JavaVM::DetachCurrentThread()
PUBLIC 27129 0 start_child_processes()
PUBLIC 271c1 0 std::__ndk1::basic_string<char, std::__ndk1::char_traits<char>, std::__ndk1::allocator<char> >::basic_string()
PUBLIC 271e9 0 std::__ndk1::basic_string<char, std::__ndk1::char_traits<char>, std::__ndk1::allocator<char> >::~basic_string()
PUBLIC 2723d 0 JNI_OnLoad
PUBLIC 2728d 0 DumpCallback(google_breakpad::MinidumpDescriptor const&, void*, bool)
PUBLIC 274bd 0 google_breakpad::MinidumpDescriptor::path() const
PUBLIC 274cd 0 std::__ndk1::chrono::time_point<std::__ndk1::chrono::system_clock, std::__ndk1::chrono::duration<long long, std::__ndk1::ratio<1ll, 1000000ll> > >::time_since_epoch() const
PUBLIC 274ed 0 _ZNSt6__ndk16chrono13duration_castINS0_8durationIxNS_5ratioILx1ELx1000EEEEExNS3_ILx1ELx1000000EEEEENS_9enable_ifIXsr13__is_durationIT_EE5valueES8_E4typeERKNS2_IT0_T1_EE
PUBLIC 27539 0 std::__ndk1::chrono::duration<long long, std::__ndk1::ratio<1ll, 1000ll> >::count() const
PUBLIC 27553 0 std::__ndk1::basic_string<char, std::__ndk1::char_traits<char>, std::__ndk1::allocator<char> > std::__ndk1::operator+<char, std::__ndk1::char_traits<char>, std::__ndk1::allocator<char> >(std::__ndk1::basic_string<char, std::__ndk1::char_traits<char>, std::__ndk1::allocator<char> >&&, char const*)
PUBLIC 2758f 0 std::__ndk1::basic_string<char, std::__ndk1::char_traits<char>, std::__ndk1::allocator<char> > std::__ndk1::operator+<char, std::__ndk1::char_traits<char>, std::__ndk1::allocator<char> >(std::__ndk1::basic_string<char, std::__ndk1::char_traits<char>, std::__ndk1::allocator<char> >&&, std::__ndk1::basic_string<char, std::__ndk1::char_traits<char>, std::__ndk1::allocator<char> >&&)
PUBLIC 275cd 0 std::__ndk1::basic_string<char, std::__ndk1::char_traits<char>, std::__ndk1::allocator<char> > std::__ndk1::operator+<char, std::__ndk1::char_traits<char>, std::__ndk1::allocator<char> >(std::__ndk1::basic_string<char, std::__ndk1::char_traits<char>, std::__ndk1::allocator<char> > const&, char const*)
PUBLIC 27695 0 std::__ndk1::basic_string<char, std::__ndk1::char_traits<char>, std::__ndk1::allocator<char> >::c_str() const
PUBLIC 276ab 0 std::__ndk1::basic_string<char, std::__ndk1::char_traits<char>, std::__ndk1::allocator<char> >::size() const
PUBLIC 276e1 0 initBuglyHunter(_JNIEnv*, _jclass*, _jstring*)
PUBLIC 27881 0 _JNIEnv::GetStringUTFChars(_jstring*, unsigned char*)
PUBLIC 278b7 0 _JNIEnv::GetStringUTFLength(_jstring*)
PUBLIC 278e3 0 std::__ndk1::basic_string<char, std::__ndk1::char_traits<char>, std::__ndk1::allocator<char> >::operator=(char const*)
PUBLIC 27901 0 std::__ndk1::basic_string<char, std::__ndk1::char_traits<char>, std::__ndk1::allocator<char> >::basic_string(char const*)
PUBLIC 27939 0 google_breakpad::MinidumpDescriptor::MinidumpDescriptor(std::__ndk1::basic_string<char, std::__ndk1::char_traits<char>, std::__ndk1::allocator<char> > const&)
PUBLIC 279ed 0 _JNIEnv::ReleaseStringUTFChars(_jstring*, char const*)
PUBLIC 27a25 0 Java_com_zw_bugly_BuglyHunter_native_1init
PUBLIC 27ae1 0 std::__ndk1::chrono::__duration_cast<std::__ndk1::chrono::duration<long long, std::__ndk1::ratio<1ll, 1000000ll> >, std::__ndk1::chrono::duration<long long, std::__ndk1::ratio<1ll, 1000ll> >, std::__ndk1::ratio<1ll, 1000ll>, true, false>::operator()(std::__ndk1::chrono::duration<long long, std::__ndk1::ratio<1ll, 1000000ll> > const&) const
PUBLIC 27b45 0 std::__ndk1::chrono::duration<long long, std::__ndk1::ratio<1ll, 1000000ll> >::count() const
PUBLIC 27b5f 0 _ZNSt6__ndk16chrono8durationIxNS_5ratioILx1ELx1000EEEEC2IxEERKT_PNS_9enable_ifIXaasr14is_convertibleIS6_xEE5valueooL_ZNS_17integral_constantIbLb0EE5valueEEntsr23treat_as_floating_pointIS6_EE5valueEvE4typeE
PUBLIC 27b8d 0 std::__ndk1::basic_string<char, std::__ndk1::char_traits<char>, std::__ndk1::allocator<char> >::basic_string(std::__ndk1::basic_string<char, std::__ndk1::char_traits<char>, std::__ndk1::allocator<char> > const&)
PUBLIC 27c49 0 google_breakpad::MicrodumpExtraInfo::MicrodumpExtraInfo()
PUBLIC 27c61 0 std::__ndk1::basic_string<char, std::__ndk1::char_traits<char>, std::__ndk1::allocator<char> >::empty() const
PUBLIC 27c7d 0 std::__ndk1::allocator_traits<std::__ndk1::allocator<char> >::select_on_container_copy_construction(std::__ndk1::allocator<char> const&)
PUBLIC 27c93 0 std::__ndk1::basic_string<char, std::__ndk1::char_traits<char>, std::__ndk1::allocator<char> >::__alloc() const
PUBLIC 27ca9 0 std::__ndk1::__compressed_pair<std::__ndk1::basic_string<char, std::__ndk1::char_traits<char>, std::__ndk1::allocator<char> >::__rep, std::__ndk1::allocator<char> >::__compressed_pair<std::__ndk1::allocator<char> >(std::__ndk1::__second_tag, std::__ndk1::allocator<char>&&)
PUBLIC 27cdb 0 std::__ndk1::basic_string<char, std::__ndk1::char_traits<char>, std::__ndk1::allocator<char> >::__is_long() const
PUBLIC 27cf7 0 std::__ndk1::__compressed_pair<std::__ndk1::basic_string<char, std::__ndk1::char_traits<char>, std::__ndk1::allocator<char> >::__rep, std::__ndk1::allocator<char> >::first() const
PUBLIC 27d0d 0 std::__ndk1::__compressed_pair<std::__ndk1::basic_string<char, std::__ndk1::char_traits<char>, std::__ndk1::allocator<char> >::__rep, std::__ndk1::allocator<char> >::first()
PUBLIC 27d25 0 std::__ndk1::basic_string<char, std::__ndk1::char_traits<char>, std::__ndk1::allocator<char> >::__init(char const*, unsigned int)
PUBLIC 27e01 0 char const* std::__ndk1::__to_raw_pointer<char const>(char const*)
PUBLIC 27e0f 0 std::__ndk1::basic_string<char, std::__ndk1::char_traits<char>, std::__ndk1::allocator<char> >::__get_long_pointer() const
PUBLIC 27e27 0 std::__ndk1::basic_string<char, std::__ndk1::char_traits<char>, std::__ndk1::allocator<char> >::__get_long_size() const
PUBLIC 27e3f 0 std::__ndk1::allocator_traits<std::__ndk1::allocator<char> >::__select_on_container_copy_construction(std::__ndk1::integral_constant<bool, false>, std::__ndk1::allocator<char> const&)
PUBLIC 27e4b 0 std::__ndk1::__compressed_pair<std::__ndk1::basic_string<char, std::__ndk1::char_traits<char>, std::__ndk1::allocator<char> >::__rep, std::__ndk1::allocator<char> >::second() const
PUBLIC 27e61 0 std::__ndk1::__compressed_pair_elem<std::__ndk1::allocator<char>, 1, true>::__get() const
PUBLIC 27e6f 0 std::__ndk1::__compressed_pair_elem<std::__ndk1::basic_string<char, std::__ndk1::char_traits<char>, std::__ndk1::allocator<char> >::__rep, 0, false>::__compressed_pair_elem()
PUBLIC 27e85 0 std::__ndk1::allocator<char>&& std::__ndk1::forward<std::__ndk1::allocator<char> >(std::__ndk1::remove_reference<std::__ndk1::allocator<char> >::type&)
PUBLIC 27e93 0 std::__ndk1::__compressed_pair_elem<std::__ndk1::allocator<char>, 1, true>::__compressed_pair_elem<std::__ndk1::allocator<char>, void>(std::__ndk1::allocator<char>&&)
PUBLIC 27ebb 0 std::__ndk1::__compressed_pair_elem<std::__ndk1::basic_string<char, std::__ndk1::char_traits<char>, std::__ndk1::allocator<char> >::__rep, 0, false>::__get() const
PUBLIC 27ec9 0 std::__ndk1::__compressed_pair_elem<std::__ndk1::basic_string<char, std::__ndk1::char_traits<char>, std::__ndk1::allocator<char> >::__rep, 0, false>::__get()
PUBLIC 27ed7 0 std::__ndk1::basic_string<char, std::__ndk1::char_traits<char>, std::__ndk1::allocator<char> >::max_size() const
PUBLIC 27ef9 0 std::__ndk1::__basic_string_common<true>::__throw_length_error() const
PUBLIC 27f11 0 std::__ndk1::basic_string<char, std::__ndk1::char_traits<char>, std::__ndk1::allocator<char> >::__set_short_size(unsigned int)
PUBLIC 27f37 0 std::__ndk1::basic_string<char, std::__ndk1::char_traits<char>, std::__ndk1::allocator<char> >::__get_short_pointer()
PUBLIC 27f53 0 std::__ndk1::basic_string<char, std::__ndk1::char_traits<char>, std::__ndk1::allocator<char> >::__recommend(unsigned int)
PUBLIC 27f95 0 std::__ndk1::allocator_traits<std::__ndk1::allocator<char> >::allocate(std::__ndk1::allocator<char>&, unsigned int)
PUBLIC 27fb9 0 std::__ndk1::basic_string<char, std::__ndk1::char_traits<char>, std::__ndk1::allocator<char> >::__alloc()
PUBLIC 27fcf 0 std::__ndk1::basic_string<char, std::__ndk1::char_traits<char>, std::__ndk1::allocator<char> >::__set_long_pointer(char*)
PUBLIC 27ff3 0 std::__ndk1::basic_string<char, std::__ndk1::char_traits<char>, std::__ndk1::allocator<char> >::__set_long_cap(unsigned int)
PUBLIC 2801b 0 std::__ndk1::basic_string<char, std::__ndk1::char_traits<char>, std::__ndk1::allocator<char> >::__set_long_size(unsigned int)
PUBLIC 2803f 0 std::__ndk1::char_traits<char>::copy(char*, char const*, unsigned int)
PUBLIC 28083 0 char* std::__ndk1::__to_raw_pointer<char>(char*)
PUBLIC 28091 0 std::__ndk1::char_traits<char>::assign(char&, char const&)
PUBLIC 280ab 0 std::__ndk1::allocator_traits<std::__ndk1::allocator<char> >::max_size(std::__ndk1::allocator<char> const&)
PUBLIC 280c1 0 std::__ndk1::allocator_traits<std::__ndk1::allocator<char> >::__max_size(std::__ndk1::integral_constant<bool, true>, std::__ndk1::allocator<char> const&)
PUBLIC 280d7 0 std::__ndk1::allocator<char>::max_size() const
PUBLIC 280e9 0 std::__ndk1::__throw_length_error(char const*)
PUBLIC 28139 0 std::length_error::length_error(char const*)
PUBLIC 2816d 0 std::__ndk1::pointer_traits<char*>::pointer_to(char&)
PUBLIC 28183 0 char* std::__ndk1::addressof<char>(char&)
PUBLIC 28191 0 unsigned int std::__ndk1::basic_string<char, std::__ndk1::char_traits<char>, std::__ndk1::allocator<char> >::__align_it<16u>(unsigned int)
PUBLIC 281a5 0 std::__ndk1::allocator<char>::allocate(unsigned int, void const*)
PUBLIC 281ed 0 std::__ndk1::__libcpp_allocate(unsigned int, unsigned int)
PUBLIC 28209 0 std::__ndk1::__compressed_pair<std::__ndk1::basic_string<char, std::__ndk1::char_traits<char>, std::__ndk1::allocator<char> >::__rep, std::__ndk1::allocator<char> >::second()
PUBLIC 2821f 0 std::__ndk1::__compressed_pair_elem<std::__ndk1::allocator<char>, 1, true>::__get()
PUBLIC 2822d 0 std::__ndk1::allocator_traits<std::__ndk1::allocator<char> >::deallocate(std::__ndk1::allocator<char>&, char*, unsigned int)
PUBLIC 28257 0 std::__ndk1::basic_string<char, std::__ndk1::char_traits<char>, std::__ndk1::allocator<char> >::__get_long_pointer()
PUBLIC 2826f 0 std::__ndk1::basic_string<char, std::__ndk1::char_traits<char>, std::__ndk1::allocator<char> >::__get_long_cap() const
PUBLIC 2828b 0 std::__ndk1::allocator<char>::deallocate(char*, unsigned int)
PUBLIC 282bd 0 std::__ndk1::__libcpp_deallocate(void*, unsigned int, unsigned int)
PUBLIC 282e7 0 __clang_call_terminate
PUBLIC 282f7 0 std::__ndk1::_DeallocateCaller::__do_deallocate_handle_size_align(void*, unsigned int, unsigned int)
PUBLIC 2831f 0 std::__ndk1::_DeallocateCaller::__do_deallocate_handle_size(void*, unsigned int)
PUBLIC 2833b 0 std::__ndk1::_DeallocateCaller::__do_call(void*)
PUBLIC 28351 0 std::__ndk1::__compressed_pair<std::__ndk1::basic_string<char, std::__ndk1::char_traits<char>, std::__ndk1::allocator<char> >::__rep, std::__ndk1::allocator<char> >::__compressed_pair<true, void>()
PUBLIC 28371 0 std::__ndk1::basic_string<char, std::__ndk1::char_traits<char>, std::__ndk1::allocator<char> >::__zero()
PUBLIC 283ab 0 std::__ndk1::__compressed_pair_elem<std::__ndk1::allocator<char>, 1, true>::__compressed_pair_elem()
PUBLIC 283c5 0 std::__ndk1::allocator<char>::allocator()
PUBLIC 283d3 0 std::__ndk1::basic_string<char, std::__ndk1::char_traits<char>, std::__ndk1::allocator<char> >::get_allocator() const
PUBLIC 283eb 0 std::__ndk1::basic_string<char, std::__ndk1::char_traits<char>, std::__ndk1::allocator<char> >::basic_string(std::__ndk1::allocator<char> const&)
PUBLIC 2841b 0 std::__ndk1::char_traits<char>::length(char const*)
PUBLIC 28431 0 std::__ndk1::basic_string<char, std::__ndk1::char_traits<char>, std::__ndk1::allocator<char> >::__init(char const*, unsigned int, unsigned int)
PUBLIC 28519 0 std::__ndk1::basic_string<char, std::__ndk1::char_traits<char>, std::__ndk1::allocator<char> >::data() const
PUBLIC 28535 0 std::__ndk1::basic_string<char, std::__ndk1::char_traits<char>, std::__ndk1::allocator<char> >::append(char const*, unsigned int)
PUBLIC 28629 0 std::__ndk1::__compressed_pair<std::__ndk1::basic_string<char, std::__ndk1::char_traits<char>, std::__ndk1::allocator<char> >::__rep, std::__ndk1::allocator<char> >::__compressed_pair<std::__ndk1::allocator<char> const&>(std::__ndk1::__second_tag, std::__ndk1::allocator<char> const&)
PUBLIC 2865b 0 std::__ndk1::allocator<char> const& std::__ndk1::forward<std::__ndk1::allocator<char> const&>(std::__ndk1::remove_reference<std::__ndk1::allocator<char> const&>::type&)
PUBLIC 28669 0 std::__ndk1::__compressed_pair_elem<std::__ndk1::allocator<char>, 1, true>::__compressed_pair_elem<std::__ndk1::allocator<char> const&, void>(std::__ndk1::allocator<char> const&)
PUBLIC 28691 0 std::__ndk1::basic_string<char, std::__ndk1::char_traits<char>, std::__ndk1::allocator<char> >::__get_pointer() const
PUBLIC 286c5 0 std::__ndk1::basic_string<char, std::__ndk1::char_traits<char>, std::__ndk1::allocator<char> >::__get_short_pointer() const
PUBLIC 286e1 0 std::__ndk1::pointer_traits<char const*>::pointer_to(char const&)
PUBLIC 286f7 0 char const* std::__ndk1::addressof<char const>(char const&)
PUBLIC 28705 0 std::__ndk1::basic_string<char, std::__ndk1::char_traits<char>, std::__ndk1::allocator<char> >::capacity() const
PUBLIC 28737 0 std::__ndk1::basic_string<char, std::__ndk1::char_traits<char>, std::__ndk1::allocator<char> >::__get_pointer()
PUBLIC 2876b 0 std::__ndk1::basic_string<char, std::__ndk1::char_traits<char>, std::__ndk1::allocator<char> >::__set_size(unsigned int)
PUBLIC 287a5 0 std::__ndk1::basic_string<char, std::__ndk1::char_traits<char>, std::__ndk1::allocator<char> >::__grow_by_and_replace(unsigned int, unsigned int, unsigned int, unsigned int, unsigned int, unsigned int, char const*)
PUBLIC 2898d 0 unsigned int const& std::__ndk1::max<unsigned int>(unsigned int const&, unsigned int const&)
PUBLIC 289ab 0 std::__ndk1::basic_string<char, std::__ndk1::char_traits<char>, std::__ndk1::allocator<char> >::__invalidate_all_iterators()
PUBLIC 289b9 0 unsigned int const& std::__ndk1::max<unsigned int, std::__ndk1::__less<unsigned int, unsigned int> >(unsigned int const&, unsigned int const&, std::__ndk1::__less<unsigned int, unsigned int>)
PUBLIC 28a21 0 std::__ndk1::__less<unsigned int, unsigned int>::operator()(unsigned int const&, unsigned int const&) const
PUBLIC 28a53 0 std::__ndk1::remove_reference<std::__ndk1::basic_string<char, std::__ndk1::char_traits<char>, std::__ndk1::allocator<char> >&>::type&& std::__ndk1::move<std::__ndk1::basic_string<char, std::__ndk1::char_traits<char>, std::__ndk1::allocator<char> >&>(std::__ndk1::basic_string<char, std::__ndk1::char_traits<char>, std::__ndk1::allocator<char> >&)
PUBLIC 28a61 0 std::__ndk1::basic_string<char, std::__ndk1::char_traits<char>, std::__ndk1::allocator<char> >::append(std::__ndk1::basic_string<char, std::__ndk1::char_traits<char>, std::__ndk1::allocator<char> > const&)
PUBLIC 28a9b 0 std::__ndk1::basic_string<char, std::__ndk1::char_traits<char>, std::__ndk1::allocator<char> >::basic_string(std::__ndk1::basic_string<char, std::__ndk1::char_traits<char>, std::__ndk1::allocator<char> >&&)
PUBLIC 28ad3 0 std::__ndk1::remove_reference<std::__ndk1::__compressed_pair<std::__ndk1::basic_string<char, std::__ndk1::char_traits<char>, std::__ndk1::allocator<char> >::__rep, std::__ndk1::allocator<char> >&>::type&& std::__ndk1::move<std::__ndk1::__compressed_pair<std::__ndk1::basic_string<char, std::__ndk1::char_traits<char>, std::__ndk1::allocator<char> >::__rep, std::__ndk1::allocator<char> >&>(std::__ndk1::__compressed_pair<std::__ndk1::basic_string<char, std::__ndk1::char_traits<char>, std::__ndk1::allocator<char> >::__rep, std::__ndk1::allocator<char> >&)
PUBLIC 28ae1 0 std::__ndk1::basic_string<char, std::__ndk1::char_traits<char>, std::__ndk1::allocator<char> >::append(char const*)
PUBLIC 28b13 0 std::__ndk1::basic_string<char, std::__ndk1::char_traits<char>, std::__ndk1::allocator<char> >::__get_short_size() const
PUBLIC 28b2d 0 std::__ndk1::basic_string<char, std::__ndk1::char_traits<char>, std::__ndk1::allocator<char> >::assign(char const*)
PUBLIC 28b61 0 std::__ndk1::basic_string<char, std::__ndk1::char_traits<char>, std::__ndk1::allocator<char> >::assign(char const*, unsigned int)
PUBLIC 28c41 0 std::__ndk1::char_traits<char>::move(char*, char const*, unsigned int)
PUBLIC 28c83 0 std::__ndk1::basic_string<char, std::__ndk1::char_traits<char>, std::__ndk1::allocator<char> >::__invalidate_iterators_past(unsigned int)
PUBLIC 28c95 0 crash_test()
PUBLIC 28ca5 0 Java_com_zw_bugly_TestBugly_native_1crash1
PUBLIC 28cbf 0 Java_com_zw_bugly_TestBugly_native_1crash2
PUBLIC 28cd9 0 Java_com_zw_bugly_TestBugly_native_1crash3
PUBLIC 28d41 0 std::__ndk1::thread::thread<Java_com_zw_bugly_TestBugly_native_1crash3::$_0, , void>(Java_com_zw_bugly_TestBugly_native_1crash3::$_0&&)
PUBLIC 28e65 0 Java_com_zw_bugly_TestBugly_native_1crash4
PUBLIC 28ecd 0 std::__ndk1::thread::thread<Java_com_zw_bugly_TestBugly_native_1crash4::$_1, , void>(Java_com_zw_bugly_TestBugly_native_1crash4::$_1&&)
PUBLIC 28ff1 0 std::__ndk1::unique_ptr<std::__ndk1::__thread_struct, std::__ndk1::default_delete<std::__ndk1::__thread_struct> >::unique_ptr<true, void>(std::__ndk1::__thread_struct*)
PUBLIC 29041 0 std::__ndk1::remove_reference<std::__ndk1::unique_ptr<std::__ndk1::__thread_struct, std::__ndk1::default_delete<std::__ndk1::__thread_struct> >&>::type&& std::__ndk1::move<std::__ndk1::unique_ptr<std::__ndk1::__thread_struct, std::__ndk1::default_delete<std::__ndk1::__thread_struct> >&>(std::__ndk1::unique_ptr<std::__ndk1::__thread_struct, std::__ndk1::default_delete<std::__ndk1::__thread_struct> >&)
PUBLIC 2904f 0 std::__ndk1::decay<Java_com_zw_bugly_TestBugly_native_1crash3::$_0>::type std::__ndk1::__decay_copy<Java_com_zw_bugly_TestBugly_native_1crash3::$_0>(Java_com_zw_bugly_TestBugly_native_1crash3::$_0&&)
PUBLIC 29067 0 Java_com_zw_bugly_TestBugly_native_1crash3::$_0&& std::__ndk1::forward<Java_com_zw_bugly_TestBugly_native_1crash3::$_0>(std::__ndk1::remove_reference<Java_com_zw_bugly_TestBugly_native_1crash3::$_0>::type&)
PUBLIC 29075 0 std::__ndk1::tuple<std::__ndk1::unique_ptr<std::__ndk1::__thread_struct, std::__ndk1::default_delete<std::__ndk1::__thread_struct> >, Java_com_zw_bugly_TestBugly_native_1crash3::$_0>::tuple<std::__ndk1::unique_ptr<std::__ndk1::__thread_struct, std::__ndk1::default_delete<std::__ndk1::__thread_struct> >, Java_com_zw_bugly_TestBugly_native_1crash3::$_0, false, false>(std::__ndk1::unique_ptr<std::__ndk1::__thread_struct, std::__ndk1::default_delete<std::__ndk1::__thread_struct> >&&, Java_com_zw_bugly_TestBugly_native_1crash3::$_0&&)
PUBLIC 290bd 0 std::__ndk1::unique_ptr<std::__ndk1::tuple<std::__ndk1::unique_ptr<std::__ndk1::__thread_struct, std::__ndk1::default_delete<std::__ndk1::__thread_struct> >, Java_com_zw_bugly_TestBugly_native_1crash3::$_0>, std::__ndk1::default_delete<std::__ndk1::tuple<std::__ndk1::unique_ptr<std::__ndk1::__thread_struct, std::__ndk1::default_delete<std::__ndk1::__thread_struct> >, Java_com_zw_bugly_TestBugly_native_1crash3::$_0> > >::unique_ptr<true, void>(std::__ndk1::tuple<std::__ndk1::unique_ptr<std::__ndk1::__thread_struct, std::__ndk1::default_delete<std::__ndk1::__thread_struct> >, Java_com_zw_bugly_TestBugly_native_1crash3::$_0>*)
PUBLIC 2910d 0 std::__ndk1::__libcpp_thread_create(long*, void* (*)(void*), void*)
PUBLIC 29141 0 void* std::__ndk1::__thread_proxy<std::__ndk1::tuple<std::__ndk1::unique_ptr<std::__ndk1::__thread_struct, std::__ndk1::default_delete<std::__ndk1::__thread_struct> >, Java_com_zw_bugly_TestBugly_native_1crash3::$_0> >(void*)
PUBLIC 291e1 0 std::__ndk1::unique_ptr<std::__ndk1::tuple<std::__ndk1::unique_ptr<std::__ndk1::__thread_struct, std::__ndk1::default_delete<std::__ndk1::__thread_struct> >, Java_com_zw_bugly_TestBugly_native_1crash3::$_0>, std::__ndk1::default_delete<std::__ndk1::tuple<std::__ndk1::unique_ptr<std::__ndk1::__thread_struct, std::__ndk1::default_delete<std::__ndk1::__thread_struct> >, Java_com_zw_bugly_TestBugly_native_1crash3::$_0> > >::get() const
PUBLIC 291f9 0 std::__ndk1::unique_ptr<std::__ndk1::tuple<std::__ndk1::unique_ptr<std::__ndk1::__thread_struct, std::__ndk1::default_delete<std::__ndk1::__thread_struct> >, Java_com_zw_bugly_TestBugly_native_1crash3::$_0>, std::__ndk1::default_delete<std::__ndk1::tuple<std::__ndk1::unique_ptr<std::__ndk1::__thread_struct, std::__ndk1::default_delete<std::__ndk1::__thread_struct> >, Java_com_zw_bugly_TestBugly_native_1crash3::$_0> > >::release()
PUBLIC 29221 0 std::__ndk1::unique_ptr<std::__ndk1::tuple<std::__ndk1::unique_ptr<std::__ndk1::__thread_struct, std::__ndk1::default_delete<std::__ndk1::__thread_struct> >, Java_com_zw_bugly_TestBugly_native_1crash3::$_0>, std::__ndk1::default_delete<std::__ndk1::tuple<std::__ndk1::unique_ptr<std::__ndk1::__thread_struct, std::__ndk1::default_delete<std::__ndk1::__thread_struct> >, Java_com_zw_bugly_TestBugly_native_1crash3::$_0> > >::~unique_ptr()
PUBLIC 2923f 0 std::__ndk1::unique_ptr<std::__ndk1::__thread_struct, std::__ndk1::default_delete<std::__ndk1::__thread_struct> >::~unique_ptr()
PUBLIC 2925d 0 std::__ndk1::__compressed_pair<std::__ndk1::__thread_struct*, std::__ndk1::default_delete<std::__ndk1::__thread_struct> >::__compressed_pair<std::__ndk1::__thread_struct*&, true>(std::__ndk1::__thread_struct*&)
PUBLIC 2928d 0 std::__ndk1::__thread_struct*& std::__ndk1::forward<std::__ndk1::__thread_struct*&>(std::__ndk1::remove_reference<std::__ndk1::__thread_struct*&>::type&)
PUBLIC 2929b 0 std::__ndk1::__compressed_pair_elem<std::__ndk1::__thread_struct*, 0, false>::__compressed_pair_elem<std::__ndk1::__thread_struct*&, void>(std::__ndk1::__thread_struct*&)
PUBLIC 292c5 0 std::__ndk1::unique_ptr<std::__ndk1::__thread_struct, std::__ndk1::default_delete<std::__ndk1::__thread_struct> >&& std::__ndk1::forward<std::__ndk1::unique_ptr<std::__ndk1::__thread_struct, std::__ndk1::default_delete<std::__ndk1::__thread_struct> > >(std::__ndk1::remove_reference<std::__ndk1::unique_ptr<std::__ndk1::__thread_struct, std::__ndk1::default_delete<std::__ndk1::__thread_struct> > >::type&)
PUBLIC 292d3 0 std::__ndk1::__tuple_impl<std::__ndk1::__tuple_indices<0u, 1u>, std::__ndk1::unique_ptr<std::__ndk1::__thread_struct, std::__ndk1::default_delete<std::__ndk1::__thread_struct> >, Java_com_zw_bugly_TestBugly_native_1crash3::$_0>::__tuple_impl<0u, 1u, std::__ndk1::unique_ptr<std::__ndk1::__thread_struct, std::__ndk1::default_delete<std::__ndk1::__thread_struct> >, Java_com_zw_bugly_TestBugly_native_1crash3::$_0, , , std::__ndk1::unique_ptr<std::__ndk1::__thread_struct, std::__ndk1::default_delete<std::__ndk1::__thread_struct> >, Java_com_zw_bugly_TestBugly_native_1crash3::$_0>(std::__ndk1::__tuple_indices<0u, 1u>, std::__ndk1::__tuple_types<std::__ndk1::unique_ptr<std::__ndk1::__thread_struct, std::__ndk1::default_delete<std::__ndk1::__thread_struct> >, Java_com_zw_bugly_TestBugly_native_1crash3::$_0>, std::__ndk1::__tuple_indices<>, std::__ndk1::__tuple_types<>, std::__ndk1::unique_ptr<std::__ndk1::__thread_struct, std::__ndk1::default_delete<std::__ndk1::__thread_struct> >&&, Java_com_zw_bugly_TestBugly_native_1crash3::$_0&&)
PUBLIC 2931f 0 std::__ndk1::__tuple_leaf<0u, std::__ndk1::unique_ptr<std::__ndk1::__thread_struct, std::__ndk1::default_delete<std::__ndk1::__thread_struct> >, false>::__tuple_leaf<std::__ndk1::unique_ptr<std::__ndk1::__thread_struct, std::__ndk1::default_delete<std::__ndk1::__thread_struct> >, void>(std::__ndk1::unique_ptr<std::__ndk1::__thread_struct, std::__ndk1::default_delete<std::__ndk1::__thread_struct> >&&)
PUBLIC 2934f 0 std::__ndk1::__tuple_leaf<1u, Java_com_zw_bugly_TestBugly_native_1crash3::$_0, true>::__tuple_leaf<Java_com_zw_bugly_TestBugly_native_1crash3::$_0, void>(Java_com_zw_bugly_TestBugly_native_1crash3::$_0&&)
PUBLIC 29379 0 std::__ndk1::unique_ptr<std::__ndk1::__thread_struct, std::__ndk1::default_delete<std::__ndk1::__thread_struct> >::unique_ptr(std::__ndk1::unique_ptr<std::__ndk1::__thread_struct, std::__ndk1::default_delete<std::__ndk1::__thread_struct> >&&)
PUBLIC 293e5 0 std::__ndk1::unique_ptr<std::__ndk1::__thread_struct, std::__ndk1::default_delete<std::__ndk1::__thread_struct> >::release()
PUBLIC 2940d 0 std::__ndk1::default_delete<std::__ndk1::__thread_struct>&& std::__ndk1::forward<std::__ndk1::default_delete<std::__ndk1::__thread_struct> >(std::__ndk1::remove_reference<std::__ndk1::default_delete<std::__ndk1::__thread_struct> >::type&)
PUBLIC 2941b 0 std::__ndk1::unique_ptr<std::__ndk1::__thread_struct, std::__ndk1::default_delete<std::__ndk1::__thread_struct> >::get_deleter()
PUBLIC 29431 0 std::__ndk1::__compressed_pair<std::__ndk1::__thread_struct*, std::__ndk1::default_delete<std::__ndk1::__thread_struct> >::__compressed_pair<std::__ndk1::__thread_struct*, std::__ndk1::default_delete<std::__ndk1::__thread_struct> >(std::__ndk1::__thread_struct*&&, std::__ndk1::default_delete<std::__ndk1::__thread_struct>&&)
PUBLIC 2947d 0 std::__ndk1::__compressed_pair<std::__ndk1::__thread_struct*, std::__ndk1::default_delete<std::__ndk1::__thread_struct> >::first()
PUBLIC 29493 0 std::__ndk1::__compressed_pair_elem<std::__ndk1::__thread_struct*, 0, false>::__get()
PUBLIC 294a1 0 std::__ndk1::__compressed_pair<std::__ndk1::__thread_struct*, std::__ndk1::default_delete<std::__ndk1::__thread_struct> >::second()
PUBLIC 294b7 0 std::__ndk1::__compressed_pair_elem<std::__ndk1::default_delete<std::__ndk1::__thread_struct>, 1, true>::__get()
PUBLIC 294c5 0 std::__ndk1::__thread_struct*&& std::__ndk1::forward<std::__ndk1::__thread_struct*>(std::__ndk1::remove_reference<std::__ndk1::__thread_struct*>::type&)
PUBLIC 294d3 0 std::__ndk1::__compressed_pair_elem<std::__ndk1::__thread_struct*, 0, false>::__compressed_pair_elem<std::__ndk1::__thread_struct*, void>(std::__ndk1::__thread_struct*&&)
PUBLIC 294fd 0 std::__ndk1::__compressed_pair_elem<std::__ndk1::default_delete<std::__ndk1::__thread_struct>, 1, true>::__compressed_pair_elem<std::__ndk1::default_delete<std::__ndk1::__thread_struct>, void>(std::__ndk1::default_delete<std::__ndk1::__thread_struct>&&)
PUBLIC 29525 0 std::__ndk1::__compressed_pair<std::__ndk1::tuple<std::__ndk1::unique_ptr<std::__ndk1::__thread_struct, std::__ndk1::default_delete<std::__ndk1::__thread_struct> >, Java_com_zw_bugly_TestBugly_native_1crash3::$_0>*, std::__ndk1::default_delete<std::__ndk1::tuple<std::__ndk1::unique_ptr<std::__ndk1::__thread_struct, std::__ndk1::default_delete<std::__ndk1::__thread_struct> >, Java_com_zw_bugly_TestBugly_native_1crash3::$_0> > >::__compressed_pair<std::__ndk1::tuple<std::__ndk1::unique_ptr<std::__ndk1::__thread_struct, std::__ndk1::default_delete<std::__ndk1::__thread_struct> >, Java_com_zw_bugly_TestBugly_native_1crash3::$_0>*&, true>(std::__ndk1::tuple<std::__ndk1::unique_ptr<std::__ndk1::__thread_struct, std::__ndk1::default_delete<std::__ndk1::__thread_struct> >, Java_com_zw_bugly_TestBugly_native_1crash3::$_0>*&)
PUBLIC 29555 0 std::__ndk1::tuple<std::__ndk1::unique_ptr<std::__ndk1::__thread_struct, std::__ndk1::default_delete<std::__ndk1::__thread_struct> >, Java_com_zw_bugly_TestBugly_native_1crash3::$_0>*& std::__ndk1::forward<std::__ndk1::tuple<std::__ndk1::unique_ptr<std::__ndk1::__thread_struct, std::__ndk1::default_delete<std::__ndk1::__thread_struct> >, Java_com_zw_bugly_TestBugly_native_1crash3::$_0>*&>(std::__ndk1::remove_reference<std::__ndk1::tuple<std::__ndk1::unique_ptr<std::__ndk1::__thread_struct, std::__ndk1::default_delete<std::__ndk1::__thread_struct> >, Java_com_zw_bugly_TestBugly_native_1crash3::$_0>*&>::type&)
PUBLIC 29563 0 std::__ndk1::__compressed_pair_elem<std::__ndk1::tuple<std::__ndk1::unique_ptr<std::__ndk1::__thread_struct, std::__ndk1::default_delete<std::__ndk1::__thread_struct> >, Java_com_zw_bugly_TestBugly_native_1crash3::$_0>*, 0, false>::__compressed_pair_elem<std::__ndk1::tuple<std::__ndk1::unique_ptr<std::__ndk1::__thread_struct, std::__ndk1::default_delete<std::__ndk1::__thread_struct> >, Java_com_zw_bugly_TestBugly_native_1crash3::$_0>*&, void>(std::__ndk1::tuple<std::__ndk1::unique_ptr<std::__ndk1::__thread_struct, std::__ndk1::default_delete<std::__ndk1::__thread_struct> >, Java_com_zw_bugly_TestBugly_native_1crash3::$_0>*&)
PUBLIC 2958d 0 std::__ndk1::__thread_specific_ptr<std::__ndk1::__thread_struct>::set_pointer(std::__ndk1::__thread_struct*)
PUBLIC 295af 0 std::__ndk1::tuple_element<0u, std::__ndk1::tuple<std::__ndk1::unique_ptr<std::__ndk1::__thread_struct, std::__ndk1::default_delete<std::__ndk1::__thread_struct> >, Java_com_zw_bugly_TestBugly_native_1crash3::$_0> >::type& std::__ndk1::get<0u, std::__ndk1::unique_ptr<std::__ndk1::__thread_struct, std::__ndk1::default_delete<std::__ndk1::__thread_struct> >, Java_com_zw_bugly_TestBugly_native_1crash3::$_0>(std::__ndk1::tuple<std::__ndk1::unique_ptr<std::__ndk1::__thread_struct, std::__ndk1::default_delete<std::__ndk1::__thread_struct> >, Java_com_zw_bugly_TestBugly_native_1crash3::$_0>&)
PUBLIC 295c5 0 std::__ndk1::unique_ptr<std::__ndk1::tuple<std::__ndk1::unique_ptr<std::__ndk1::__thread_struct, std::__ndk1::default_delete<std::__ndk1::__thread_struct> >, Java_com_zw_bugly_TestBugly_native_1crash3::$_0>, std::__ndk1::default_delete<std::__ndk1::tuple<std::__ndk1::unique_ptr<std::__ndk1::__thread_struct, std::__ndk1::default_delete<std::__ndk1::__thread_struct> >, Java_com_zw_bugly_TestBugly_native_1crash3::$_0> > >::operator*() const
PUBLIC 295dd 0 void std::__ndk1::__thread_execute<std::__ndk1::unique_ptr<std::__ndk1::__thread_struct, std::__ndk1::default_delete<std::__ndk1::__thread_struct> >, Java_com_zw_bugly_TestBugly_native_1crash3::$_0>(std::__ndk1::tuple<std::__ndk1::unique_ptr<std::__ndk1::__thread_struct, std::__ndk1::default_delete<std::__ndk1::__thread_struct> >, Java_com_zw_bugly_TestBugly_native_1crash3::$_0>&, std::__ndk1::__tuple_indices<>)
PUBLIC 295fb 0 std::__ndk1::__libcpp_tls_set(int, void*)
PUBLIC 29619 0 std::__ndk1::__tuple_leaf<0u, std::__ndk1::unique_ptr<std::__ndk1::__thread_struct, std::__ndk1::default_delete<std::__ndk1::__thread_struct> >, false>::get()
PUBLIC 29627 0 std::__ndk1::__compressed_pair<std::__ndk1::tuple<std::__ndk1::unique_ptr<std::__ndk1::__thread_struct, std::__ndk1::default_delete<std::__ndk1::__thread_struct> >, Java_com_zw_bugly_TestBugly_native_1crash3::$_0>*, std::__ndk1::default_delete<std::__ndk1::tuple<std::__ndk1::unique_ptr<std::__ndk1::__thread_struct, std::__ndk1::default_delete<std::__ndk1::__thread_struct> >, Java_com_zw_bugly_TestBugly_native_1crash3::$_0> > >::first() const
PUBLIC 2963d 0 std::__ndk1::__compressed_pair_elem<std::__ndk1::tuple<std::__ndk1::unique_ptr<std::__ndk1::__thread_struct, std::__ndk1::default_delete<std::__ndk1::__thread_struct> >, Java_com_zw_bugly_TestBugly_native_1crash3::$_0>*, 0, false>::__get() const
PUBLIC 2964b 0 _ZNSt6__ndk18__invokeIZ42Java_com_zw_bugly_TestBugly_native_1crash3E3$_0JEEEDTclclsr3std6__ndk1E7forwardIT_Efp_Espclsr3std6__ndk1E7forwardIT0_Efp0_EEEOS2_DpOS3_
PUBLIC 29665 0 std::__ndk1::remove_reference<Java_com_zw_bugly_TestBugly_native_1crash3::$_0&>::type&& std::__ndk1::move<Java_com_zw_bugly_TestBugly_native_1crash3::$_0&>(Java_com_zw_bugly_TestBugly_native_1crash3::$_0&)
PUBLIC 29673 0 std::__ndk1::tuple_element<1u, std::__ndk1::tuple<std::__ndk1::unique_ptr<std::__ndk1::__thread_struct, std::__ndk1::default_delete<std::__ndk1::__thread_struct> >, Java_com_zw_bugly_TestBugly_native_1crash3::$_0> >::type& std::__ndk1::get<1u, std::__ndk1::unique_ptr<std::__ndk1::__thread_struct, std::__ndk1::default_delete<std::__ndk1::__thread_struct> >, Java_com_zw_bugly_TestBugly_native_1crash3::$_0>(std::__ndk1::tuple<std::__ndk1::unique_ptr<std::__ndk1::__thread_struct, std::__ndk1::default_delete<std::__ndk1::__thread_struct> >, Java_com_zw_bugly_TestBugly_native_1crash3::$_0>&)
PUBLIC 29689 0 Java_com_zw_bugly_TestBugly_native_1crash3::$_0::operator()() const
PUBLIC 2969d 0 std::__ndk1::__tuple_leaf<1u, Java_com_zw_bugly_TestBugly_native_1crash3::$_0, true>::get()
PUBLIC 296ab 0 std::__ndk1::__compressed_pair<std::__ndk1::tuple<std::__ndk1::unique_ptr<std::__ndk1::__thread_struct, std::__ndk1::default_delete<std::__ndk1::__thread_struct> >, Java_com_zw_bugly_TestBugly_native_1crash3::$_0>*, std::__ndk1::default_delete<std::__ndk1::tuple<std::__ndk1::unique_ptr<std::__ndk1::__thread_struct, std::__ndk1::default_delete<std::__ndk1::__thread_struct> >, Java_com_zw_bugly_TestBugly_native_1crash3::$_0> > >::first()
PUBLIC 296c1 0 std::__ndk1::__compressed_pair_elem<std::__ndk1::tuple<std::__ndk1::unique_ptr<std::__ndk1::__thread_struct, std::__ndk1::default_delete<std::__ndk1::__thread_struct> >, Java_com_zw_bugly_TestBugly_native_1crash3::$_0>*, 0, false>::__get()
PUBLIC 296cf 0 std::__ndk1::unique_ptr<std::__ndk1::tuple<std::__ndk1::unique_ptr<std::__ndk1::__thread_struct, std::__ndk1::default_delete<std::__ndk1::__thread_struct> >, Java_com_zw_bugly_TestBugly_native_1crash3::$_0>, std::__ndk1::default_delete<std::__ndk1::tuple<std::__ndk1::unique_ptr<std::__ndk1::__thread_struct, std::__ndk1::default_delete<std::__ndk1::__thread_struct> >, Java_com_zw_bugly_TestBugly_native_1crash3::$_0> > >::reset(std::__ndk1::tuple<std::__ndk1::unique_ptr<std::__ndk1::__thread_struct, std::__ndk1::default_delete<std::__ndk1::__thread_struct> >, Java_com_zw_bugly_TestBugly_native_1crash3::$_0>*)
PUBLIC 29717 0 std::__ndk1::__compressed_pair<std::__ndk1::tuple<std::__ndk1::unique_ptr<std::__ndk1::__thread_struct, std::__ndk1::default_delete<std::__ndk1::__thread_struct> >, Java_com_zw_bugly_TestBugly_native_1crash3::$_0>*, std::__ndk1::default_delete<std::__ndk1::tuple<std::__ndk1::unique_ptr<std::__ndk1::__thread_struct, std::__ndk1::default_delete<std::__ndk1::__thread_struct> >, Java_com_zw_bugly_TestBugly_native_1crash3::$_0> > >::second()
PUBLIC 2972d 0 std::__ndk1::default_delete<std::__ndk1::tuple<std::__ndk1::unique_ptr<std::__ndk1::__thread_struct, std::__ndk1::default_delete<std::__ndk1::__thread_struct> >, Java_com_zw_bugly_TestBugly_native_1crash3::$_0> >::operator()(std::__ndk1::tuple<std::__ndk1::unique_ptr<std::__ndk1::__thread_struct, std::__ndk1::default_delete<std::__ndk1::__thread_struct> >, Java_com_zw_bugly_TestBugly_native_1crash3::$_0>*) const
PUBLIC 2975b 0 std::__ndk1::__compressed_pair_elem<std::__ndk1::default_delete<std::__ndk1::tuple<std::__ndk1::unique_ptr<std::__ndk1::__thread_struct, std::__ndk1::default_delete<std::__ndk1::__thread_struct> >, Java_com_zw_bugly_TestBugly_native_1crash3::$_0> >, 1, true>::__get()
PUBLIC 29769 0 std::__ndk1::tuple<std::__ndk1::unique_ptr<std::__ndk1::__thread_struct, std::__ndk1::default_delete<std::__ndk1::__thread_struct> >, Java_com_zw_bugly_TestBugly_native_1crash3::$_0>::~tuple()
PUBLIC 29783 0 std::__ndk1::__tuple_impl<std::__ndk1::__tuple_indices<0u, 1u>, std::__ndk1::unique_ptr<std::__ndk1::__thread_struct, std::__ndk1::default_delete<std::__ndk1::__thread_struct> >, Java_com_zw_bugly_TestBugly_native_1crash3::$_0>::~__tuple_impl()
PUBLIC 2979d 0 std::__ndk1::__tuple_leaf<0u, std::__ndk1::unique_ptr<std::__ndk1::__thread_struct, std::__ndk1::default_delete<std::__ndk1::__thread_struct> >, false>::~__tuple_leaf()
PUBLIC 297b7 0 std::__ndk1::unique_ptr<std::__ndk1::__thread_struct, std::__ndk1::default_delete<std::__ndk1::__thread_struct> >::reset(std::__ndk1::__thread_struct*)
PUBLIC 297ff 0 std::__ndk1::default_delete<std::__ndk1::__thread_struct>::operator()(std::__ndk1::__thread_struct*) const
PUBLIC 2982d 0 std::__ndk1::decay<Java_com_zw_bugly_TestBugly_native_1crash4::$_1>::type std::__ndk1::__decay_copy<Java_com_zw_bugly_TestBugly_native_1crash4::$_1>(Java_com_zw_bugly_TestBugly_native_1crash4::$_1&&)
PUBLIC 29845 0 Java_com_zw_bugly_TestBugly_native_1crash4::$_1&& std::__ndk1::forward<Java_com_zw_bugly_TestBugly_native_1crash4::$_1>(std::__ndk1::remove_reference<Java_com_zw_bugly_TestBugly_native_1crash4::$_1>::type&)
PUBLIC 29853 0 std::__ndk1::tuple<std::__ndk1::unique_ptr<std::__ndk1::__thread_struct, std::__ndk1::default_delete<std::__ndk1::__thread_struct> >, Java_com_zw_bugly_TestBugly_native_1crash4::$_1>::tuple<std::__ndk1::unique_ptr<std::__ndk1::__thread_struct, std::__ndk1::default_delete<std::__ndk1::__thread_struct> >, Java_com_zw_bugly_TestBugly_native_1crash4::$_1, false, false>(std::__ndk1::unique_ptr<std::__ndk1::__thread_struct, std::__ndk1::default_delete<std::__ndk1::__thread_struct> >&&, Java_com_zw_bugly_TestBugly_native_1crash4::$_1&&)
PUBLIC 29899 0 std::__ndk1::unique_ptr<std::__ndk1::tuple<std::__ndk1::unique_ptr<std::__ndk1::__thread_struct, std::__ndk1::default_delete<std::__ndk1::__thread_struct> >, Java_com_zw_bugly_TestBugly_native_1crash4::$_1>, std::__ndk1::default_delete<std::__ndk1::tuple<std::__ndk1::unique_ptr<std::__ndk1::__thread_struct, std::__ndk1::default_delete<std::__ndk1::__thread_struct> >, Java_com_zw_bugly_TestBugly_native_1crash4::$_1> > >::unique_ptr<true, void>(std::__ndk1::tuple<std::__ndk1::unique_ptr<std::__ndk1::__thread_struct, std::__ndk1::default_delete<std::__ndk1::__thread_struct> >, Java_com_zw_bugly_TestBugly_native_1crash4::$_1>*)
PUBLIC 298e9 0 void* std::__ndk1::__thread_proxy<std::__ndk1::tuple<std::__ndk1::unique_ptr<std::__ndk1::__thread_struct, std::__ndk1::default_delete<std::__ndk1::__thread_struct> >, Java_com_zw_bugly_TestBugly_native_1crash4::$_1> >(void*)
PUBLIC 29989 0 std::__ndk1::unique_ptr<std::__ndk1::tuple<std::__ndk1::unique_ptr<std::__ndk1::__thread_struct, std::__ndk1::default_delete<std::__ndk1::__thread_struct> >, Java_com_zw_bugly_TestBugly_native_1crash4::$_1>, std::__ndk1::default_delete<std::__ndk1::tuple<std::__ndk1::unique_ptr<std::__ndk1::__thread_struct, std::__ndk1::default_delete<std::__ndk1::__thread_struct> >, Java_com_zw_bugly_TestBugly_native_1crash4::$_1> > >::get() const
PUBLIC 299a1 0 std::__ndk1::unique_ptr<std::__ndk1::tuple<std::__ndk1::unique_ptr<std::__ndk1::__thread_struct, std::__ndk1::default_delete<std::__ndk1::__thread_struct> >, Java_com_zw_bugly_TestBugly_native_1crash4::$_1>, std::__ndk1::default_delete<std::__ndk1::tuple<std::__ndk1::unique_ptr<std::__ndk1::__thread_struct, std::__ndk1::default_delete<std::__ndk1::__thread_struct> >, Java_com_zw_bugly_TestBugly_native_1crash4::$_1> > >::release()
PUBLIC 299c9 0 std::__ndk1::unique_ptr<std::__ndk1::tuple<std::__ndk1::unique_ptr<std::__ndk1::__thread_struct, std::__ndk1::default_delete<std::__ndk1::__thread_struct> >, Java_com_zw_bugly_TestBugly_native_1crash4::$_1>, std::__ndk1::default_delete<std::__ndk1::tuple<std::__ndk1::unique_ptr<std::__ndk1::__thread_struct, std::__ndk1::default_delete<std::__ndk1::__thread_struct> >, Java_com_zw_bugly_TestBugly_native_1crash4::$_1> > >::~unique_ptr()
PUBLIC 299e7 0 std::__ndk1::__tuple_impl<std::__ndk1::__tuple_indices<0u, 1u>, std::__ndk1::unique_ptr<std::__ndk1::__thread_struct, std::__ndk1::default_delete<std::__ndk1::__thread_struct> >, Java_com_zw_bugly_TestBugly_native_1crash4::$_1>::__tuple_impl<0u, 1u, std::__ndk1::unique_ptr<std::__ndk1::__thread_struct, std::__ndk1::default_delete<std::__ndk1::__thread_struct> >, Java_com_zw_bugly_TestBugly_native_1crash4::$_1, , , std::__ndk1::unique_ptr<std::__ndk1::__thread_struct, std::__ndk1::default_delete<std::__ndk1::__thread_struct> >, Java_com_zw_bugly_TestBugly_native_1crash4::$_1>(std::__ndk1::__tuple_indices<0u, 1u>, std::__ndk1::__tuple_types<std::__ndk1::unique_ptr<std::__ndk1::__thread_struct, std::__ndk1::default_delete<std::__ndk1::__thread_struct> >, Java_com_zw_bugly_TestBugly_native_1crash4::$_1>, std::__ndk1::__tuple_indices<>, std::__ndk1::__tuple_types<>, std::__ndk1::unique_ptr<std::__ndk1::__thread_struct, std::__ndk1::default_delete<std::__ndk1::__thread_struct> >&&, Java_com_zw_bugly_TestBugly_native_1crash4::$_1&&)
PUBLIC 29a33 0 std::__ndk1::__tuple_leaf<1u, Java_com_zw_bugly_TestBugly_native_1crash4::$_1, true>::__tuple_leaf<Java_com_zw_bugly_TestBugly_native_1crash4::$_1, void>(Java_com_zw_bugly_TestBugly_native_1crash4::$_1&&)
PUBLIC 29a5b 0 std::__ndk1::__compressed_pair<std::__ndk1::tuple<std::__ndk1::unique_ptr<std::__ndk1::__thread_struct, std::__ndk1::default_delete<std::__ndk1::__thread_struct> >, Java_com_zw_bugly_TestBugly_native_1crash4::$_1>*, std::__ndk1::default_delete<std::__ndk1::tuple<std::__ndk1::unique_ptr<std::__ndk1::__thread_struct, std::__ndk1::default_delete<std::__ndk1::__thread_struct> >, Java_com_zw_bugly_TestBugly_native_1crash4::$_1> > >::__compressed_pair<std::__ndk1::tuple<std::__ndk1::unique_ptr<std::__ndk1::__thread_struct, std::__ndk1::default_delete<std::__ndk1::__thread_struct> >, Java_com_zw_bugly_TestBugly_native_1crash4::$_1>*&, true>(std::__ndk1::tuple<std::__ndk1::unique_ptr<std::__ndk1::__thread_struct, std::__ndk1::default_delete<std::__ndk1::__thread_struct> >, Java_com_zw_bugly_TestBugly_native_1crash4::$_1>*&)
PUBLIC 29a8b 0 std::__ndk1::tuple<std::__ndk1::unique_ptr<std::__ndk1::__thread_struct, std::__ndk1::default_delete<std::__ndk1::__thread_struct> >, Java_com_zw_bugly_TestBugly_native_1crash4::$_1>*& std::__ndk1::forward<std::__ndk1::tuple<std::__ndk1::unique_ptr<std::__ndk1::__thread_struct, std::__ndk1::default_delete<std::__ndk1::__thread_struct> >, Java_com_zw_bugly_TestBugly_native_1crash4::$_1>*&>(std::__ndk1::remove_reference<std::__ndk1::tuple<std::__ndk1::unique_ptr<std::__ndk1::__thread_struct, std::__ndk1::default_delete<std::__ndk1::__thread_struct> >, Java_com_zw_bugly_TestBugly_native_1crash4::$_1>*&>::type&)
PUBLIC 29a99 0 std::__ndk1::__compressed_pair_elem<std::__ndk1::tuple<std::__ndk1::unique_ptr<std::__ndk1::__thread_struct, std::__ndk1::default_delete<std::__ndk1::__thread_struct> >, Java_com_zw_bugly_TestBugly_native_1crash4::$_1>*, 0, false>::__compressed_pair_elem<std::__ndk1::tuple<std::__ndk1::unique_ptr<std::__ndk1::__thread_struct, std::__ndk1::default_delete<std::__ndk1::__thread_struct> >, Java_com_zw_bugly_TestBugly_native_1crash4::$_1>*&, void>(std::__ndk1::tuple<std::__ndk1::unique_ptr<std::__ndk1::__thread_struct, std::__ndk1::default_delete<std::__ndk1::__thread_struct> >, Java_com_zw_bugly_TestBugly_native_1crash4::$_1>*&)
PUBLIC 29ac3 0 std::__ndk1::tuple_element<0u, std::__ndk1::tuple<std::__ndk1::unique_ptr<std::__ndk1::__thread_struct, std::__ndk1::default_delete<std::__ndk1::__thread_struct> >, Java_com_zw_bugly_TestBugly_native_1crash4::$_1> >::type& std::__ndk1::get<0u, std::__ndk1::unique_ptr<std::__ndk1::__thread_struct, std::__ndk1::default_delete<std::__ndk1::__thread_struct> >, Java_com_zw_bugly_TestBugly_native_1crash4::$_1>(std::__ndk1::tuple<std::__ndk1::unique_ptr<std::__ndk1::__thread_struct, std::__ndk1::default_delete<std::__ndk1::__thread_struct> >, Java_com_zw_bugly_TestBugly_native_1crash4::$_1>&)
PUBLIC 29ad9 0 std::__ndk1::unique_ptr<std::__ndk1::tuple<std::__ndk1::unique_ptr<std::__ndk1::__thread_struct, std::__ndk1::default_delete<std::__ndk1::__thread_struct> >, Java_com_zw_bugly_TestBugly_native_1crash4::$_1>, std::__ndk1::default_delete<std::__ndk1::tuple<std::__ndk1::unique_ptr<std::__ndk1::__thread_struct, std::__ndk1::default_delete<std::__ndk1::__thread_struct> >, Java_com_zw_bugly_TestBugly_native_1crash4::$_1> > >::operator*() const
PUBLIC 29af1 0 void std::__ndk1::__thread_execute<std::__ndk1::unique_ptr<std::__ndk1::__thread_struct, std::__ndk1::default_delete<std::__ndk1::__thread_struct> >, Java_com_zw_bugly_TestBugly_native_1crash4::$_1>(std::__ndk1::tuple<std::__ndk1::unique_ptr<std::__ndk1::__thread_struct, std::__ndk1::default_delete<std::__ndk1::__thread_struct> >, Java_com_zw_bugly_TestBugly_native_1crash4::$_1>&, std::__ndk1::__tuple_indices<>)
PUBLIC 29b0f 0 std::__ndk1::__compressed_pair<std::__ndk1::tuple<std::__ndk1::unique_ptr<std::__ndk1::__thread_struct, std::__ndk1::default_delete<std::__ndk1::__thread_struct> >, Java_com_zw_bugly_TestBugly_native_1crash4::$_1>*, std::__ndk1::default_delete<std::__ndk1::tuple<std::__ndk1::unique_ptr<std::__ndk1::__thread_struct, std::__ndk1::default_delete<std::__ndk1::__thread_struct> >, Java_com_zw_bugly_TestBugly_native_1crash4::$_1> > >::first() const
PUBLIC 29b25 0 std::__ndk1::__compressed_pair_elem<std::__ndk1::tuple<std::__ndk1::unique_ptr<std::__ndk1::__thread_struct, std::__ndk1::default_delete<std::__ndk1::__thread_struct> >, Java_com_zw_bugly_TestBugly_native_1crash4::$_1>*, 0, false>::__get() const
PUBLIC 29b33 0 _ZNSt6__ndk18__invokeIZ42Java_com_zw_bugly_TestBugly_native_1crash4E3$_1JEEEDTclclsr3std6__ndk1E7forwardIT_Efp_Espclsr3std6__ndk1E7forwardIT0_Efp0_EEEOS2_DpOS3_
PUBLIC 29b4d 0 std::__ndk1::remove_reference<Java_com_zw_bugly_TestBugly_native_1crash4::$_1&>::type&& std::__ndk1::move<Java_com_zw_bugly_TestBugly_native_1crash4::$_1&>(Java_com_zw_bugly_TestBugly_native_1crash4::$_1&)
PUBLIC 29b5b 0 std::__ndk1::tuple_element<1u, std::__ndk1::tuple<std::__ndk1::unique_ptr<std::__ndk1::__thread_struct, std::__ndk1::default_delete<std::__ndk1::__thread_struct> >, Java_com_zw_bugly_TestBugly_native_1crash4::$_1> >::type& std::__ndk1::get<1u, std::__ndk1::unique_ptr<std::__ndk1::__thread_struct, std::__ndk1::default_delete<std::__ndk1::__thread_struct> >, Java_com_zw_bugly_TestBugly_native_1crash4::$_1>(std::__ndk1::tuple<std::__ndk1::unique_ptr<std::__ndk1::__thread_struct, std::__ndk1::default_delete<std::__ndk1::__thread_struct> >, Java_com_zw_bugly_TestBugly_native_1crash4::$_1>&)
PUBLIC 29b71 0 Java_com_zw_bugly_TestBugly_native_1crash4::$_1::operator()() const
PUBLIC 29b85 0 std::__ndk1::__tuple_leaf<1u, Java_com_zw_bugly_TestBugly_native_1crash4::$_1, true>::get()
PUBLIC 29b93 0 std::__ndk1::__compressed_pair<std::__ndk1::tuple<std::__ndk1::unique_ptr<std::__ndk1::__thread_struct, std::__ndk1::default_delete<std::__ndk1::__thread_struct> >, Java_com_zw_bugly_TestBugly_native_1crash4::$_1>*, std::__ndk1::default_delete<std::__ndk1::tuple<std::__ndk1::unique_ptr<std::__ndk1::__thread_struct, std::__ndk1::default_delete<std::__ndk1::__thread_struct> >, Java_com_zw_bugly_TestBugly_native_1crash4::$_1> > >::first()
PUBLIC 29ba9 0 std::__ndk1::__compressed_pair_elem<std::__ndk1::tuple<std::__ndk1::unique_ptr<std::__ndk1::__thread_struct, std::__ndk1::default_delete<std::__ndk1::__thread_struct> >, Java_com_zw_bugly_TestBugly_native_1crash4::$_1>*, 0, false>::__get()
PUBLIC 29bb7 0 std::__ndk1::unique_ptr<std::__ndk1::tuple<std::__ndk1::unique_ptr<std::__ndk1::__thread_struct, std::__ndk1::default_delete<std::__ndk1::__thread_struct> >, Java_com_zw_bugly_TestBugly_native_1crash4::$_1>, std::__ndk1::default_delete<std::__ndk1::tuple<std::__ndk1::unique_ptr<std::__ndk1::__thread_struct, std::__ndk1::default_delete<std::__ndk1::__thread_struct> >, Java_com_zw_bugly_TestBugly_native_1crash4::$_1> > >::reset(std::__ndk1::tuple<std::__ndk1::unique_ptr<std::__ndk1::__thread_struct, std::__ndk1::default_delete<std::__ndk1::__thread_struct> >, Java_com_zw_bugly_TestBugly_native_1crash4::$_1>*)
PUBLIC 29bff 0 std::__ndk1::__compressed_pair<std::__ndk1::tuple<std::__ndk1::unique_ptr<std::__ndk1::__thread_struct, std::__ndk1::default_delete<std::__ndk1::__thread_struct> >, Java_com_zw_bugly_TestBugly_native_1crash4::$_1>*, std::__ndk1::default_delete<std::__ndk1::tuple<std::__ndk1::unique_ptr<std::__ndk1::__thread_struct, std::__ndk1::default_delete<std::__ndk1::__thread_struct> >, Java_com_zw_bugly_TestBugly_native_1crash4::$_1> > >::second()
PUBLIC 29c15 0 std::__ndk1::default_delete<std::__ndk1::tuple<std::__ndk1::unique_ptr<std::__ndk1::__thread_struct, std::__ndk1::default_delete<std::__ndk1::__thread_struct> >, Java_com_zw_bugly_TestBugly_native_1crash4::$_1> >::operator()(std::__ndk1::tuple<std::__ndk1::unique_ptr<std::__ndk1::__thread_struct, std::__ndk1::default_delete<std::__ndk1::__thread_struct> >, Java_com_zw_bugly_TestBugly_native_1crash4::$_1>*) const
PUBLIC 29c43 0 std::__ndk1::__compressed_pair_elem<std::__ndk1::default_delete<std::__ndk1::tuple<std::__ndk1::unique_ptr<std::__ndk1::__thread_struct, std::__ndk1::default_delete<std::__ndk1::__thread_struct> >, Java_com_zw_bugly_TestBugly_native_1crash4::$_1> >, 1, true>::__get()
PUBLIC 29c51 0 std::__ndk1::tuple<std::__ndk1::unique_ptr<std::__ndk1::__thread_struct, std::__ndk1::default_delete<std::__ndk1::__thread_struct> >, Java_com_zw_bugly_TestBugly_native_1crash4::$_1>::~tuple()
PUBLIC 29c6b 0 std::__ndk1::__tuple_impl<std::__ndk1::__tuple_indices<0u, 1u>, std::__ndk1::unique_ptr<std::__ndk1::__thread_struct, std::__ndk1::default_delete<std::__ndk1::__thread_struct> >, Java_com_zw_bugly_TestBugly_native_1crash4::$_1>::~__tuple_impl()
PUBLIC 29c85 0 google_breakpad::ExceptionHandler::ExceptionHandler(google_breakpad::MinidumpDescriptor const&, bool (*)(void*), bool (*)(google_breakpad::MinidumpDescriptor const&, void*, bool), void*, bool, int)
PUBLIC 29ead 0 google_breakpad::scoped_ptr<google_breakpad::CrashGenerationClient>::scoped_ptr(google_breakpad::CrashGenerationClient*)
PUBLIC 29ec5 0 std::__ndk1::list<google_breakpad::MappingEntry, std::__ndk1::allocator<google_breakpad::MappingEntry> >::list()
PUBLIC 29edf 0 std::__ndk1::list<google_breakpad::AppMemory, std::__ndk1::allocator<google_breakpad::AppMemory> >::list()
PUBLIC 29ef9 0 google_breakpad::scoped_ptr<google_breakpad::CrashGenerationClient>::reset(google_breakpad::CrashGenerationClient*)
PUBLIC 29f3d 0 google_breakpad::ExceptionHandler::IsOutOfProcess() const
PUBLIC 29f5b 0 google_breakpad::MinidumpDescriptor::IsFD() const
PUBLIC 29f73 0 google_breakpad::MinidumpDescriptor::IsMicrodumpOnConsole() const
PUBLIC 29f8b 0 std::__ndk1::vector<google_breakpad::ExceptionHandler*, std::__ndk1::allocator<google_breakpad::ExceptionHandler*> >::vector()
PUBLIC 29fa5 0 google_breakpad::(anonymous namespace)::InstallAlternateStackLocked()
PUBLIC 2a065 0 google_breakpad::ExceptionHandler::InstallHandlersLocked()
PUBLIC 2a1b1 0 std::__ndk1::vector<google_breakpad::ExceptionHandler*, std::__ndk1::allocator<google_breakpad::ExceptionHandler*> >::push_back(google_breakpad::ExceptionHandler*&&)
PUBLIC 2a261 0 std::__ndk1::list<google_breakpad::AppMemory, std::__ndk1::allocator<google_breakpad::AppMemory> >::~list()
PUBLIC 2a27b 0 std::__ndk1::list<google_breakpad::MappingEntry, std::__ndk1::allocator<google_breakpad::MappingEntry> >::~list()
PUBLIC 2a295 0 google_breakpad::MinidumpDescriptor::~MinidumpDescriptor()
PUBLIC 2a2bd 0 google_breakpad::scoped_ptr<google_breakpad::CrashGenerationClient>::~scoped_ptr()
PUBLIC 2a2e9 0 google_breakpad::ExceptionHandler::~ExceptionHandler()
PUBLIC 2a449 0 std::__ndk1::__wrap_iter<google_breakpad::ExceptionHandler**> std::__ndk1::find<std::__ndk1::__wrap_iter<google_breakpad::ExceptionHandler**>, google_breakpad::ExceptionHandler*>(std::__ndk1::__wrap_iter<google_breakpad::ExceptionHandler**>, std::__ndk1::__wrap_iter<google_breakpad::ExceptionHandler**>, google_breakpad::ExceptionHandler* const&)
PUBLIC 2a4cd 0 std::__ndk1::vector<google_breakpad::ExceptionHandler*, std::__ndk1::allocator<google_breakpad::ExceptionHandler*> >::begin()
PUBLIC 2a4eb 0 std::__ndk1::vector<google_breakpad::ExceptionHandler*, std::__ndk1::allocator<google_breakpad::ExceptionHandler*> >::end()
PUBLIC 2a509 0 std::__ndk1::vector<google_breakpad::ExceptionHandler*, std::__ndk1::allocator<google_breakpad::ExceptionHandler*> >::erase(std::__ndk1::__wrap_iter<google_breakpad::ExceptionHandler* const*>)
PUBLIC 2a59d 0 _ZNSt6__ndk111__wrap_iterIPKPN15google_breakpad16ExceptionHandlerEEC2IPS3_EERKNS0_IT_EEPNS_9enable_ifIXsr14is_convertibleIS9_S5_EE5valueEvE4typeE
PUBLIC 2a5cf 0 std::__ndk1::vector<google_breakpad::ExceptionHandler*, std::__ndk1::allocator<google_breakpad::ExceptionHandler*> >::empty() const
PUBLIC 2a5e9 0 std::__ndk1::vector<google_breakpad::ExceptionHandler*, std::__ndk1::allocator<google_breakpad::ExceptionHandler*> >::~vector()
PUBLIC 2a61d 0 google_breakpad::(anonymous namespace)::RestoreAlternateStackLocked()
PUBLIC 2a6e9 0 google_breakpad::ExceptionHandler::RestoreHandlersLocked()
PUBLIC 2a771 0 google_breakpad::ExceptionHandler::SignalHandler(int, siginfo*, void*)
PUBLIC 2a969 0 google_breakpad::(anonymous namespace)::InstallDefaultHandler(int)
PUBLIC 2a9d1 0 std::__ndk1::vector<google_breakpad::ExceptionHandler*, std::__ndk1::allocator<google_breakpad::ExceptionHandler*> >::size() const
PUBLIC 2a9e7 0 std::__ndk1::vector<google_breakpad::ExceptionHandler*, std::__ndk1::allocator<google_breakpad::ExceptionHandler*> >::operator[](unsigned int)
PUBLIC 2aa05 0 google_breakpad::ExceptionHandler::HandleSignal(int, siginfo*, void*)
PUBLIC 2ab55 0 sys_tgkill(int, int, int)
PUBLIC 2abbf 0 google_breakpad::ExceptionHandler::ThreadEntry(void*)
PUBLIC 2ac13 0 sys_close(int)
PUBLIC 2ac61 0 google_breakpad::ExceptionHandler::WaitForContinueSignal()
PUBLIC 2ad39 0 google_breakpad::ExceptionHandler::DoDump(int, void const*, unsigned int)
PUBLIC 2aed9 0 sys_prctl(int, unsigned long, unsigned long, unsigned long, unsigned long)
PUBLIC 2af69 0 google_breakpad::ExceptionHandler::GenerateDump(google_breakpad::ExceptionHandler::CrashContext*)
PUBLIC 2b29d 0 google_breakpad::ExceptionHandler::SimulateSignalDelivery(int)
PUBLIC 2b319 0 google_breakpad::scoped_ptr<google_breakpad::CrashGenerationClient>::operator->() const
PUBLIC 2b359 0 google_breakpad::PageAllocator::PageAllocator()
PUBLIC 2b381 0 google_breakpad::PageAllocator::Alloc(unsigned int)
PUBLIC 2b463 0 sys_pipe(int*)
PUBLIC 2b4b1 0 sys_clone(int (*)(void*), void*, int, void*, int*, void*, int*)
PUBLIC 2b5b9 0 google_breakpad::ExceptionHandler::SendContinueSignalToChild()
PUBLIC 2b671 0 sys_waitpid(int, int*, int)
PUBLIC 2b69f 0 google_breakpad::PageAllocator::~PageAllocator()
PUBLIC 2b6c1 0 sys_write(int, void const*, unsigned int)
PUBLIC 2b72b 0 sys_read(int, void*, unsigned int)
PUBLIC 2b795 0 google_breakpad::MinidumpDescriptor::skip_dump_if_principal_mapping_not_referenced()
PUBLIC 2b7ab 0 google_breakpad::MinidumpDescriptor::address_within_principal_mapping() const
PUBLIC 2b7bb 0 google_breakpad::MinidumpDescriptor::sanitize_stacks() const
PUBLIC 2b7d1 0 google_breakpad::MinidumpDescriptor::microdump_extra_info()
PUBLIC 2b815 0 google_breakpad::MinidumpDescriptor::fd() const
PUBLIC 2b825 0 google_breakpad::MinidumpDescriptor::size_limit() const
PUBLIC 2b835 0 google_breakpad::ExceptionHandler::WriteMinidump(std::__ndk1::basic_string<char, std::__ndk1::char_traits<char>, std::__ndk1::allocator<char> > const&, bool (*)(google_breakpad::MinidumpDescriptor const&, void*, bool), void*)
PUBLIC 2b8e9 0 google_breakpad::ExceptionHandler::WriteMinidump()
PUBLIC 2ba01 0 void google_breakpad::ignore_result<int>(int const&)
PUBLIC 2ba0d 0 sys_gettid()
PUBLIC 2ba39 0 google_breakpad::ExceptionHandler::AddMappingInfo(std::__ndk1::basic_string<char, std::__ndk1::char_traits<char>, std::__ndk1::allocator<char> > const&, unsigned char const*, unsigned int, unsigned int, unsigned int)
PUBLIC 2bb0d 0 std::__ndk1::list<google_breakpad::MappingEntry, std::__ndk1::allocator<google_breakpad::MappingEntry> >::push_back(google_breakpad::MappingEntry const&)
PUBLIC 2bbe5 0 google_breakpad::ExceptionHandler::RegisterAppMemory(void*, unsigned int)
PUBLIC 2bc7d 0 std::__ndk1::__list_iterator<google_breakpad::AppMemory, void*> std::__ndk1::find<std::__ndk1::__list_iterator<google_breakpad::AppMemory, void*>, void*>(std::__ndk1::__list_iterator<google_breakpad::AppMemory, void*>, std::__ndk1::__list_iterator<google_breakpad::AppMemory, void*>, void* const&)
PUBLIC 2bd05 0 std::__ndk1::list<google_breakpad::AppMemory, std::__ndk1::allocator<google_breakpad::AppMemory> >::begin()
PUBLIC 2bd1f 0 std::__ndk1::list<google_breakpad::AppMemory, std::__ndk1::allocator<google_breakpad::AppMemory> >::end()
PUBLIC 2bd39 0 std::__ndk1::operator!=(std::__ndk1::__list_iterator<google_breakpad::AppMemory, void*> const&, std::__ndk1::__list_iterator<google_breakpad::AppMemory, void*> const&)
PUBLIC 2bd5d 0 std::__ndk1::list<google_breakpad::AppMemory, std::__ndk1::allocator<google_breakpad::AppMemory> >::push_back(google_breakpad::AppMemory const&)
PUBLIC 2be35 0 google_breakpad::ExceptionHandler::UnregisterAppMemory(void*)
PUBLIC 2becd 0 std::__ndk1::list<google_breakpad::AppMemory, std::__ndk1::allocator<google_breakpad::AppMemory> >::erase(std::__ndk1::__list_const_iterator<google_breakpad::AppMemory, void*>)
PUBLIC 2bf6d 0 std::__ndk1::__list_const_iterator<google_breakpad::AppMemory, void*>::__list_const_iterator(std::__ndk1::__list_iterator<google_breakpad::AppMemory, void*> const&)
PUBLIC 2bf89 0 google_breakpad::ExceptionHandler::WriteMinidumpForChild(int, int, std::__ndk1::basic_string<char, std::__ndk1::char_traits<char>, std::__ndk1::allocator<char> > const&, bool (*)(google_breakpad::MinidumpDescriptor const&, void*, bool), void*)
PUBLIC 2c089 0 google_breakpad::SetFirstChanceExceptionHandler(bool (*)(int, siginfo*, void*))
PUBLIC 2c0a1 0 google_breakpad::scoped_ptr<google_breakpad::CrashGenerationClient>::get() const
PUBLIC 2c0b1 0 sys_sigaltstack(sigaltstack const*, sigaltstack const*)
PUBLIC 2c10b 0 std::__ndk1::__list_imp<google_breakpad::AppMemory, std::__ndk1::allocator<google_breakpad::AppMemory> >::~__list_imp()
PUBLIC 2c125 0 std::__ndk1::__list_imp<google_breakpad::AppMemory, std::__ndk1::allocator<google_breakpad::AppMemory> >::clear()
PUBLIC 2c1cb 0 std::__ndk1::__list_imp<google_breakpad::AppMemory, std::__ndk1::allocator<google_breakpad::AppMemory> >::empty() const
PUBLIC 2c1e9 0 std::__ndk1::__list_imp<google_breakpad::AppMemory, std::__ndk1::allocator<google_breakpad::AppMemory> >::__node_alloc()
PUBLIC 2c201 0 std::__ndk1::__list_imp<google_breakpad::AppMemory, std::__ndk1::allocator<google_breakpad::AppMemory> >::__end_as_link() const
PUBLIC 2c22d 0 std::__ndk1::__list_imp<google_breakpad::AppMemory, std::__ndk1::allocator<google_breakpad::AppMemory> >::__unlink_nodes(std::__ndk1::__list_node_base<google_breakpad::AppMemory, void*>*, std::__ndk1::__list_node_base<google_breakpad::AppMemory, void*>*)
PUBLIC 2c253 0 std::__ndk1::__list_imp<google_breakpad::AppMemory, std::__ndk1::allocator<google_breakpad::AppMemory> >::__sz()
PUBLIC 2c26b 0 std::__ndk1::__list_node_base<google_breakpad::AppMemory, void*>::__as_node()
PUBLIC 2c281 0 void std::__ndk1::allocator_traits<std::__ndk1::allocator<std::__ndk1::__list_node<google_breakpad::AppMemory, void*> > >::destroy<google_breakpad::AppMemory>(std::__ndk1::allocator<std::__ndk1::__list_node<google_breakpad::AppMemory, void*> >&, google_breakpad::AppMemory*)
PUBLIC 2c29f 0 google_breakpad::AppMemory* std::__ndk1::addressof<google_breakpad::AppMemory>(google_breakpad::AppMemory&)
PUBLIC 2c2ad 0 std::__ndk1::allocator_traits<std::__ndk1::allocator<std::__ndk1::__list_node<google_breakpad::AppMemory, void*> > >::deallocate(std::__ndk1::allocator<std::__ndk1::__list_node<google_breakpad::AppMemory, void*> >&, std::__ndk1::__list_node<google_breakpad::AppMemory, void*>*, unsigned int)
PUBLIC 2c2d7 0 std::__ndk1::__list_imp<google_breakpad::AppMemory, std::__ndk1::allocator<google_breakpad::AppMemory> >::__invalidate_all_iterators()
PUBLIC 2c2e3 0 std::__ndk1::__list_imp<google_breakpad::AppMemory, std::__ndk1::allocator<google_breakpad::AppMemory> >::__sz() const
PUBLIC 2c2fb 0 std::__ndk1::__compressed_pair<unsigned int, std::__ndk1::allocator<std::__ndk1::__list_node<google_breakpad::AppMemory, void*> > >::first() const
PUBLIC 2c311 0 std::__ndk1::__compressed_pair_elem<unsigned int, 0, false>::__get() const
PUBLIC 2c31f 0 std::__ndk1::__compressed_pair<unsigned int, std::__ndk1::allocator<std::__ndk1::__list_node<google_breakpad::AppMemory, void*> > >::second()
PUBLIC 2c335 0 std::__ndk1::__compressed_pair_elem<std::__ndk1::allocator<std::__ndk1::__list_node<google_breakpad::AppMemory, void*> >, 1, true>::__get()
PUBLIC 2c343 0 std::__ndk1::__list_node_pointer_traits<google_breakpad::AppMemory, void*>::__unsafe_link_pointer_cast(std::__ndk1::__list_node_base<google_breakpad::AppMemory, void*>*)
PUBLIC 2c351 0 std::__ndk1::__list_node_base<google_breakpad::AppMemory, void*>::__self()
PUBLIC 2c367 0 std::__ndk1::pointer_traits<std::__ndk1::__list_node_base<google_breakpad::AppMemory, void*>*>::pointer_to(std::__ndk1::__list_node_base<google_breakpad::AppMemory, void*>&)
PUBLIC 2c37d 0 std::__ndk1::__list_node_base<google_breakpad::AppMemory, void*>* std::__ndk1::addressof<std::__ndk1::__list_node_base<google_breakpad::AppMemory, void*> >(std::__ndk1::__list_node_base<google_breakpad::AppMemory, void*>&)
PUBLIC 2c38b 0 std::__ndk1::__compressed_pair<unsigned int, std::__ndk1::allocator<std::__ndk1::__list_node<google_breakpad::AppMemory, void*> > >::first()
PUBLIC 2c3a1 0 std::__ndk1::__compressed_pair_elem<unsigned int, 0, false>::__get()
PUBLIC 2c3af 0 void std::__ndk1::allocator_traits<std::__ndk1::allocator<std::__ndk1::__list_node<google_breakpad::AppMemory, void*> > >::__destroy<google_breakpad::AppMemory>(std::__ndk1::integral_constant<bool, false>, std::__ndk1::allocator<std::__ndk1::__list_node<google_breakpad::AppMemory, void*> >&, google_breakpad::AppMemory*)
PUBLIC 2c3c1 0 std::__ndk1::allocator<std::__ndk1::__list_node<google_breakpad::AppMemory, void*> >::deallocate(std::__ndk1::__list_node<google_breakpad::AppMemory, void*>*, unsigned int)
PUBLIC 2c3f5 0 std::__ndk1::__list_imp<google_breakpad::MappingEntry, std::__ndk1::allocator<google_breakpad::MappingEntry> >::~__list_imp()
PUBLIC 2c40f 0 std::__ndk1::__list_imp<google_breakpad::MappingEntry, std::__ndk1::allocator<google_breakpad::MappingEntry> >::clear()
PUBLIC 2c4b5 0 std::__ndk1::__list_imp<google_breakpad::MappingEntry, std::__ndk1::allocator<google_breakpad::MappingEntry> >::empty() const
PUBLIC 2c4d3 0 std::__ndk1::__list_imp<google_breakpad::MappingEntry, std::__ndk1::allocator<google_breakpad::MappingEntry> >::__node_alloc()
PUBLIC 2c4eb 0 std::__ndk1::__list_imp<google_breakpad::MappingEntry, std::__ndk1::allocator<google_breakpad::MappingEntry> >::__end_as_link() const
PUBLIC 2c517 0 std::__ndk1::__list_imp<google_breakpad::MappingEntry, std::__ndk1::allocator<google_breakpad::MappingEntry> >::__unlink_nodes(std::__ndk1::__list_node_base<google_breakpad::MappingEntry, void*>*, std::__ndk1::__list_node_base<google_breakpad::MappingEntry, void*>*)
PUBLIC 2c53d 0 std::__ndk1::__list_imp<google_breakpad::MappingEntry, std::__ndk1::allocator<google_breakpad::MappingEntry> >::__sz()
PUBLIC 2c555 0 std::__ndk1::__list_node_base<google_breakpad::MappingEntry, void*>::__as_node()
PUBLIC 2c56b 0 void std::__ndk1::allocator_traits<std::__ndk1::allocator<std::__ndk1::__list_node<google_breakpad::MappingEntry, void*> > >::destroy<google_breakpad::MappingEntry>(std::__ndk1::allocator<std::__ndk1::__list_node<google_breakpad::MappingEntry, void*> >&, google_breakpad::MappingEntry*)
PUBLIC 2c589 0 google_breakpad::MappingEntry* std::__ndk1::addressof<google_breakpad::MappingEntry>(google_breakpad::MappingEntry&)
PUBLIC 2c597 0 std::__ndk1::allocator_traits<std::__ndk1::allocator<std::__ndk1::__list_node<google_breakpad::MappingEntry, void*> > >::deallocate(std::__ndk1::allocator<std::__ndk1::__list_node<google_breakpad::MappingEntry, void*> >&, std::__ndk1::__list_node<google_breakpad::MappingEntry, void*>*, unsigned int)
PUBLIC 2c5c1 0 std::__ndk1::__list_imp<google_breakpad::MappingEntry, std::__ndk1::allocator<google_breakpad::MappingEntry> >::__invalidate_all_iterators()
PUBLIC 2c5cd 0 std::__ndk1::__list_imp<google_breakpad::MappingEntry, std::__ndk1::allocator<google_breakpad::MappingEntry> >::__sz() const
PUBLIC 2c5e5 0 std::__ndk1::__compressed_pair<unsigned int, std::__ndk1::allocator<std::__ndk1::__list_node<google_breakpad::MappingEntry, void*> > >::first() const
PUBLIC 2c5fb 0 std::__ndk1::__compressed_pair<unsigned int, std::__ndk1::allocator<std::__ndk1::__list_node<google_breakpad::MappingEntry, void*> > >::second()
PUBLIC 2c611 0 std::__ndk1::__compressed_pair_elem<std::__ndk1::allocator<std::__ndk1::__list_node<google_breakpad::MappingEntry, void*> >, 1, true>::__get()
PUBLIC 2c61f 0 std::__ndk1::__list_node_pointer_traits<google_breakpad::MappingEntry, void*>::__unsafe_link_pointer_cast(std::__ndk1::__list_node_base<google_breakpad::MappingEntry, void*>*)
PUBLIC 2c62d 0 std::__ndk1::__list_node_base<google_breakpad::MappingEntry, void*>::__self()
PUBLIC 2c643 0 std::__ndk1::pointer_traits<std::__ndk1::__list_node_base<google_breakpad::MappingEntry, void*>*>::pointer_to(std::__ndk1::__list_node_base<google_breakpad::MappingEntry, void*>&)
PUBLIC 2c659 0 std::__ndk1::__list_node_base<google_breakpad::MappingEntry, void*>* std::__ndk1::addressof<std::__ndk1::__list_node_base<google_breakpad::MappingEntry, void*> >(std::__ndk1::__list_node_base<google_breakpad::MappingEntry, void*>&)
PUBLIC 2c667 0 std::__ndk1::__compressed_pair<unsigned int, std::__ndk1::allocator<std::__ndk1::__list_node<google_breakpad::MappingEntry, void*> > >::first()
PUBLIC 2c67d 0 void std::__ndk1::allocator_traits<std::__ndk1::allocator<std::__ndk1::__list_node<google_breakpad::MappingEntry, void*> > >::__destroy<google_breakpad::MappingEntry>(std::__ndk1::integral_constant<bool, false>, std::__ndk1::allocator<std::__ndk1::__list_node<google_breakpad::MappingEntry, void*> >&, google_breakpad::MappingEntry*)
PUBLIC 2c68f 0 std::__ndk1::allocator<std::__ndk1::__list_node<google_breakpad::MappingEntry, void*> >::deallocate(std::__ndk1::__list_node<google_breakpad::MappingEntry, void*>*, unsigned int)
PUBLIC 2c6c7 0 std::__ndk1::__wrap_iter<google_breakpad::ExceptionHandler**>::base() const
PUBLIC 2c6d7 0 sys_sigemptyset(kernel_sigset_t*)
PUBLIC 2c6ed 0 sys_rt_sigaction(int, kernel_sigaction const*, kernel_sigaction*, unsigned int)
PUBLIC 2c763 0 google_breakpad::PageAllocator::GetNPages(unsigned int)
PUBLIC 2c7e5 0 sys_mmap(void*, unsigned int, int, int, int, long long)
PUBLIC 2c899 0 sys__mmap2(void*, unsigned int, int, int, int, long)
PUBLIC 2c939 0 sys_wait4(int, int*, int, kernel_rusage*)
PUBLIC 2c9af 0 google_breakpad::PageAllocator::FreeAll()
PUBLIC 2c9ef 0 sys_munmap(void*, unsigned int)
PUBLIC 2ca49 0 sys__gettid()
PUBLIC 2ca8b 0 sys_getpid()
PUBLIC 2cacd 0 std::__ndk1::__list_imp<google_breakpad::MappingEntry, std::__ndk1::allocator<google_breakpad::MappingEntry> >::__list_imp()
PUBLIC 2cb25 0 std::__ndk1::__list_node_base<google_breakpad::MappingEntry, void*>::__list_node_base()
PUBLIC 2cb55 0 std::__ndk1::__compressed_pair<unsigned int, std::__ndk1::allocator<std::__ndk1::__list_node<google_breakpad::MappingEntry, void*> > >::__compressed_pair<int, true>(int&&)
PUBLIC 2cb8b 0 int&& std::__ndk1::forward<int>(std::__ndk1::remove_reference<int>::type&)
PUBLIC 2cb99 0 std::__ndk1::__compressed_pair_elem<unsigned int, 0, false>::__compressed_pair_elem<int, void>(int&&)
PUBLIC 2cbc3 0 std::__ndk1::__compressed_pair_elem<std::__ndk1::allocator<std::__ndk1::__list_node<google_breakpad::MappingEntry, void*> >, 1, true>::__compressed_pair_elem()
PUBLIC 2cbdd 0 std::__ndk1::allocator<std::__ndk1::__list_node<google_breakpad::MappingEntry, void*> >::allocator()
PUBLIC 2cbed 0 std::__ndk1::__list_imp<google_breakpad::AppMemory, std::__ndk1::allocator<google_breakpad::AppMemory> >::__list_imp()
PUBLIC 2cc45 0 std::__ndk1::__list_node_base<google_breakpad::AppMemory, void*>::__list_node_base()
PUBLIC 2cc75 0 std::__ndk1::__compressed_pair<unsigned int, std::__ndk1::allocator<std::__ndk1::__list_node<google_breakpad::AppMemory, void*> > >::__compressed_pair<int, true>(int&&)
PUBLIC 2ccab 0 std::__ndk1::__compressed_pair_elem<std::__ndk1::allocator<std::__ndk1::__list_node<google_breakpad::AppMemory, void*> >, 1, true>::__compressed_pair_elem()
PUBLIC 2ccc5 0 std::__ndk1::allocator<std::__ndk1::__list_node<google_breakpad::AppMemory, void*> >::allocator()
PUBLIC 2ccd5 0 std::__ndk1::__vector_base<google_breakpad::ExceptionHandler*, std::__ndk1::allocator<google_breakpad::ExceptionHandler*> >::__vector_base()
PUBLIC 2cd35 0 std::__ndk1::__vector_base_common<true>::__vector_base_common()
PUBLIC 2cd43 0 std::__ndk1::__compressed_pair<google_breakpad::ExceptionHandler**, std::__ndk1::allocator<google_breakpad::ExceptionHandler*> >::__compressed_pair<decltype(nullptr), true>(decltype(nullptr)&&)
PUBLIC 2cd79 0 decltype(nullptr)&& std::__ndk1::forward<decltype(nullptr)>(std::__ndk1::remove_reference<decltype(nullptr)>::type&)
PUBLIC 2cd87 0 std::__ndk1::__compressed_pair_elem<google_breakpad::ExceptionHandler**, 0, false>::__compressed_pair_elem<decltype(nullptr), void>(decltype(nullptr)&&)
PUBLIC 2cdb3 0 std::__ndk1::__compressed_pair_elem<std::__ndk1::allocator<google_breakpad::ExceptionHandler*>, 1, true>::__compressed_pair_elem()
PUBLIC 2cdcd 0 std::__ndk1::allocator<google_breakpad::ExceptionHandler*>::allocator()
PUBLIC 2cddb 0 std::__ndk1::__vector_base<google_breakpad::ExceptionHandler*, std::__ndk1::allocator<google_breakpad::ExceptionHandler*> >::__end_cap()
PUBLIC 2cdf3 0 std::__ndk1::vector<google_breakpad::ExceptionHandler*, std::__ndk1::allocator<google_breakpad::ExceptionHandler*> >::__RAII_IncreaseAnnotator::__RAII_IncreaseAnnotator(std::__ndk1::vector<google_breakpad::ExceptionHandler*, std::__ndk1::allocator<google_breakpad::ExceptionHandler*> > const&, unsigned int)
PUBLIC 2ce15 0 void std::__ndk1::allocator_traits<std::__ndk1::allocator<google_breakpad::ExceptionHandler*> >::construct<google_breakpad::ExceptionHandler*, google_breakpad::ExceptionHandler*>(std::__ndk1::allocator<google_breakpad::ExceptionHandler*>&, google_breakpad::ExceptionHandler**, google_breakpad::ExceptionHandler*&&)
PUBLIC 2ce53 0 std::__ndk1::__vector_base<google_breakpad::ExceptionHandler*, std::__ndk1::allocator<google_breakpad::ExceptionHandler*> >::__alloc()
PUBLIC 2ce6b 0 google_breakpad::ExceptionHandler** std::__ndk1::__to_raw_pointer<google_breakpad::ExceptionHandler*>(google_breakpad::ExceptionHandler**)
PUBLIC 2ce79 0 std::__ndk1::remove_reference<google_breakpad::ExceptionHandler*&>::type&& std::__ndk1::move<google_breakpad::ExceptionHandler*&>(google_breakpad::ExceptionHandler*&)
PUBLIC 2ce87 0 std::__ndk1::vector<google_breakpad::ExceptionHandler*, std::__ndk1::allocator<google_breakpad::ExceptionHandler*> >::__RAII_IncreaseAnnotator::__done()
PUBLIC 2ce95 0 void std::__ndk1::vector<google_breakpad::ExceptionHandler*, std::__ndk1::allocator<google_breakpad::ExceptionHandler*> >::__push_back_slow_path<google_breakpad::ExceptionHandler*>(google_breakpad::ExceptionHandler*&&)
PUBLIC 2cf55 0 std::__ndk1::__compressed_pair<google_breakpad::ExceptionHandler**, std::__ndk1::allocator<google_breakpad::ExceptionHandler*> >::first()
PUBLIC 2cf6b 0 std::__ndk1::__compressed_pair_elem<google_breakpad::ExceptionHandler**, 0, false>::__get()
PUBLIC 2cf79 0 void std::__ndk1::allocator_traits<std::__ndk1::allocator<google_breakpad::ExceptionHandler*> >::__construct<google_breakpad::ExceptionHandler*, google_breakpad::ExceptionHandler*>(std::__ndk1::integral_constant<bool, true>, std::__ndk1::allocator<google_breakpad::ExceptionHandler*>&, google_breakpad::ExceptionHandler**, google_breakpad::ExceptionHandler*&&)
PUBLIC 2cfb7 0 google_breakpad::ExceptionHandler*&& std::__ndk1::forward<google_breakpad::ExceptionHandler*>(std::__ndk1::remove_reference<google_breakpad::ExceptionHandler*>::type&)
PUBLIC 2cfc5 0 void std::__ndk1::allocator<google_breakpad::ExceptionHandler*>::construct<google_breakpad::ExceptionHandler*, google_breakpad::ExceptionHandler*>(google_breakpad::ExceptionHandler**, google_breakpad::ExceptionHandler*&&)
PUBLIC 2cff7 0 std::__ndk1::__compressed_pair<google_breakpad::ExceptionHandler**, std::__ndk1::allocator<google_breakpad::ExceptionHandler*> >::second()
PUBLIC 2d00d 0 std::__ndk1::__compressed_pair_elem<std::__ndk1::allocator<google_breakpad::ExceptionHandler*>, 1, true>::__get()
PUBLIC 2d01d 0 std::__ndk1::vector<google_breakpad::ExceptionHandler*, std::__ndk1::allocator<google_breakpad::ExceptionHandler*> >::__recommend(unsigned int) const
PUBLIC 2d0a9 0 std::__ndk1::__split_buffer<google_breakpad::ExceptionHandler*, std::__ndk1::allocator<google_breakpad::ExceptionHandler*>&>::__split_buffer(unsigned int, unsigned int, std::__ndk1::allocator<google_breakpad::ExceptionHandler*>&)
PUBLIC 2d161 0 std::__ndk1::vector<google_breakpad::ExceptionHandler*, std::__ndk1::allocator<google_breakpad::ExceptionHandler*> >::__swap_out_circular_buffer(std::__ndk1::__split_buffer<google_breakpad::ExceptionHandler*, std::__ndk1::allocator<google_breakpad::ExceptionHandler*>&>&)
PUBLIC 2d1f1 0 std::__ndk1::__split_buffer<google_breakpad::ExceptionHandler*, std::__ndk1::allocator<google_breakpad::ExceptionHandler*>&>::~__split_buffer()
PUBLIC 2d245 0 std::__ndk1::vector<google_breakpad::ExceptionHandler*, std::__ndk1::allocator<google_breakpad::ExceptionHandler*> >::max_size() const
PUBLIC 2d2a9 0 std::__ndk1::__vector_base_common<true>::__throw_length_error() const
PUBLIC 2d2c1 0 std::__ndk1::vector<google_breakpad::ExceptionHandler*, std::__ndk1::allocator<google_breakpad::ExceptionHandler*> >::capacity() const
PUBLIC 2d2d7 0 unsigned int const& std::__ndk1::min<unsigned int>(unsigned int const&, unsigned int const&)
PUBLIC 2d2f5 0 std::__ndk1::allocator_traits<std::__ndk1::allocator<google_breakpad::ExceptionHandler*> >::max_size(std::__ndk1::allocator<google_breakpad::ExceptionHandler*> const&)
PUBLIC 2d30b 0 std::__ndk1::__vector_base<google_breakpad::ExceptionHandler*, std::__ndk1::allocator<google_breakpad::ExceptionHandler*> >::__alloc() const
PUBLIC 2d323 0 std::__ndk1::numeric_limits<int>::max()
PUBLIC 2d32d 0 unsigned int const& std::__ndk1::min<unsigned int, std::__ndk1::__less<unsigned int, unsigned int> >(unsigned int const&, unsigned int const&, std::__ndk1::__less<unsigned int, unsigned int>)
PUBLIC 2d395 0 std::__ndk1::allocator_traits<std::__ndk1::allocator<google_breakpad::ExceptionHandler*> >::__max_size(std::__ndk1::integral_constant<bool, true>, std::__ndk1::allocator<google_breakpad::ExceptionHandler*> const&)
PUBLIC 2d3ab 0 std::__ndk1::allocator<google_breakpad::ExceptionHandler*>::max_size() const
PUBLIC 2d3bb 0 std::__ndk1::__compressed_pair<google_breakpad::ExceptionHandler**, std::__ndk1::allocator<google_breakpad::ExceptionHandler*> >::second() const
PUBLIC 2d3d1 0 std::__ndk1::__compressed_pair_elem<std::__ndk1::allocator<google_breakpad::ExceptionHandler*>, 1, true>::__get() const
PUBLIC 2d3df 0 std::__ndk1::__libcpp_numeric_limits<int, true>::max()
PUBLIC 2d3e5 0 std::__ndk1::__vector_base<google_breakpad::ExceptionHandler*, std::__ndk1::allocator<google_breakpad::ExceptionHandler*> >::capacity() const
PUBLIC 2d40b 0 std::__ndk1::__vector_base<google_breakpad::ExceptionHandler*, std::__ndk1::allocator<google_breakpad::ExceptionHandler*> >::__end_cap() const
PUBLIC 2d423 0 std::__ndk1::__compressed_pair<google_breakpad::ExceptionHandler**, std::__ndk1::allocator<google_breakpad::ExceptionHandler*> >::first() const
PUBLIC 2d439 0 std::__ndk1::__compressed_pair_elem<google_breakpad::ExceptionHandler**, 0, false>::__get() const
PUBLIC 2d447 0 std::__ndk1::__compressed_pair<google_breakpad::ExceptionHandler**, std::__ndk1::allocator<google_breakpad::ExceptionHandler*>&>::__compressed_pair<decltype(nullptr), std::__ndk1::allocator<google_breakpad::ExceptionHandler*>&>(decltype(nullptr)&&, std::__ndk1::allocator<google_breakpad::ExceptionHandler*>&)
PUBLIC 2d49b 0 std::__ndk1::allocator_traits<std::__ndk1::allocator<google_breakpad::ExceptionHandler*> >::allocate(std::__ndk1::allocator<google_breakpad::ExceptionHandler*>&, unsigned int)
PUBLIC 2d4bf 0 std::__ndk1::__split_buffer<google_breakpad::ExceptionHandler*, std::__ndk1::allocator<google_breakpad::ExceptionHandler*>&>::__alloc()
PUBLIC 2d4d7 0 std::__ndk1::__split_buffer<google_breakpad::ExceptionHandler*, std::__ndk1::allocator<google_breakpad::ExceptionHandler*>&>::__end_cap()
PUBLIC 2d4ef 0 std::__ndk1::allocator<google_breakpad::ExceptionHandler*>& std::__ndk1::forward<std::__ndk1::allocator<google_breakpad::ExceptionHandler*>&>(std::__ndk1::remove_reference<std::__ndk1::allocator<google_breakpad::ExceptionHandler*>&>::type&)
PUBLIC 2d4fd 0 std::__ndk1::__compressed_pair_elem<std::__ndk1::allocator<google_breakpad::ExceptionHandler*>&, 1, false>::__compressed_pair_elem<std::__ndk1::allocator<google_breakpad::ExceptionHandler*>&, void>(std::__ndk1::allocator<google_breakpad::ExceptionHandler*>&)
PUBLIC 2d525 0 std::__ndk1::allocator<google_breakpad::ExceptionHandler*>::allocate(unsigned int, void const*)
PUBLIC 2d56d 0 std::__ndk1::__compressed_pair<google_breakpad::ExceptionHandler**, std::__ndk1::allocator<google_breakpad::ExceptionHandler*>&>::second()
PUBLIC 2d585 0 std::__ndk1::__compressed_pair_elem<std::__ndk1::allocator<google_breakpad::ExceptionHandler*>&, 1, false>::__get()
PUBLIC 2d595 0 std::__ndk1::__compressed_pair<google_breakpad::ExceptionHandler**, std::__ndk1::allocator<google_breakpad::ExceptionHandler*>&>::first()
PUBLIC 2d5ab 0 std::__ndk1::vector<google_breakpad::ExceptionHandler*, std::__ndk1::allocator<google_breakpad::ExceptionHandler*> >::__annotate_delete() const
PUBLIC 2d61d 0 _ZNSt6__ndk116allocator_traitsINS_9allocatorIPN15google_breakpad16ExceptionHandlerEEEE20__construct_backwardIS4_EENS_9enable_ifIXaaooL_ZNS_17integral_constantIbLb1EE5valueEEntsr15__has_constructIS5_PT_SB_EE5valuesr31is_trivially_move_constructibleISB_EE5valueEvE4typeERS5_SC_SC_RSC_
PUBLIC 2d671 0 _ZNSt6__ndk14swapIPPN15google_breakpad16ExceptionHandlerEEENS_9enable_ifIXaasr21is_move_constructibleIT_EE5valuesr18is_move_assignableIS6_EE5valueEvE4typeERS6_S9_
PUBLIC 2d6cd 0 std::__ndk1::vector<google_breakpad::ExceptionHandler*, std::__ndk1::allocator<google_breakpad::ExceptionHandler*> >::__annotate_new(unsigned int) const
PUBLIC 2d73b 0 std::__ndk1::vector<google_breakpad::ExceptionHandler*, std::__ndk1::allocator<google_breakpad::ExceptionHandler*> >::__invalidate_all_iterators()
PUBLIC 2d747 0 std::__ndk1::vector<google_breakpad::ExceptionHandler*, std::__ndk1::allocator<google_breakpad::ExceptionHandler*> >::__annotate_contiguous_container(void const*, void const*, void const*, void const*) const
PUBLIC 2d77b 0 std::__ndk1::vector<google_breakpad::ExceptionHandler*, std::__ndk1::allocator<google_breakpad::ExceptionHandler*> >::data() const
PUBLIC 2d793 0 std::__ndk1::remove_reference<google_breakpad::ExceptionHandler**&>::type&& std::__ndk1::move<google_breakpad::ExceptionHandler**&>(google_breakpad::ExceptionHandler**&)
PUBLIC 2d7a1 0 std::__ndk1::__split_buffer<google_breakpad::ExceptionHandler*, std::__ndk1::allocator<google_breakpad::ExceptionHandler*>&>::clear()
PUBLIC 2d7bb 0 std::__ndk1::allocator_traits<std::__ndk1::allocator<google_breakpad::ExceptionHandler*> >::deallocate(std::__ndk1::allocator<google_breakpad::ExceptionHandler*>&, google_breakpad::ExceptionHandler**, unsigned int)
PUBLIC 2d7e5 0 std::__ndk1::__split_buffer<google_breakpad::ExceptionHandler*, std::__ndk1::allocator<google_breakpad::ExceptionHandler*>&>::capacity() const
PUBLIC 2d80b 0 std::__ndk1::__split_buffer<google_breakpad::ExceptionHandler*, std::__ndk1::allocator<google_breakpad::ExceptionHandler*>&>::__destruct_at_end(google_breakpad::ExceptionHandler**)
PUBLIC 2d829 0 std::__ndk1::__split_buffer<google_breakpad::ExceptionHandler*, std::__ndk1::allocator<google_breakpad::ExceptionHandler*>&>::__destruct_at_end(google_breakpad::ExceptionHandler**, std::__ndk1::integral_constant<bool, false>)
PUBLIC 2d883 0 void std::__ndk1::allocator_traits<std::__ndk1::allocator<google_breakpad::ExceptionHandler*> >::destroy<google_breakpad::ExceptionHandler*>(std::__ndk1::allocator<google_breakpad::ExceptionHandler*>&, google_breakpad::ExceptionHandler**)
PUBLIC 2d8a1 0 void std::__ndk1::allocator_traits<std::__ndk1::allocator<google_breakpad::ExceptionHandler*> >::__destroy<google_breakpad::ExceptionHandler*>(std::__ndk1::integral_constant<bool, true>, std::__ndk1::allocator<google_breakpad::ExceptionHandler*>&, google_breakpad::ExceptionHandler**)
PUBLIC 2d8bf 0 std::__ndk1::allocator<google_breakpad::ExceptionHandler*>::destroy(google_breakpad::ExceptionHandler**)
PUBLIC 2d8d1 0 std::__ndk1::allocator<google_breakpad::ExceptionHandler*>::deallocate(google_breakpad::ExceptionHandler**, unsigned int)
PUBLIC 2d905 0 std::__ndk1::__split_buffer<google_breakpad::ExceptionHandler*, std::__ndk1::allocator<google_breakpad::ExceptionHandler*>&>::__end_cap() const
PUBLIC 2d91d 0 std::__ndk1::__compressed_pair<google_breakpad::ExceptionHandler**, std::__ndk1::allocator<google_breakpad::ExceptionHandler*>&>::first() const
PUBLIC 2d935 0 std::__ndk1::vector<google_breakpad::ExceptionHandler*, std::__ndk1::allocator<google_breakpad::ExceptionHandler*> >::__make_iter(google_breakpad::ExceptionHandler**)
PUBLIC 2d97d 0 std::__ndk1::__wrap_iter<google_breakpad::ExceptionHandler**>::__wrap_iter(google_breakpad::ExceptionHandler**)
PUBLIC 2d995 0 bool std::__ndk1::operator!=<google_breakpad::ExceptionHandler**>(std::__ndk1::__wrap_iter<google_breakpad::ExceptionHandler**> const&, std::__ndk1::__wrap_iter<google_breakpad::ExceptionHandler**> const&)
PUBLIC 2d9b7 0 std::__ndk1::__wrap_iter<google_breakpad::ExceptionHandler**>::operator*() const
PUBLIC 2d9c7 0 std::__ndk1::__wrap_iter<google_breakpad::ExceptionHandler**>::operator++()
PUBLIC 2d9db 0 bool std::__ndk1::operator==<google_breakpad::ExceptionHandler**, google_breakpad::ExceptionHandler**>(std::__ndk1::__wrap_iter<google_breakpad::ExceptionHandler**> const&, std::__ndk1::__wrap_iter<google_breakpad::ExceptionHandler**> const&)
PUBLIC 2da0b 0 decltype ((({parm#1}.base)())-(({parm#2}.base)())) std::__ndk1::operator-<google_breakpad::ExceptionHandler* const*, google_breakpad::ExceptionHandler* const*>(std::__ndk1::__wrap_iter<google_breakpad::ExceptionHandler* const*> const&, std::__ndk1::__wrap_iter<google_breakpad::ExceptionHandler* const*> const&)
PUBLIC 2da37 0 std::__ndk1::vector<google_breakpad::ExceptionHandler*, std::__ndk1::allocator<google_breakpad::ExceptionHandler*> >::cbegin() const
PUBLIC 2da51 0 std::__ndk1::vector<google_breakpad::ExceptionHandler*, std::__ndk1::allocator<google_breakpad::ExceptionHandler*> >::__destruct_at_end(google_breakpad::ExceptionHandler**)
PUBLIC 2da93 0 google_breakpad::ExceptionHandler** std::__ndk1::move<google_breakpad::ExceptionHandler**, google_breakpad::ExceptionHandler**>(google_breakpad::ExceptionHandler**, google_breakpad::ExceptionHandler**, google_breakpad::ExceptionHandler**)
PUBLIC 2dadb 0 std::__ndk1::vector<google_breakpad::ExceptionHandler*, std::__ndk1::allocator<google_breakpad::ExceptionHandler*> >::__invalidate_iterators_past(google_breakpad::ExceptionHandler**)
PUBLIC 2daed 0 std::__ndk1::__wrap_iter<google_breakpad::ExceptionHandler* const*>::base() const
PUBLIC 2dafd 0 std::__ndk1::vector<google_breakpad::ExceptionHandler*, std::__ndk1::allocator<google_breakpad::ExceptionHandler*> >::begin() const
PUBLIC 2db1d 0 std::__ndk1::vector<google_breakpad::ExceptionHandler*, std::__ndk1::allocator<google_breakpad::ExceptionHandler*> >::__make_iter(google_breakpad::ExceptionHandler* const*) const
PUBLIC 2db65 0 std::__ndk1::__wrap_iter<google_breakpad::ExceptionHandler* const*>::__wrap_iter(google_breakpad::ExceptionHandler* const*)
PUBLIC 2db7d 0 std::__ndk1::__vector_base<google_breakpad::ExceptionHandler*, std::__ndk1::allocator<google_breakpad::ExceptionHandler*> >::__destruct_at_end(google_breakpad::ExceptionHandler**)
PUBLIC 2dbdf 0 std::__ndk1::vector<google_breakpad::ExceptionHandler*, std::__ndk1::allocator<google_breakpad::ExceptionHandler*> >::__annotate_shrink(unsigned int) const
PUBLIC 2dc4d 0 _ZNSt6__ndk16__moveIPN15google_breakpad16ExceptionHandlerES3_EENS_9enable_ifIXaasr7is_sameINS_12remove_constIT_E4typeET0_EE5valuesr28is_trivially_copy_assignableIS9_EE5valueEPS9_E4typeEPS6_SD_SA_
PUBLIC 2dc95 0 google_breakpad::ExceptionHandler** std::__ndk1::__unwrap_iter<google_breakpad::ExceptionHandler**>(google_breakpad::ExceptionHandler**)
PUBLIC 2dca3 0 std::__ndk1::__vector_base<google_breakpad::ExceptionHandler*, std::__ndk1::allocator<google_breakpad::ExceptionHandler*> >::~__vector_base()
PUBLIC 2dcf1 0 std::__ndk1::__vector_base<google_breakpad::ExceptionHandler*, std::__ndk1::allocator<google_breakpad::ExceptionHandler*> >::clear()
PUBLIC 2dd0d 0 std::__ndk1::list<google_breakpad::MappingEntry, std::__ndk1::allocator<google_breakpad::MappingEntry> >::__allocate_node(std::__ndk1::allocator<std::__ndk1::__list_node<google_breakpad::MappingEntry, void*> >&)
PUBLIC 2dd89 0 void std::__ndk1::allocator_traits<std::__ndk1::allocator<std::__ndk1::__list_node<google_breakpad::MappingEntry, void*> > >::construct<google_breakpad::MappingEntry, google_breakpad::MappingEntry const&>(std::__ndk1::allocator<std::__ndk1::__list_node<google_breakpad::MappingEntry, void*> >&, google_breakpad::MappingEntry*, google_breakpad::MappingEntry const&)
PUBLIC 2ddc7 0 std::__ndk1::unique_ptr<std::__ndk1::__list_node<google_breakpad::MappingEntry, void*>, std::__ndk1::__allocator_destructor<std::__ndk1::allocator<std::__ndk1::__list_node<google_breakpad::MappingEntry, void*> > > >::operator->() const
PUBLIC 2dddf 0 std::__ndk1::list<google_breakpad::MappingEntry, std::__ndk1::allocator<google_breakpad::MappingEntry> >::__link_nodes_at_back(std::__ndk1::__list_node_base<google_breakpad::MappingEntry, void*>*, std::__ndk1::__list_node_base<google_breakpad::MappingEntry, void*>*)
PUBLIC 2de1d 0 std::__ndk1::unique_ptr<std::__ndk1::__list_node<google_breakpad::MappingEntry, void*>, std::__ndk1::__allocator_destructor<std::__ndk1::allocator<std::__ndk1::__list_node<google_breakpad::MappingEntry, void*> > > >::get() const
PUBLIC 2de35 0 std::__ndk1::__list_node<google_breakpad::MappingEntry, void*>::__as_link()
PUBLIC 2de4b 0 std::__ndk1::unique_ptr<std::__ndk1::__list_node<google_breakpad::MappingEntry, void*>, std::__ndk1::__allocator_destructor<std::__ndk1::allocator<std::__ndk1::__list_node<google_breakpad::MappingEntry, void*> > > >::release()
PUBLIC 2de73 0 std::__ndk1::unique_ptr<std::__ndk1::__list_node<google_breakpad::MappingEntry, void*>, std::__ndk1::__allocator_destructor<std::__ndk1::allocator<std::__ndk1::__list_node<google_breakpad::MappingEntry, void*> > > >::~unique_ptr()
PUBLIC 2de91 0 std::__ndk1::allocator_traits<std::__ndk1::allocator<std::__ndk1::__list_node<google_breakpad::MappingEntry, void*> > >::allocate(std::__ndk1::allocator<std::__ndk1::__list_node<google_breakpad::MappingEntry, void*> >&, unsigned int)
PUBLIC 2deb5 0 std::__ndk1::__allocator_destructor<std::__ndk1::allocator<std::__ndk1::__list_node<google_breakpad::MappingEntry, void*> > >::__allocator_destructor(std::__ndk1::allocator<std::__ndk1::__list_node<google_breakpad::MappingEntry, void*> >&, unsigned int)
PUBLIC 2dee1 0 std::__ndk1::unique_ptr<std::__ndk1::__list_node<google_breakpad::MappingEntry, void*>, std::__ndk1::__allocator_destructor<std::__ndk1::allocator<std::__ndk1::__list_node<google_breakpad::MappingEntry, void*> > > >::unique_ptr<true, void>(std::__ndk1::__list_node<google_breakpad::MappingEntry, void*>*, std::__ndk1::__dependent_type<std::__ndk1::__unique_ptr_deleter_sfinae<std::__ndk1::__allocator_destructor<std::__ndk1::allocator<std::__ndk1::__list_node<google_breakpad::MappingEntry, void*> > > >, true>::__good_rval_ref_type)
PUBLIC 2df4d 0 std::__ndk1::allocator<std::__ndk1::__list_node<google_breakpad::MappingEntry, void*> >::allocate(unsigned int, void const*)
PUBLIC 2df99 0 std::__ndk1::allocator<std::__ndk1::__list_node<google_breakpad::MappingEntry, void*> >::max_size() const
PUBLIC 2dfad 0 std::__ndk1::remove_reference<std::__ndk1::__allocator_destructor<std::__ndk1::allocator<std::__ndk1::__list_node<google_breakpad::MappingEntry, void*> > >&>::type&& std::__ndk1::move<std::__ndk1::__allocator_destructor<std::__ndk1::allocator<std::__ndk1::__list_node<google_breakpad::MappingEntry, void*> > >&>(std::__ndk1::__allocator_destructor<std::__ndk1::allocator<std::__ndk1::__list_node<google_breakpad::MappingEntry, void*> > >&)
PUBLIC 2dfbb 0 std::__ndk1::__compressed_pair<std::__ndk1::__list_node<google_breakpad::MappingEntry, void*>*, std::__ndk1::__allocator_destructor<std::__ndk1::allocator<std::__ndk1::__list_node<google_breakpad::MappingEntry, void*> > > >::__compressed_pair<std::__ndk1::__list_node<google_breakpad::MappingEntry, void*>*&, std::__ndk1::__allocator_destructor<std::__ndk1::allocator<std::__ndk1::__list_node<google_breakpad::MappingEntry, void*> > > >(std::__ndk1::__list_node<google_breakpad::MappingEntry, void*>*&, std::__ndk1::__allocator_destructor<std::__ndk1::allocator<std::__ndk1::__list_node<google_breakpad::MappingEntry, void*> > >&&)
PUBLIC 2e00f 0 std::__ndk1::__list_node<google_breakpad::MappingEntry, void*>*& std::__ndk1::forward<std::__ndk1::__list_node<google_breakpad::MappingEntry, void*>*&>(std::__ndk1::remove_reference<std::__ndk1::__list_node<google_breakpad::MappingEntry, void*>*&>::type&)
PUBLIC 2e01d 0 std::__ndk1::__compressed_pair_elem<std::__ndk1::__list_node<google_breakpad::MappingEntry, void*>*, 0, false>::__compressed_pair_elem<std::__ndk1::__list_node<google_breakpad::MappingEntry, void*>*&, void>(std::__ndk1::__list_node<google_breakpad::MappingEntry, void*>*&)
PUBLIC 2e047 0 std::__ndk1::__allocator_destructor<std::__ndk1::allocator<std::__ndk1::__list_node<google_breakpad::MappingEntry, void*> > >&& std::__ndk1::forward<std::__ndk1::__allocator_destructor<std::__ndk1::allocator<std::__ndk1::__list_node<google_breakpad::MappingEntry, void*> > > >(std::__ndk1::remove_reference<std::__ndk1::__allocator_destructor<std::__ndk1::allocator<std::__ndk1::__list_node<google_breakpad::MappingEntry, void*> > > >::type&)
PUBLIC 2e055 0 std::__ndk1::__compressed_pair_elem<std::__ndk1::__allocator_destructor<std::__ndk1::allocator<std::__ndk1::__list_node<google_breakpad::MappingEntry, void*> > >, 1, false>::__compressed_pair_elem<std::__ndk1::__allocator_destructor<std::__ndk1::allocator<std::__ndk1::__list_node<google_breakpad::MappingEntry, void*> > >, void>(std::__ndk1::__allocator_destructor<std::__ndk1::allocator<std::__ndk1::__list_node<google_breakpad::MappingEntry, void*> > >&&)
PUBLIC 2e083 0 void std::__ndk1::allocator_traits<std::__ndk1::allocator<std::__ndk1::__list_node<google_breakpad::MappingEntry, void*> > >::__construct<google_breakpad::MappingEntry, google_breakpad::MappingEntry const&>(std::__ndk1::integral_constant<bool, true>, std::__ndk1::allocator<std::__ndk1::__list_node<google_breakpad::MappingEntry, void*> >&, google_breakpad::MappingEntry*, google_breakpad::MappingEntry const&)
PUBLIC 2e0c1 0 google_breakpad::MappingEntry const& std::__ndk1::forward<google_breakpad::MappingEntry const&>(std::__ndk1::remove_reference<google_breakpad::MappingEntry const&>::type&)
PUBLIC 2e0cf 0 void std::__ndk1::allocator<std::__ndk1::__list_node<google_breakpad::MappingEntry, void*> >::construct<google_breakpad::MappingEntry, google_breakpad::MappingEntry const&>(google_breakpad::MappingEntry*, google_breakpad::MappingEntry const&)
PUBLIC 2e10b 0 std::__ndk1::__compressed_pair<std::__ndk1::__list_node<google_breakpad::MappingEntry, void*>*, std::__ndk1::__allocator_destructor<std::__ndk1::allocator<std::__ndk1::__list_node<google_breakpad::MappingEntry, void*> > > >::first() const
PUBLIC 2e121 0 std::__ndk1::__compressed_pair_elem<std::__ndk1::__list_node<google_breakpad::MappingEntry, void*>*, 0, false>::__get() const
PUBLIC 2e12f 0 std::__ndk1::__compressed_pair<std::__ndk1::__list_node<google_breakpad::MappingEntry, void*>*, std::__ndk1::__allocator_destructor<std::__ndk1::allocator<std::__ndk1::__list_node<google_breakpad::MappingEntry, void*> > > >::first()
PUBLIC 2e145 0 std::__ndk1::__compressed_pair_elem<std::__ndk1::__list_node<google_breakpad::MappingEntry, void*>*, 0, false>::__get()
PUBLIC 2e153 0 std::__ndk1::unique_ptr<std::__ndk1::__list_node<google_breakpad::MappingEntry, void*>, std::__ndk1::__allocator_destructor<std::__ndk1::allocator<std::__ndk1::__list_node<google_breakpad::MappingEntry, void*> > > >::reset(std::__ndk1::__list_node<google_breakpad::MappingEntry, void*>*)
PUBLIC 2e19b 0 std::__ndk1::__compressed_pair<std::__ndk1::__list_node<google_breakpad::MappingEntry, void*>*, std::__ndk1::__allocator_destructor<std::__ndk1::allocator<std::__ndk1::__list_node<google_breakpad::MappingEntry, void*> > > >::second()
PUBLIC 2e1b3 0 std::__ndk1::__allocator_destructor<std::__ndk1::allocator<std::__ndk1::__list_node<google_breakpad::MappingEntry, void*> > >::operator()(std::__ndk1::__list_node<google_breakpad::MappingEntry, void*>*)
PUBLIC 2e1e1 0 std::__ndk1::__compressed_pair_elem<std::__ndk1::__allocator_destructor<std::__ndk1::allocator<std::__ndk1::__list_node<google_breakpad::MappingEntry, void*> > >, 1, false>::__get()
PUBLIC 2e1f1 0 std::__ndk1::__list_imp<google_breakpad::AppMemory, std::__ndk1::allocator<google_breakpad::AppMemory> >::begin()
PUBLIC 2e239 0 std::__ndk1::__list_iterator<google_breakpad::AppMemory, void*>::__list_iterator(std::__ndk1::__list_node_base<google_breakpad::AppMemory, void*>*)
PUBLIC 2e251 0 std::__ndk1::__list_imp<google_breakpad::AppMemory, std::__ndk1::allocator<google_breakpad::AppMemory> >::end()
PUBLIC 2e299 0 std::__ndk1::__list_iterator<google_breakpad::AppMemory, void*>::operator*() const
PUBLIC 2e2b3 0 google_breakpad::AppMemory::operator==(void const*) const
PUBLIC 2e2d3 0 std::__ndk1::__list_iterator<google_breakpad::AppMemory, void*>::operator++()
PUBLIC 2e2e7 0 std::__ndk1::operator==(std::__ndk1::__list_iterator<google_breakpad::AppMemory, void*> const&, std::__ndk1::__list_iterator<google_breakpad::AppMemory, void*> const&)
PUBLIC 2e309 0 std::__ndk1::list<google_breakpad::AppMemory, std::__ndk1::allocator<google_breakpad::AppMemory> >::__allocate_node(std::__ndk1::allocator<std::__ndk1::__list_node<google_breakpad::AppMemory, void*> >&)
PUBLIC 2e385 0 void std::__ndk1::allocator_traits<std::__ndk1::allocator<std::__ndk1::__list_node<google_breakpad::AppMemory, void*> > >::construct<google_breakpad::AppMemory, google_breakpad::AppMemory const&>(std::__ndk1::allocator<std::__ndk1::__list_node<google_breakpad::AppMemory, void*> >&, google_breakpad::AppMemory*, google_breakpad::AppMemory const&)
PUBLIC 2e3c3 0 std::__ndk1::unique_ptr<std::__ndk1::__list_node<google_breakpad::AppMemory, void*>, std::__ndk1::__allocator_destructor<std::__ndk1::allocator<std::__ndk1::__list_node<google_breakpad::AppMemory, void*> > > >::operator->() const
PUBLIC 2e3db 0 std::__ndk1::list<google_breakpad::AppMemory, std::__ndk1::allocator<google_breakpad::AppMemory> >::__link_nodes_at_back(std::__ndk1::__list_node_base<google_breakpad::AppMemory, void*>*, std::__ndk1::__list_node_base<google_breakpad::AppMemory, void*>*)
PUBLIC 2e419 0 std::__ndk1::unique_ptr<std::__ndk1::__list_node<google_breakpad::AppMemory, void*>, std::__ndk1::__allocator_destructor<std::__ndk1::allocator<std::__ndk1::__list_node<google_breakpad::AppMemory, void*> > > >::get() const
PUBLIC 2e431 0 std::__ndk1::__list_node<google_breakpad::AppMemory, void*>::__as_link()
PUBLIC 2e447 0 std::__ndk1::unique_ptr<std::__ndk1::__list_node<google_breakpad::AppMemory, void*>, std::__ndk1::__allocator_destructor<std::__ndk1::allocator<std::__ndk1::__list_node<google_breakpad::AppMemory, void*> > > >::release()
PUBLIC 2e46f 0 std::__ndk1::unique_ptr<std::__ndk1::__list_node<google_breakpad::AppMemory, void*>, std::__ndk1::__allocator_destructor<std::__ndk1::allocator<std::__ndk1::__list_node<google_breakpad::AppMemory, void*> > > >::~unique_ptr()
PUBLIC 2e48d 0 std::__ndk1::allocator_traits<std::__ndk1::allocator<std::__ndk1::__list_node<google_breakpad::AppMemory, void*> > >::allocate(std::__ndk1::allocator<std::__ndk1::__list_node<google_breakpad::AppMemory, void*> >&, unsigned int)
PUBLIC 2e4b1 0 std::__ndk1::__allocator_destructor<std::__ndk1::allocator<std::__ndk1::__list_node<google_breakpad::AppMemory, void*> > >::__allocator_destructor(std::__ndk1::allocator<std::__ndk1::__list_node<google_breakpad::AppMemory, void*> >&, unsigned int)
PUBLIC 2e4dd 0 std::__ndk1::unique_ptr<std::__ndk1::__list_node<google_breakpad::AppMemory, void*>, std::__ndk1::__allocator_destructor<std::__ndk1::allocator<std::__ndk1::__list_node<google_breakpad::AppMemory, void*> > > >::unique_ptr<true, void>(std::__ndk1::__list_node<google_breakpad::AppMemory, void*>*, std::__ndk1::__dependent_type<std::__ndk1::__unique_ptr_deleter_sfinae<std::__ndk1::__allocator_destructor<std::__ndk1::allocator<std::__ndk1::__list_node<google_breakpad::AppMemory, void*> > > >, true>::__good_rval_ref_type)
PUBLIC 2e549 0 std::__ndk1::allocator<std::__ndk1::__list_node<google_breakpad::AppMemory, void*> >::allocate(unsigned int, void const*)
PUBLIC 2e591 0 std::__ndk1::allocator<std::__ndk1::__list_node<google_breakpad::AppMemory, void*> >::max_size() const
PUBLIC 2e5a1 0 std::__ndk1::remove_reference<std::__ndk1::__allocator_destructor<std::__ndk1::allocator<std::__ndk1::__list_node<google_breakpad::AppMemory, void*> > >&>::type&& std::__ndk1::move<std::__ndk1::__allocator_destructor<std::__ndk1::allocator<std::__ndk1::__list_node<google_breakpad::AppMemory, void*> > >&>(std::__ndk1::__allocator_destructor<std::__ndk1::allocator<std::__ndk1::__list_node<google_breakpad::AppMemory, void*> > >&)
PUBLIC 2e5af 0 std::__ndk1::__compressed_pair<std::__ndk1::__list_node<google_breakpad::AppMemory, void*>*, std::__ndk1::__allocator_destructor<std::__ndk1::allocator<std::__ndk1::__list_node<google_breakpad::AppMemory, void*> > > >::__compressed_pair<std::__ndk1::__list_node<google_breakpad::AppMemory, void*>*&, std::__ndk1::__allocator_destructor<std::__ndk1::allocator<std::__ndk1::__list_node<google_breakpad::AppMemory, void*> > > >(std::__ndk1::__list_node<google_breakpad::AppMemory, void*>*&, std::__ndk1::__allocator_destructor<std::__ndk1::allocator<std::__ndk1::__list_node<google_breakpad::AppMemory, void*> > >&&)
PUBLIC 2e603 0 std::__ndk1::__list_node<google_breakpad::AppMemory, void*>*& std::__ndk1::forward<std::__ndk1::__list_node<google_breakpad::AppMemory, void*>*&>(std::__ndk1::remove_reference<std::__ndk1::__list_node<google_breakpad::AppMemory, void*>*&>::type&)
PUBLIC 2e611 0 std::__ndk1::__compressed_pair_elem<std::__ndk1::__list_node<google_breakpad::AppMemory, void*>*, 0, false>::__compressed_pair_elem<std::__ndk1::__list_node<google_breakpad::AppMemory, void*>*&, void>(std::__ndk1::__list_node<google_breakpad::AppMemory, void*>*&)
PUBLIC 2e63b 0 std::__ndk1::__allocator_destructor<std::__ndk1::allocator<std::__ndk1::__list_node<google_breakpad::AppMemory, void*> > >&& std::__ndk1::forward<std::__ndk1::__allocator_destructor<std::__ndk1::allocator<std::__ndk1::__list_node<google_breakpad::AppMemory, void*> > > >(std::__ndk1::remove_reference<std::__ndk1::__allocator_destructor<std::__ndk1::allocator<std::__ndk1::__list_node<google_breakpad::AppMemory, void*> > > >::type&)
PUBLIC 2e649 0 std::__ndk1::__compressed_pair_elem<std::__ndk1::__allocator_destructor<std::__ndk1::allocator<std::__ndk1::__list_node<google_breakpad::AppMemory, void*> > >, 1, false>::__compressed_pair_elem<std::__ndk1::__allocator_destructor<std::__ndk1::allocator<std::__ndk1::__list_node<google_breakpad::AppMemory, void*> > >, void>(std::__ndk1::__allocator_destructor<std::__ndk1::allocator<std::__ndk1::__list_node<google_breakpad::AppMemory, void*> > >&&)
PUBLIC 2e677 0 void std::__ndk1::allocator_traits<std::__ndk1::allocator<std::__ndk1::__list_node<google_breakpad::AppMemory, void*> > >::__construct<google_breakpad::AppMemory, google_breakpad::AppMemory const&>(std::__ndk1::integral_constant<bool, true>, std::__ndk1::allocator<std::__ndk1::__list_node<google_breakpad::AppMemory, void*> >&, google_breakpad::AppMemory*, google_breakpad::AppMemory const&)
PUBLIC 2e6b5 0 google_breakpad::AppMemory const& std::__ndk1::forward<google_breakpad::AppMemory const&>(std::__ndk1::remove_reference<google_breakpad::AppMemory const&>::type&)
PUBLIC 2e6c3 0 void std::__ndk1::allocator<std::__ndk1::__list_node<google_breakpad::AppMemory, void*> >::construct<google_breakpad::AppMemory, google_breakpad::AppMemory const&>(google_breakpad::AppMemory*, google_breakpad::AppMemory const&)
PUBLIC 2e6f9 0 std::__ndk1::__compressed_pair<std::__ndk1::__list_node<google_breakpad::AppMemory, void*>*, std::__ndk1::__allocator_destructor<std::__ndk1::allocator<std::__ndk1::__list_node<google_breakpad::AppMemory, void*> > > >::first() const
PUBLIC 2e70f 0 std::__ndk1::__compressed_pair_elem<std::__ndk1::__list_node<google_breakpad::AppMemory, void*>*, 0, false>::__get() const
PUBLIC 2e71d 0 std::__ndk1::__compressed_pair<std::__ndk1::__list_node<google_breakpad::AppMemory, void*>*, std::__ndk1::__allocator_destructor<std::__ndk1::allocator<std::__ndk1::__list_node<google_breakpad::AppMemory, void*> > > >::first()
PUBLIC 2e733 0 std::__ndk1::__compressed_pair_elem<std::__ndk1::__list_node<google_breakpad::AppMemory, void*>*, 0, false>::__get()
PUBLIC 2e741 0 std::__ndk1::unique_ptr<std::__ndk1::__list_node<google_breakpad::AppMemory, void*>, std::__ndk1::__allocator_destructor<std::__ndk1::allocator<std::__ndk1::__list_node<google_breakpad::AppMemory, void*> > > >::reset(std::__ndk1::__list_node<google_breakpad::AppMemory, void*>*)
PUBLIC 2e789 0 std::__ndk1::__compressed_pair<std::__ndk1::__list_node<google_breakpad::AppMemory, void*>*, std::__ndk1::__allocator_destructor<std::__ndk1::allocator<std::__ndk1::__list_node<google_breakpad::AppMemory, void*> > > >::second()
PUBLIC 2e7a1 0 std::__ndk1::__allocator_destructor<std::__ndk1::allocator<std::__ndk1::__list_node<google_breakpad::AppMemory, void*> > >::operator()(std::__ndk1::__list_node<google_breakpad::AppMemory, void*>*)
PUBLIC 2e7cf 0 std::__ndk1::__compressed_pair_elem<std::__ndk1::__allocator_destructor<std::__ndk1::allocator<std::__ndk1::__list_node<google_breakpad::AppMemory, void*> > >, 1, false>::__get()
PUBLIC 2e7dd 0 google_breakpad::MinidumpDescriptor::MinidumpDescriptor(google_breakpad::MinidumpDescriptor const&)
PUBLIC 2e8bd 0 google_breakpad::MinidumpDescriptor::operator=(google_breakpad::MinidumpDescriptor const&)
PUBLIC 2e98d 0 std::__ndk1::basic_string<char, std::__ndk1::char_traits<char>, std::__ndk1::allocator<char> >::operator=(std::__ndk1::basic_string<char, std::__ndk1::char_traits<char>, std::__ndk1::allocator<char> > const&)
PUBLIC 2e9dd 0 std::__ndk1::basic_string<char, std::__ndk1::char_traits<char>, std::__ndk1::allocator<char> >::clear()
PUBLIC 2ea75 0 google_breakpad::MinidumpDescriptor::UpdatePath()
PUBLIC 2ebb9 0 std::__ndk1::basic_string<char, std::__ndk1::char_traits<char>, std::__ndk1::allocator<char> >::operator=(std::__ndk1::basic_string<char, std::__ndk1::char_traits<char>, std::__ndk1::allocator<char> >&&)
PUBLIC 2ebdb 0 std::__ndk1::basic_string<char, std::__ndk1::char_traits<char>, std::__ndk1::allocator<char> >::__copy_assign_alloc(std::__ndk1::basic_string<char, std::__ndk1::char_traits<char>, std::__ndk1::allocator<char> > const&)
PUBLIC 2ebf9 0 std::__ndk1::basic_string<char, std::__ndk1::char_traits<char>, std::__ndk1::allocator<char> >::__copy_assign_alloc(std::__ndk1::basic_string<char, std::__ndk1::char_traits<char>, std::__ndk1::allocator<char> > const&, std::__ndk1::integral_constant<bool, false>)
PUBLIC 2ec0b 0 std::__ndk1::basic_string<char, std::__ndk1::char_traits<char>, std::__ndk1::allocator<char> >::__move_assign(std::__ndk1::basic_string<char, std::__ndk1::char_traits<char>, std::__ndk1::allocator<char> >&, std::__ndk1::integral_constant<bool, true>)
PUBLIC 2ec59 0 std::__ndk1::basic_string<char, std::__ndk1::char_traits<char>, std::__ndk1::allocator<char> >::__clear_and_shrink()
PUBLIC 2ecbd 0 std::__ndk1::basic_string<char, std::__ndk1::char_traits<char>, std::__ndk1::allocator<char> >::__move_assign_alloc(std::__ndk1::basic_string<char, std::__ndk1::char_traits<char>, std::__ndk1::allocator<char> >&)
PUBLIC 2ecdb 0 std::__ndk1::basic_string<char, std::__ndk1::char_traits<char>, std::__ndk1::allocator<char> >::__move_assign_alloc(std::__ndk1::basic_string<char, std::__ndk1::char_traits<char>, std::__ndk1::allocator<char> >&, std::__ndk1::integral_constant<bool, true>)
PUBLIC 2ed0d 0 std::__ndk1::remove_reference<std::__ndk1::allocator<char>&>::type&& std::__ndk1::move<std::__ndk1::allocator<char>&>(std::__ndk1::allocator<char>&)
PUBLIC 2ed1d 0 logger::initializeCrashLogWriter()
PUBLIC 2ed61 0 logger::writeToCrashLog(char const*)
PUBLIC 2edc1 0 logger::write(char const*, unsigned int)
PUBLIC 2edf5 0 google_breakpad::WriteMicrodump(int, void const*, unsigned int, std::__ndk1::list<google_breakpad::MappingEntry, std::__ndk1::allocator<google_breakpad::MappingEntry> > const&, bool, unsigned int, bool, google_breakpad::MicrodumpExtraInfo const&)
PUBLIC 2ef4d 0 google_breakpad::LinuxDumper::set_crash_thread(int)
PUBLIC 2ef65 0 (anonymous namespace)::MicrodumpWriter::MicrodumpWriter(google_breakpad::ExceptionHandler::CrashContext const*, std::__ndk1::list<google_breakpad::MappingEntry, std::__ndk1::allocator<google_breakpad::MappingEntry> > const&, bool, unsigned int, bool, google_breakpad::MicrodumpExtraInfo const&, google_breakpad::LinuxDumper*)
PUBLIC 2f041 0 (anonymous namespace)::MicrodumpWriter::Init()
PUBLIC 2f0ad 0 (anonymous namespace)::MicrodumpWriter::Dump()
PUBLIC 2f145 0 (anonymous namespace)::MicrodumpWriter::~MicrodumpWriter()
PUBLIC 2f16f 0 google_breakpad::LinuxPtraceDumper::~LinuxPtraceDumper()
PUBLIC 2f189 0 (anonymous namespace)::MicrodumpWriter::Alloc(unsigned int)
PUBLIC 2f1ad 0 google_breakpad::LinuxDumper::allocator()
PUBLIC 2f1bd 0 sys_mmap(void*, unsigned int, int, int, int, long long)
PUBLIC 2f271 0 sys__mmap2(void*, unsigned int, int, int, int, long)
PUBLIC 2f311 0 (anonymous namespace)::MicrodumpWriter::CaptureCrashingThreadStack(int)
PUBLIC 2f44d 0 (anonymous namespace)::MicrodumpWriter::LogLine(char const*)
PUBLIC 2f46d 0 (anonymous namespace)::MicrodumpWriter::DumpProductInformation()
PUBLIC 2f4b9 0 (anonymous namespace)::MicrodumpWriter::DumpOSInformation()
PUBLIC 2f611 0 (anonymous namespace)::MicrodumpWriter::DumpProcessType()
PUBLIC 2f65d 0 (anonymous namespace)::MicrodumpWriter::DumpCrashReason()
PUBLIC 2f6dd 0 (anonymous namespace)::MicrodumpWriter::DumpGPUInformation()
PUBLIC 2f729 0 (anonymous namespace)::MicrodumpWriter::DumpFreeSpace()
PUBLIC 2fa41 0 (anonymous namespace)::MicrodumpWriter::DumpThreadStack()
PUBLIC 2fb75 0 (anonymous namespace)::MicrodumpWriter::DumpCPUState()
PUBLIC 2fbed 0 (anonymous namespace)::MicrodumpWriter::DumpMappings()
PUBLIC 2fd09 0 google_breakpad::LinuxDumper::crash_thread() const
PUBLIC 2fd19 0 (anonymous namespace)::MicrodumpWriter::LogAppend(char const*)
PUBLIC 2fd41 0 (anonymous namespace)::MicrodumpWriter::LogCommitLine()
PUBLIC 2fd65 0 void (anonymous namespace)::MicrodumpWriter::LogAppend<unsigned char>(unsigned char)
PUBLIC 2fdf5 0 (anonymous namespace)::MicrodumpWriter::LogAppend(char*)
PUBLIC 2fe15 0 void (anonymous namespace)::MicrodumpWriter::LogAppend<int>(int)
PUBLIC 2fe9d 0 google_breakpad::LinuxDumper::crash_signal() const
PUBLIC 2fead 0 void (anonymous namespace)::MicrodumpWriter::LogAppend<unsigned int>(unsigned int)
PUBLIC 2ff35 0 google_breakpad::LinuxDumper::crash_address() const
PUBLIC 2ff45 0 google_breakpad::LinuxDumper::GetMainThreadIndex() const
PUBLIC 2ffa9 0 google_breakpad::LinuxDumper::mappings()
PUBLIC 2ffb9 0 std::__ndk1::vector<google_breakpad::MappingInfo*, google_breakpad::PageStdAllocator<google_breakpad::MappingInfo*> >::size() const
PUBLIC 2ffcf 0 std::__ndk1::vector<google_breakpad::MappingInfo*, google_breakpad::PageStdAllocator<google_breakpad::MappingInfo*> >::operator[](unsigned int) const
PUBLIC 2ffeb 0 (anonymous namespace)::MappingsAreAdjacent(google_breakpad::MappingInfo const&, google_breakpad::MappingInfo const&)
PUBLIC 30031 0 (anonymous namespace)::NextOrderedMapping(google_breakpad::wasteful_vector<google_breakpad::MappingInfo*> const&, unsigned int)
PUBLIC 300d9 0 std::__ndk1::numeric_limits<unsigned int>::max()
PUBLIC 300e5 0 (anonymous namespace)::Log2Floor(unsigned long long)
PUBLIC 301c5 0 void (anonymous namespace)::MicrodumpWriter::LogAppend<unsigned short>(unsigned short)
PUBLIC 30255 0 unsigned short (anonymous namespace)::saturated_cast<unsigned short, unsigned int>(unsigned int)
PUBLIC 302a7 0 unsigned char (anonymous namespace)::saturated_cast<unsigned char, unsigned int>(unsigned int)
PUBLIC 302f9 0 std::__ndk1::vector<int, google_breakpad::PageStdAllocator<int> >::size() const
PUBLIC 3030f 0 std::__ndk1::vector<int, google_breakpad::PageStdAllocator<int> >::operator[](unsigned int) const
PUBLIC 3032b 0 (anonymous namespace)::MappingLessThan(google_breakpad::MappingInfo const*, google_breakpad::MappingInfo const*)
PUBLIC 3035d 0 std::__ndk1::__libcpp_numeric_limits<unsigned int, true>::max()
PUBLIC 30363 0 std::__ndk1::numeric_limits<unsigned short>::max()
PUBLIC 3036d 0 std::__ndk1::numeric_limits<unsigned short>::min()
PUBLIC 30377 0 std::__ndk1::__libcpp_numeric_limits<unsigned short, true>::max()
PUBLIC 3037d 0 std::__ndk1::__libcpp_numeric_limits<unsigned short, true>::min()
PUBLIC 30381 0 std::__ndk1::numeric_limits<unsigned char>::max()
PUBLIC 3038b 0 std::__ndk1::numeric_limits<unsigned char>::min()
PUBLIC 30395 0 std::__ndk1::__libcpp_numeric_limits<unsigned char, true>::max()
PUBLIC 30399 0 std::__ndk1::__libcpp_numeric_limits<unsigned char, true>::min()
PUBLIC 3039d 0 (anonymous namespace)::MicrodumpWriter::LogAppend(void const*, unsigned int)
PUBLIC 303f1 0 (anonymous namespace)::MicrodumpWriter::HaveMappingInfo(google_breakpad::MappingInfo const&)
PUBLIC 304c5 0 (anonymous namespace)::MicrodumpWriter::DumpModule(google_breakpad::MappingInfo const&, bool, unsigned int, unsigned char const*)
PUBLIC 3072d 0 std::__ndk1::list<google_breakpad::MappingEntry, std::__ndk1::allocator<google_breakpad::MappingEntry> >::begin() const
PUBLIC 30747 0 std::__ndk1::operator!=(std::__ndk1::__list_const_iterator<google_breakpad::MappingEntry, void*> const&, std::__ndk1::__list_const_iterator<google_breakpad::MappingEntry, void*> const&)
PUBLIC 30769 0 std::__ndk1::list<google_breakpad::MappingEntry, std::__ndk1::allocator<google_breakpad::MappingEntry> >::end() const
PUBLIC 30783 0 std::__ndk1::__list_const_iterator<google_breakpad::MappingEntry, void*>::operator->() const
PUBLIC 307a1 0 std::__ndk1::__list_const_iterator<google_breakpad::MappingEntry, void*>::operator++()
PUBLIC 307b5 0 google_breakpad::auto_wasteful_vector<unsigned char, 20u>::auto_wasteful_vector(google_breakpad::PageAllocator*)
PUBLIC 3083d 0 _ZNSt6__ndk16vectorIhN15google_breakpad16PageStdAllocatorIhEEE6insertIPKhEENS_9enable_ifIXaasr21__is_forward_iteratorIT_EE5valuesr16is_constructibleIhNS_15iterator_traitsIS9_E9referenceEEE5valueENS_11__wrap_iterIPhEEE4typeENSD_IS7_EES9_S9_
PUBLIC 309f9 0 std::__ndk1::vector<unsigned char, google_breakpad::PageStdAllocator<unsigned char> >::end()
PUBLIC 30a17 0 _ZNSt6__ndk111__wrap_iterIPKhEC2IPhEERKNS0_IT_EEPNS_9enable_ifIXsr14is_convertibleIS6_S2_EE5valueEvE4typeE
PUBLIC 30a49 0 std::__ndk1::vector<unsigned char, google_breakpad::PageStdAllocator<unsigned char> >::operator[](unsigned int)
PUBLIC 30a63 0 std::__ndk1::vector<unsigned char, google_breakpad::PageStdAllocator<unsigned char> >::size() const
PUBLIC 30a77 0 google_breakpad::auto_wasteful_vector<unsigned char, 20u>::~auto_wasteful_vector()
PUBLIC 30a91 0 google_breakpad::PageStdAllocator<unsigned char>::PageStdAllocator(google_breakpad::PageAllocator&, unsigned char*, unsigned int)
PUBLIC 30ad1 0 google_breakpad::wasteful_vector<unsigned char>::wasteful_vector(google_breakpad::PageStdAllocator<unsigned char>)
PUBLIC 30b31 0 std::__ndk1::vector<unsigned char, google_breakpad::PageStdAllocator<unsigned char> >::reserve(unsigned int)
PUBLIC 30bcd 0 google_breakpad::wasteful_vector<unsigned char>::~wasteful_vector()
PUBLIC 30be7 0 std::__ndk1::allocator<unsigned char>::allocator()
PUBLIC 30bf5 0 std::__ndk1::vector<unsigned char, google_breakpad::PageStdAllocator<unsigned char> >::vector(google_breakpad::PageStdAllocator<unsigned char> const&)
PUBLIC 30c21 0 std::__ndk1::__vector_base<unsigned char, google_breakpad::PageStdAllocator<unsigned char> >::__vector_base(google_breakpad::PageStdAllocator<unsigned char> const&)
PUBLIC 30c81 0 std::__ndk1::__compressed_pair<unsigned char*, google_breakpad::PageStdAllocator<unsigned char> >::__compressed_pair<decltype(nullptr), google_breakpad::PageStdAllocator<unsigned char> const&>(decltype(nullptr)&&, google_breakpad::PageStdAllocator<unsigned char> const&)
PUBLIC 30cd5 0 std::__ndk1::__compressed_pair_elem<unsigned char*, 0, false>::__compressed_pair_elem<decltype(nullptr), void>(decltype(nullptr)&&)
PUBLIC 30d01 0 google_breakpad::PageStdAllocator<unsigned char> const& std::__ndk1::forward<google_breakpad::PageStdAllocator<unsigned char> const&>(std::__ndk1::remove_reference<google_breakpad::PageStdAllocator<unsigned char> const&>::type&)
PUBLIC 30d0f 0 std::__ndk1::__compressed_pair_elem<google_breakpad::PageStdAllocator<unsigned char>, 1, false>::__compressed_pair_elem<google_breakpad::PageStdAllocator<unsigned char> const&, void>(google_breakpad::PageStdAllocator<unsigned char> const&)
PUBLIC 30d41 0 std::__ndk1::vector<unsigned char, google_breakpad::PageStdAllocator<unsigned char> >::capacity() const
PUBLIC 30d57 0 std::__ndk1::__vector_base<unsigned char, google_breakpad::PageStdAllocator<unsigned char> >::__alloc()
PUBLIC 30d71 0 std::__ndk1::__split_buffer<unsigned char, google_breakpad::PageStdAllocator<unsigned char>&>::__split_buffer(unsigned int, unsigned int, google_breakpad::PageStdAllocator<unsigned char>&)
PUBLIC 30e25 0 std::__ndk1::vector<unsigned char, google_breakpad::PageStdAllocator<unsigned char> >::__swap_out_circular_buffer(std::__ndk1::__split_buffer<unsigned char, google_breakpad::PageStdAllocator<unsigned char>&>&)
PUBLIC 30eb5 0 std::__ndk1::__split_buffer<unsigned char, google_breakpad::PageStdAllocator<unsigned char>&>::~__split_buffer()
PUBLIC 30f09 0 std::__ndk1::__vector_base<unsigned char, google_breakpad::PageStdAllocator<unsigned char> >::capacity() const
PUBLIC 30f2d 0 std::__ndk1::__vector_base<unsigned char, google_breakpad::PageStdAllocator<unsigned char> >::__end_cap() const
PUBLIC 30f45 0 std::__ndk1::__compressed_pair<unsigned char*, google_breakpad::PageStdAllocator<unsigned char> >::first() const
PUBLIC 30f5b 0 std::__ndk1::__compressed_pair_elem<unsigned char*, 0, false>::__get() const
PUBLIC 30f69 0 std::__ndk1::__compressed_pair<unsigned char*, google_breakpad::PageStdAllocator<unsigned char> >::second()
PUBLIC 30f81 0 std::__ndk1::__compressed_pair_elem<google_breakpad::PageStdAllocator<unsigned char>, 1, false>::__get()
PUBLIC 30f8f 0 std::__ndk1::__compressed_pair<unsigned char*, google_breakpad::PageStdAllocator<unsigned char>&>::__compressed_pair<decltype(nullptr), google_breakpad::PageStdAllocator<unsigned char>&>(decltype(nullptr)&&, google_breakpad::PageStdAllocator<unsigned char>&)
PUBLIC 30fe3 0 std::__ndk1::allocator_traits<google_breakpad::PageStdAllocator<unsigned char> >::allocate(google_breakpad::PageStdAllocator<unsigned char>&, unsigned int)
PUBLIC 31007 0 std::__ndk1::__split_buffer<unsigned char, google_breakpad::PageStdAllocator<unsigned char>&>::__alloc()
PUBLIC 3101f 0 std::__ndk1::__split_buffer<unsigned char, google_breakpad::PageStdAllocator<unsigned char>&>::__end_cap()
PUBLIC 31037 0 google_breakpad::PageStdAllocator<unsigned char>& std::__ndk1::forward<google_breakpad::PageStdAllocator<unsigned char>&>(std::__ndk1::remove_reference<google_breakpad::PageStdAllocator<unsigned char>&>::type&)
PUBLIC 31045 0 std::__ndk1::__compressed_pair_elem<google_breakpad::PageStdAllocator<unsigned char>&, 1, false>::__compressed_pair_elem<google_breakpad::PageStdAllocator<unsigned char>&, void>(google_breakpad::PageStdAllocator<unsigned char>&)
PUBLIC 3106d 0 google_breakpad::PageStdAllocator<unsigned char>::allocate(unsigned int, void const*)
PUBLIC 310b7 0 std::__ndk1::__compressed_pair<unsigned char*, google_breakpad::PageStdAllocator<unsigned char>&>::second()
PUBLIC 310cf 0 std::__ndk1::__compressed_pair_elem<google_breakpad::PageStdAllocator<unsigned char>&, 1, false>::__get()
PUBLIC 310df 0 std::__ndk1::__compressed_pair<unsigned char*, google_breakpad::PageStdAllocator<unsigned char>&>::first()
PUBLIC 310f5 0 std::__ndk1::__compressed_pair_elem<unsigned char*, 0, false>::__get()
PUBLIC 31103 0 std::__ndk1::vector<unsigned char, google_breakpad::PageStdAllocator<unsigned char> >::__annotate_delete() const
PUBLIC 3116f 0 void std::__ndk1::allocator_traits<google_breakpad::PageStdAllocator<unsigned char> >::__construct_backward<unsigned char*>(google_breakpad::PageStdAllocator<unsigned char>&, unsigned char*, unsigned char*, unsigned char*&)
PUBLIC 311d9 0 _ZNSt6__ndk14swapIPhEENS_9enable_ifIXaasr21is_move_constructibleIT_EE5valuesr18is_move_assignableIS3_EE5valueEvE4typeERS3_S6_
PUBLIC 31235 0 std::__ndk1::__vector_base<unsigned char, google_breakpad::PageStdAllocator<unsigned char> >::__end_cap()
PUBLIC 3124d 0 std::__ndk1::vector<unsigned char, google_breakpad::PageStdAllocator<unsigned char> >::__annotate_new(unsigned int) const
PUBLIC 312b5 0 std::__ndk1::vector<unsigned char, google_breakpad::PageStdAllocator<unsigned char> >::__invalidate_all_iterators()
PUBLIC 312c1 0 std::__ndk1::vector<unsigned char, google_breakpad::PageStdAllocator<unsigned char> >::__annotate_contiguous_container(void const*, void const*, void const*, void const*) const
PUBLIC 312f5 0 std::__ndk1::vector<unsigned char, google_breakpad::PageStdAllocator<unsigned char> >::data() const
PUBLIC 3130d 0 unsigned char* std::__ndk1::__to_raw_pointer<unsigned char>(unsigned char*)
PUBLIC 3131b 0 void std::__ndk1::allocator_traits<google_breakpad::PageStdAllocator<unsigned char> >::construct<unsigned char, unsigned char>(google_breakpad::PageStdAllocator<unsigned char>&, unsigned char*, unsigned char&&)
PUBLIC 31359 0 _ZNSt6__ndk116move_if_noexceptIhEENS_11conditionalIXaantsr29is_nothrow_move_constructibleIT_EE5valuesr21is_copy_constructibleIS2_EE5valueERKS2_OS2_E4typeERS2_
PUBLIC 3136f 0 void std::__ndk1::allocator_traits<google_breakpad::PageStdAllocator<unsigned char> >::__construct<unsigned char, unsigned char>(std::__ndk1::integral_constant<bool, true>, google_breakpad::PageStdAllocator<unsigned char>&, unsigned char*, unsigned char&&)
PUBLIC 313ad 0 unsigned char&& std::__ndk1::forward<unsigned char>(std::__ndk1::remove_reference<unsigned char>::type&)
PUBLIC 313bb 0 void std::__ndk1::allocator<unsigned char>::construct<unsigned char, unsigned char>(unsigned char*, unsigned char&&)
PUBLIC 313ed 0 std::__ndk1::remove_reference<unsigned char&>::type&& std::__ndk1::move<unsigned char&>(unsigned char&)
PUBLIC 313fb 0 std::__ndk1::remove_reference<unsigned char*&>::type&& std::__ndk1::move<unsigned char*&>(unsigned char*&)
PUBLIC 31409 0 std::__ndk1::__compressed_pair<unsigned char*, google_breakpad::PageStdAllocator<unsigned char> >::first()
PUBLIC 3141f 0 std::__ndk1::__split_buffer<unsigned char, google_breakpad::PageStdAllocator<unsigned char>&>::clear()
PUBLIC 31439 0 std::__ndk1::allocator_traits<google_breakpad::PageStdAllocator<unsigned char> >::deallocate(google_breakpad::PageStdAllocator<unsigned char>&, unsigned char*, unsigned int)
PUBLIC 3146b 0 std::__ndk1::__split_buffer<unsigned char, google_breakpad::PageStdAllocator<unsigned char>&>::capacity() const
PUBLIC 3148f 0 std::__ndk1::__split_buffer<unsigned char, google_breakpad::PageStdAllocator<unsigned char>&>::__destruct_at_end(unsigned char*)
PUBLIC 314ad 0 std::__ndk1::__split_buffer<unsigned char, google_breakpad::PageStdAllocator<unsigned char>&>::__destruct_at_end(unsigned char*, std::__ndk1::integral_constant<bool, false>)
PUBLIC 31507 0 void std::__ndk1::allocator_traits<google_breakpad::PageStdAllocator<unsigned char> >::destroy<unsigned char>(google_breakpad::PageStdAllocator<unsigned char>&, unsigned char*)
PUBLIC 31525 0 void std::__ndk1::allocator_traits<google_breakpad::PageStdAllocator<unsigned char> >::__destroy<unsigned char>(std::__ndk1::integral_constant<bool, true>, google_breakpad::PageStdAllocator<unsigned char>&, unsigned char*)
PUBLIC 31543 0 std::__ndk1::allocator<unsigned char>::destroy(unsigned char*)
PUBLIC 31555 0 google_breakpad::PageStdAllocator<unsigned char>::deallocate(unsigned char*, unsigned int)
PUBLIC 31575 0 std::__ndk1::__split_buffer<unsigned char, google_breakpad::PageStdAllocator<unsigned char>&>::__end_cap() const
PUBLIC 3158d 0 std::__ndk1::__compressed_pair<unsigned char*, google_breakpad::PageStdAllocator<unsigned char>&>::first() const
PUBLIC 315a3 0 std::__ndk1::vector<unsigned char, google_breakpad::PageStdAllocator<unsigned char> >::~vector()
PUBLIC 315d7 0 std::__ndk1::__vector_base<unsigned char, google_breakpad::PageStdAllocator<unsigned char> >::~__vector_base()
PUBLIC 31625 0 std::__ndk1::__vector_base<unsigned char, google_breakpad::PageStdAllocator<unsigned char> >::clear()
PUBLIC 3163f 0 std::__ndk1::__vector_base<unsigned char, google_breakpad::PageStdAllocator<unsigned char> >::__destruct_at_end(unsigned char*)
PUBLIC 316a1 0 decltype ((({parm#1}.base)())-(({parm#2}.base)())) std::__ndk1::operator-<unsigned char const*, unsigned char*>(std::__ndk1::__wrap_iter<unsigned char const*> const&, std::__ndk1::__wrap_iter<unsigned char*> const&)
PUBLIC 316cb 0 std::__ndk1::vector<unsigned char, google_breakpad::PageStdAllocator<unsigned char> >::begin()
PUBLIC 316e9 0 std::__ndk1::iterator_traits<unsigned char const*>::difference_type std::__ndk1::distance<unsigned char const*>(unsigned char const*, unsigned char const*)
PUBLIC 31707 0 void std::__ndk1::advance<unsigned char const*>(unsigned char const*&, std::__ndk1::iterator_traits<unsigned char const*>::difference_type)
PUBLIC 31725 0 _ZNSt6__ndk16vectorIhN15google_breakpad16PageStdAllocatorIhEEE18__construct_at_endIPKhEENS_9enable_ifIXsr21__is_forward_iteratorIT_EE5valueEvE4typeES9_S9_j
PUBLIC 317a1 0 std::__ndk1::vector<unsigned char, google_breakpad::PageStdAllocator<unsigned char> >::__RAII_IncreaseAnnotator::__RAII_IncreaseAnnotator(std::__ndk1::vector<unsigned char, google_breakpad::PageStdAllocator<unsigned char> > const&, unsigned int)
PUBLIC 317c3 0 std::__ndk1::vector<unsigned char, google_breakpad::PageStdAllocator<unsigned char> >::__move_range(unsigned char*, unsigned char*, unsigned char*)
PUBLIC 3185b 0 std::__ndk1::vector<unsigned char, google_breakpad::PageStdAllocator<unsigned char> >::__RAII_IncreaseAnnotator::__done()
PUBLIC 31867 0 unsigned char* std::__ndk1::copy<unsigned char const*, unsigned char*>(unsigned char const*, unsigned char const*, unsigned char*)
PUBLIC 318b1 0 std::__ndk1::vector<unsigned char, google_breakpad::PageStdAllocator<unsigned char> >::__recommend(unsigned int) const
PUBLIC 3193d 0 _ZNSt6__ndk114__split_bufferIhRN15google_breakpad16PageStdAllocatorIhEEE18__construct_at_endIPKhEENS_9enable_ifIXsr21__is_forward_iteratorIT_EE5valueEvE4typeESA_SA_
PUBLIC 319a1 0 std::__ndk1::vector<unsigned char, google_breakpad::PageStdAllocator<unsigned char> >::__swap_out_circular_buffer(std::__ndk1::__split_buffer<unsigned char, google_breakpad::PageStdAllocator<unsigned char>&>&, unsigned char*)
PUBLIC 31a55 0 std::__ndk1::vector<unsigned char, google_breakpad::PageStdAllocator<unsigned char> >::__make_iter(unsigned char*)
PUBLIC 31a9d 0 std::__ndk1::__wrap_iter<unsigned char const*>::base() const
PUBLIC 31aad 0 std::__ndk1::__wrap_iter<unsigned char*>::base() const
PUBLIC 31abd 0 std::__ndk1::iterator_traits<unsigned char const*>::difference_type std::__ndk1::__distance<unsigned char const*>(unsigned char const*, unsigned char const*, std::__ndk1::random_access_iterator_tag)
PUBLIC 31ad5 0 void std::__ndk1::__advance<unsigned char const*>(unsigned char const*&, std::__ndk1::iterator_traits<unsigned char const*>::difference_type, std::__ndk1::random_access_iterator_tag)
PUBLIC 31af3 0 void std::__ndk1::allocator_traits<google_breakpad::PageStdAllocator<unsigned char> >::__construct_range_forward<unsigned char const*, unsigned char*>(google_breakpad::PageStdAllocator<unsigned char>&, unsigned char const*, unsigned char const*, unsigned char*&)
PUBLIC 31b53 0 void std::__ndk1::allocator_traits<google_breakpad::PageStdAllocator<unsigned char> >::construct<unsigned char, unsigned char const&>(google_breakpad::PageStdAllocator<unsigned char>&, unsigned char*, unsigned char const&)
PUBLIC 31b91 0 void std::__ndk1::allocator_traits<google_breakpad::PageStdAllocator<unsigned char> >::__construct<unsigned char, unsigned char const&>(std::__ndk1::integral_constant<bool, true>, google_breakpad::PageStdAllocator<unsigned char>&, unsigned char*, unsigned char const&)
PUBLIC 31bcf 0 unsigned char const& std::__ndk1::forward<unsigned char const&>(std::__ndk1::remove_reference<unsigned char const&>::type&)
